---
triple:          'arm64-apple-darwin'
binary-path:     'bin/Auto'
relocations:
  - { offset: 0x3CC3, size: 0x8, addend: 0x0, symName: __ZNSt3__16chronossB8ne180100IxNS_5ratioILl1ELl1000EEExS3_Q20three_way_comparableINS_11common_typeIJT_T1_EE4typeEEEEDaRKNS0_8durationIS5_T0_EERKNS9_IS6_T2_EE, symObjAddr: 0x7FC, symBinAddr: 0x100002788, symSize: 0x74 }
  - { offset: 0x3D30, size: 0x8, addend: 0x0, symName: __ZNSt3__16chronossB8ne180100IxNS_5ratioILl1ELl1000EEEeNS2_ILl1ELl1EEEQ20three_way_comparableINS_11common_typeIJT_T1_EE4typeEEEEDaRKNS0_8durationIS6_T0_EERKNSA_IS7_T2_EE, symObjAddr: 0x930, symBinAddr: 0x1000028BC, symSize: 0x84 }
  - { offset: 0x4274, size: 0x8, addend: 0x0, symName: __ZNSt3__16chronossB8ne180100IxNS_5ratioILl1ELl1000000000EEExNS2_ILl1ELl1000EEEQ20three_way_comparableINS_11common_typeIJT_T1_EE4typeEEEEDaRKNS0_8durationIS6_T0_EERKNSA_IS7_T2_EE, symObjAddr: 0xA04, symBinAddr: 0x100002990, symSize: 0x78 }
  - { offset: 0x42E1, size: 0x8, addend: 0x0, symName: __ZNSt3__16chrono13duration_castB8ne180100INS0_8durationIxNS_5ratioILl1ELl1000000000EEEEExNS3_ILl1ELl1000EEETnNS_9enable_ifIXsr13__is_durationIT_EE5valueEiE4typeELi0EEES8_RKNS2_IT0_T1_EE, symObjAddr: 0x9B4, symBinAddr: 0x100002940, symSize: 0x30 }
  - { offset: 0x436E, size: 0x8, addend: 0x0, symName: __ZNSt3__16chrono13duration_castB8ne180100INS0_8durationIeNS_5ratioILl1ELl1000EEEEExS4_TnNS_9enable_ifIXsr13__is_durationIT_EE5valueEiE4typeELi0EEES7_RKNS2_IT0_T1_EE, symObjAddr: 0xC58, symBinAddr: 0x100002BE4, symSize: 0x30 }
  - { offset: 0x4406, size: 0x8, addend: 0x0, symName: __ZNSt3__16chrono13duration_castB8ne180100INS0_8durationIeNS_5ratioILl1ELl1000EEEEEeNS3_ILl1ELl1EEETnNS_9enable_ifIXsr13__is_durationIT_EE5valueEiE4typeELi0EEES8_RKNS2_IT0_T1_EE, symObjAddr: 0xD64, symBinAddr: 0x100002CF0, symSize: 0x30 }
  - { offset: 0x4858, size: 0x8, addend: 0x0, symName: __ZNSt3__124__put_character_sequenceB8ne180100IcNS_11char_traitsIcEEEERNS_13basic_ostreamIT_T0_EES7_PKS4_m, symObjAddr: 0xF84, symBinAddr: 0x100002F10, symSize: 0x1E8 }
  - { offset: 0x58F7, size: 0x8, addend: 0x0, symName: __ZNSt3__1lsB8ne180100INS_11char_traitsIcEEEERNS_13basic_ostreamIcT_EES6_PKc, symObjAddr: 0xC8, symBinAddr: 0x100002054, symSize: 0x48 }
  - { offset: 0x593D, size: 0x8, addend: 0x0, symName: __ZNSt3__14endlB8ne180100IcNS_11char_traitsIcEEEERNS_13basic_ostreamIT_T0_EES7_, symObjAddr: 0x4E4, symBinAddr: 0x100002470, symSize: 0x58 }
  - { offset: 0x5982, size: 0x8, addend: 0x0, symName: __ZNSt3__111this_thread9sleep_forB8ne180100IxNS_5ratioILl1ELl1000EEEEEvRKNS_6chrono8durationIT_T0_EE, symObjAddr: 0x678, symBinAddr: 0x100002604, symSize: 0x110 }
  - { offset: 0x59E7, size: 0x8, addend: 0x0, symName: __ZNSt3__1gtB8ne180100ENS_15strong_orderingENS_20_CmpUnspecifiedParamE, symObjAddr: 0x7DC, symBinAddr: 0x100002768, symSize: 0x20 }
  - { offset: 0x5A39, size: 0x8, addend: 0x0, symName: __ZNSt3__1ltB8ne180100ENS_16partial_orderingENS_20_CmpUnspecifiedParamE, symObjAddr: 0x8DC, symBinAddr: 0x100002868, symSize: 0x54 }
  - { offset: 0x5A6F, size: 0x8, addend: 0x0, symName: __ZNSt3__1ltB8ne180100ENS_15strong_orderingENS_20_CmpUnspecifiedParamE, symObjAddr: 0x9E4, symBinAddr: 0x100002970, symSize: 0x20 }
  - { offset: 0x5C8F, size: 0x8, addend: 0x0, symName: __ZNSt3__116__pad_and_outputB8ne180100IcNS_11char_traitsIcEEEENS_19ostreambuf_iteratorIT_T0_EES6_PKS4_S8_S8_RNS_8ios_baseES4_, symObjAddr: 0x11BC, symBinAddr: 0x100003148, symSize: 0x214 }
  - { offset: 0x5D5E, size: 0x8, addend: 0x0, symName: __ZNSt3__112__to_addressB8ne180100IcEEPT_S2_, symObjAddr: 0x16F4, symBinAddr: 0x100003680, symSize: 0x14 }
  - { offset: 0x5D93, size: 0x8, addend: 0x0, symName: __ZNSt3__19use_facetB8ne180100INS_5ctypeIcEEEERKT_RKNS_6localeE, symObjAddr: 0x19A4, symBinAddr: 0x100003930, symSize: 0x2C }
  - { offset: 0x6260, size: 0x8, addend: 0x0, symName: __ZNSt3__118__constexpr_strlenB8ne180100EPKc, symObjAddr: 0x1A3C, symBinAddr: 0x1000039C8, symSize: 0x24 }
  - { offset: 0x7306, size: 0x8, addend: 0x0, symName: __ZNKSt3__16chrono15__duration_castINS0_8durationIeNS_5ratioILl1ELl1EEEEENS2_IeNS3_ILl1ELl1000EEEEENS3_ILl1000ELl1EEELb0ELb1EEclB8ne180100ERKS5_, symObjAddr: 0xD94, symBinAddr: 0x100002D20, symSize: 0x4C }
  - { offset: 0x7370, size: 0x8, addend: 0x0, symName: __ZNKSt3__16chrono15__duration_castINS0_8durationIxNS_5ratioILl1ELl1000EEEEENS2_IxNS3_ILl1ELl1000000000EEEEENS3_ILl1000000ELl1EEELb0ELb1EEclB8ne180100ERKS5_, symObjAddr: 0xDF8, symBinAddr: 0x100002D84, symSize: 0x48 }
  - { offset: 0x74BA, size: 0x8, addend: 0x0, symName: _main, symObjAddr: 0x0, symBinAddr: 0x100001F8C, symSize: 0xC8 }
  - { offset: 0x75F5, size: 0x8, addend: 0x0, symName: __ZN13AutonomousCarC1Edd, symObjAddr: 0x110, symBinAddr: 0x10000209C, symSize: 0x3C }
  - { offset: 0x7639, size: 0x8, addend: 0x0, symName: __ZN13AutonomousCar15autonomousDriveEv, symObjAddr: 0x14C, symBinAddr: 0x1000020D8, symSize: 0x140 }
  - { offset: 0x7687, size: 0x8, addend: 0x0, symName: __ZN13AutonomousCar5startEv, symObjAddr: 0x28C, symBinAddr: 0x100002218, symSize: 0x22C }
  - { offset: 0x76E3, size: 0x8, addend: 0x0, symName: __ZNSt3__113basic_ostreamIcNS_11char_traitsIcEEElsB8ne180100EPFRS3_S4_E, symObjAddr: 0x4B8, symBinAddr: 0x100002444, symSize: 0x2C }
  - { offset: 0x7715, size: 0x8, addend: 0x0, symName: __ZN13AutonomousCarC2Edd, symObjAddr: 0x53C, symBinAddr: 0x1000024C8, symSize: 0x2C }
  - { offset: 0x7759, size: 0x8, addend: 0x0, symName: __ZN13AutonomousCar19freeRuntimeDistanceEv, symObjAddr: 0x568, symBinAddr: 0x1000024F4, symSize: 0x34 }
  - { offset: 0x777D, size: 0x8, addend: 0x0, symName: __ZN13AutonomousCar15brakingDistanceEv, symObjAddr: 0x59C, symBinAddr: 0x100002528, symSize: 0x68 }
  - { offset: 0x77A1, size: 0x8, addend: 0x0, symName: __ZN13AutonomousCar11printStatusEv, symObjAddr: 0x604, symBinAddr: 0x100002590, symSize: 0x74 }
  - { offset: 0x77CA, size: 0x8, addend: 0x0, symName: __ZNSt3__16chrono8durationIxNS_5ratioILl1ELl1000EEEEC1B8ne180100IiTnNS_9enable_ifIXaasr14is_convertibleIRKT_xEE5valueooL_ZNS_17integral_constantIbLb0EE5valueEEntsr23treat_as_floating_pointIS7_EE5valueEiE4typeELi0EEES9_, symObjAddr: 0x788, symBinAddr: 0x100002714, symSize: 0x34 }
  - { offset: 0x780F, size: 0x8, addend: 0x0, symName: __ZN13AutonomousCar8setSpeedEd, symObjAddr: 0x7BC, symBinAddr: 0x100002748, symSize: 0x20 }
  - { offset: 0x7841, size: 0x8, addend: 0x0, symName: __ZNSt3__16chrono8durationIxNS_5ratioILl1ELl1000EEEE4zeroB8ne180100Ev, symObjAddr: 0x870, symBinAddr: 0x1000027FC, symSize: 0x38 }
  - { offset: 0x7862, size: 0x8, addend: 0x0, symName: __ZNSt3__120_CmpUnspecifiedParamC1B8ne180100EMS0_i, symObjAddr: 0x8A8, symBinAddr: 0x100002834, symSize: 0x34 }
  - { offset: 0x7894, size: 0x8, addend: 0x0, symName: __ZNSt3__16chrono8durationIxNS_5ratioILl1ELl1000000000EEEEppB8ne180100Ev, symObjAddr: 0xA7C, symBinAddr: 0x100002A08, symSize: 0x20 }
  - { offset: 0x78B8, size: 0x8, addend: 0x0, symName: __ZNSt3__16chrono8durationIxNS_5ratioILl1ELl1000000000EEEE3maxB8ne180100Ev, symObjAddr: 0xA9C, symBinAddr: 0x100002A28, symSize: 0x38 }
  - { offset: 0x78CB, size: 0x8, addend: 0x0, symName: __ZNKSt3__16chrono8durationIxNS_5ratioILl1ELl1000EEEE5countB8ne180100Ev, symObjAddr: 0xAD4, symBinAddr: 0x100002A60, symSize: 0x18 }
  - { offset: 0x78EF, size: 0x8, addend: 0x0, symName: __ZNSt3__16chrono15duration_valuesIxE4zeroB8ne180100Ev, symObjAddr: 0xAEC, symBinAddr: 0x100002A78, symSize: 0x8 }
  - { offset: 0x790C, size: 0x8, addend: 0x0, symName: __ZNSt3__16chrono8durationIxNS_5ratioILl1ELl1000EEEEC1B8ne180100IxTnNS_9enable_ifIXaasr14is_convertibleIRKT_xEE5valueooL_ZNS_17integral_constantIbLb0EE5valueEEntsr23treat_as_floating_pointIS7_EE5valueEiE4typeELi0EEES9_, symObjAddr: 0xAF4, symBinAddr: 0x100002A80, symSize: 0x34 }
  - { offset: 0x7951, size: 0x8, addend: 0x0, symName: __ZNSt3__16chrono8durationIxNS_5ratioILl1ELl1000EEEEC2B8ne180100IxTnNS_9enable_ifIXaasr14is_convertibleIRKT_xEE5valueooL_ZNS_17integral_constantIbLb0EE5valueEEntsr23treat_as_floating_pointIS7_EE5valueEiE4typeELi0EEES9_, symObjAddr: 0xB38, symBinAddr: 0x100002AC4, symSize: 0x24 }
  - { offset: 0x7996, size: 0x8, addend: 0x0, symName: __ZNSt3__120_CmpUnspecifiedParamC2B8ne180100EMS0_i, symObjAddr: 0xB5C, symBinAddr: 0x100002AE8, symSize: 0x18 }
  - { offset: 0x79C8, size: 0x8, addend: 0x0, symName: __ZNKSt3__116partial_ordering12__is_orderedB8ne180100Ev, symObjAddr: 0xB74, symBinAddr: 0x100002B00, symSize: 0x20 }
  - { offset: 0x79EC, size: 0x8, addend: 0x0, symName: __ZNSt3__16chrono8durationIeNS_5ratioILl1ELl1000EEEEC1B8ne180100IxS3_TnNS_9enable_ifIXaasr13__no_overflowIT0_S3_EE5valueooL_ZNS_17integral_constantIbLb1EE5valueEEaaeqsr13__no_overflowIS7_S3_E4typeE3denLi1Entsr23treat_as_floating_pointIT_EE5valueEiE4typeELi0EEERKNS1_ISA_S7_EE, symObjAddr: 0xB94, symBinAddr: 0x100002B20, symSize: 0x34 }
  - { offset: 0x7A3A, size: 0x8, addend: 0x0, symName: __ZNKSt3__16chrono8durationIeNS_5ratioILl1ELl1000EEEE5countB8ne180100Ev, symObjAddr: 0xBC8, symBinAddr: 0x100002B54, symSize: 0x18 }
  - { offset: 0x7A5E, size: 0x8, addend: 0x0, symName: __ZNSt3__16chrono8durationIeNS_5ratioILl1ELl1000EEEEC1B8ne180100IeNS2_ILl1ELl1EEETnNS_9enable_ifIXaasr13__no_overflowIT0_S3_EE5valueooL_ZNS_17integral_constantIbLb1EE5valueEEaaeqsr13__no_overflowIS8_S3_E4typeE3denLi1Entsr23treat_as_floating_pointIT_EE5valueEiE4typeELi0EEERKNS1_ISB_S8_EE, symObjAddr: 0xBE0, symBinAddr: 0x100002B6C, symSize: 0x34 }
  - { offset: 0x7AAC, size: 0x8, addend: 0x0, symName: __ZNSt3__16chrono8durationIeNS_5ratioILl1ELl1000EEEEC2B8ne180100IxS3_TnNS_9enable_ifIXaasr13__no_overflowIT0_S3_EE5valueooL_ZNS_17integral_constantIbLb1EE5valueEEaaeqsr13__no_overflowIS7_S3_E4typeE3denLi1Entsr23treat_as_floating_pointIT_EE5valueEiE4typeELi0EEERKNS1_ISA_S7_EE, symObjAddr: 0xC14, symBinAddr: 0x100002BA0, symSize: 0x44 }
  - { offset: 0x7B04, size: 0x8, addend: 0x0, symName: __ZNKSt3__16chrono15__duration_castINS0_8durationIxNS_5ratioILl1ELl1000EEEEENS2_IeS4_EENS3_ILl1ELl1EEELb1ELb1EEclB8ne180100ERKS5_, symObjAddr: 0xC88, symBinAddr: 0x100002C14, symSize: 0x40 }
  - { offset: 0x7B40, size: 0x8, addend: 0x0, symName: __ZNSt3__16chrono8durationIeNS_5ratioILl1ELl1000EEEEC1B8ne180100IeTnNS_9enable_ifIXaasr14is_convertibleIRKT_eEE5valueooL_ZNS_17integral_constantIbLb1EE5valueEEntsr23treat_as_floating_pointIS7_EE5valueEiE4typeELi0EEES9_, symObjAddr: 0xCC8, symBinAddr: 0x100002C54, symSize: 0x34 }
  - { offset: 0x7B85, size: 0x8, addend: 0x0, symName: __ZNSt3__16chrono8durationIeNS_5ratioILl1ELl1000EEEEC2B8ne180100IeTnNS_9enable_ifIXaasr14is_convertibleIRKT_eEE5valueooL_ZNS_17integral_constantIbLb1EE5valueEEntsr23treat_as_floating_pointIS7_EE5valueEiE4typeELi0EEES9_, symObjAddr: 0xCFC, symBinAddr: 0x100002C88, symSize: 0x24 }
  - { offset: 0x7BCA, size: 0x8, addend: 0x0, symName: __ZNSt3__16chrono8durationIeNS_5ratioILl1ELl1000EEEEC2B8ne180100IeNS2_ILl1ELl1EEETnNS_9enable_ifIXaasr13__no_overflowIT0_S3_EE5valueooL_ZNS_17integral_constantIbLb1EE5valueEEaaeqsr13__no_overflowIS8_S3_E4typeE3denLi1Entsr23treat_as_floating_pointIT_EE5valueEiE4typeELi0EEERKNS1_ISB_S8_EE, symObjAddr: 0xD20, symBinAddr: 0x100002CAC, symSize: 0x44 }
  - { offset: 0x7C18, size: 0x8, addend: 0x0, symName: __ZNKSt3__16chrono8durationIeNS_5ratioILl1ELl1EEEE5countB8ne180100Ev, symObjAddr: 0xDE0, symBinAddr: 0x100002D6C, symSize: 0x18 }
  - { offset: 0x7C3C, size: 0x8, addend: 0x0, symName: __ZNSt3__16chrono8durationIxNS_5ratioILl1ELl1000000000EEEEC1B8ne180100IxTnNS_9enable_ifIXaasr14is_convertibleIRKT_xEE5valueooL_ZNS_17integral_constantIbLb0EE5valueEEntsr23treat_as_floating_pointIS7_EE5valueEiE4typeELi0EEES9_, symObjAddr: 0xE40, symBinAddr: 0x100002DCC, symSize: 0x34 }
  - { offset: 0x7C81, size: 0x8, addend: 0x0, symName: __ZNSt3__16chrono8durationIxNS_5ratioILl1ELl1000000000EEEEC2B8ne180100IxTnNS_9enable_ifIXaasr14is_convertibleIRKT_xEE5valueooL_ZNS_17integral_constantIbLb0EE5valueEEntsr23treat_as_floating_pointIS7_EE5valueEiE4typeELi0EEES9_, symObjAddr: 0xE74, symBinAddr: 0x100002E00, symSize: 0x24 }
  - { offset: 0x7CC6, size: 0x8, addend: 0x0, symName: __ZNKSt3__16chrono8durationIxNS_5ratioILl1ELl1000000000EEEE5countB8ne180100Ev, symObjAddr: 0xE98, symBinAddr: 0x100002E24, symSize: 0x18 }
  - { offset: 0x7CEA, size: 0x8, addend: 0x0, symName: __ZNSt3__16chrono8durationIxNS_5ratioILl1ELl1000000000EEEEC1B8ne180100IxNS2_ILl1ELl1000EEETnNS_9enable_ifIXaasr13__no_overflowIT0_S3_EE5valueooL_ZNS_17integral_constantIbLb0EE5valueEEaaeqsr13__no_overflowIS8_S3_E4typeE3denLi1Entsr23treat_as_floating_pointIT_EE5valueEiE4typeELi0EEERKNS1_ISB_S8_EE, symObjAddr: 0xEB0, symBinAddr: 0x100002E3C, symSize: 0x34 }
  - { offset: 0x7D38, size: 0x8, addend: 0x0, symName: __ZNSt3__16chrono8durationIxNS_5ratioILl1ELl1000000000EEEEC2B8ne180100IxNS2_ILl1ELl1000EEETnNS_9enable_ifIXaasr13__no_overflowIT0_S3_EE5valueooL_ZNS_17integral_constantIbLb0EE5valueEEaaeqsr13__no_overflowIS8_S3_E4typeE3denLi1Entsr23treat_as_floating_pointIT_EE5valueEiE4typeELi0EEERKNS1_ISB_S8_EE, symObjAddr: 0xEE4, symBinAddr: 0x100002E70, symSize: 0x4C }
  - { offset: 0x7D86, size: 0x8, addend: 0x0, symName: __ZNSt3__16chrono15duration_valuesIxE3maxB8ne180100Ev, symObjAddr: 0xF30, symBinAddr: 0x100002EBC, symSize: 0x14 }
  - { offset: 0x7D99, size: 0x8, addend: 0x0, symName: __ZNSt3__114numeric_limitsIxE3maxB8ne180100Ev, symObjAddr: 0xF44, symBinAddr: 0x100002ED0, symSize: 0x14 }
  - { offset: 0x7DAC, size: 0x8, addend: 0x0, symName: __ZNSt3__123__libcpp_numeric_limitsIxLb1EE3maxB8ne180100Ev, symObjAddr: 0xF58, symBinAddr: 0x100002EE4, symSize: 0x8 }
  - { offset: 0x7DBF, size: 0x8, addend: 0x0, symName: __ZNSt3__16chrono8durationIxNS_5ratioILl1ELl1000EEEEC2B8ne180100IiTnNS_9enable_ifIXaasr14is_convertibleIRKT_xEE5valueooL_ZNS_17integral_constantIbLb0EE5valueEEntsr23treat_as_floating_pointIS7_EE5valueEiE4typeELi0EEES9_, symObjAddr: 0xF60, symBinAddr: 0x100002EEC, symSize: 0x24 }
  - { offset: 0x7E05, size: 0x8, addend: 0x0, symName: __ZNSt3__111char_traitsIcE6lengthB8ne180100EPKc, symObjAddr: 0x116C, symBinAddr: 0x1000030F8, symSize: 0x34 }
  - { offset: 0x7E45, size: 0x8, addend: 0x0, symName: __ZNKSt3__113basic_ostreamIcNS_11char_traitsIcEEE6sentrycvbB8ne180100Ev, symObjAddr: 0x11A0, symBinAddr: 0x10000312C, symSize: 0x1C }
  - { offset: 0x7E69, size: 0x8, addend: 0x0, symName: __ZNSt3__119ostreambuf_iteratorIcNS_11char_traitsIcEEEC1B8ne180100ERNS_13basic_ostreamIcS2_EE, symObjAddr: 0x13D0, symBinAddr: 0x10000335C, symSize: 0x34 }
  - { offset: 0x7EA0, size: 0x8, addend: 0x0, symName: __ZNKSt3__18ios_base5flagsB8ne180100Ev, symObjAddr: 0x1404, symBinAddr: 0x100003390, symSize: 0x18 }
  - { offset: 0x7EC6, size: 0x8, addend: 0x0, symName: __ZNKSt3__19basic_iosIcNS_11char_traitsIcEEE4fillB8ne180100Ev, symObjAddr: 0x141C, symBinAddr: 0x1000033A8, symSize: 0x64 }
  - { offset: 0x7EEA, size: 0x8, addend: 0x0, symName: __ZNKSt3__119ostreambuf_iteratorIcNS_11char_traitsIcEEE6failedB8ne180100Ev, symObjAddr: 0x1480, symBinAddr: 0x10000340C, symSize: 0x20 }
  - { offset: 0x7F0E, size: 0x8, addend: 0x0, symName: __ZNSt3__19basic_iosIcNS_11char_traitsIcEEE8setstateB8ne180100Ej, symObjAddr: 0x14A0, symBinAddr: 0x10000342C, symSize: 0x2C }
  - { offset: 0x7F42, size: 0x8, addend: 0x0, symName: __ZNKSt3__18ios_base5widthB8ne180100Ev, symObjAddr: 0x14CC, symBinAddr: 0x100003458, symSize: 0x18 }
  - { offset: 0x7F68, size: 0x8, addend: 0x0, symName: __ZNSt3__115basic_streambufIcNS_11char_traitsIcEEE5sputnB8ne180100EPKcl, symObjAddr: 0x14E4, symBinAddr: 0x100003470, symSize: 0x3C }
  - { offset: 0x7FA8, size: 0x8, addend: 0x0, symName: __ZNSt3__112basic_stringIcNS_11char_traitsIcEENS_9allocatorIcEEEC1B8ne180100Emc, symObjAddr: 0x1520, symBinAddr: 0x1000034AC, symSize: 0x3C }
  - { offset: 0x7FEE, size: 0x8, addend: 0x0, symName: __ZNSt3__112basic_stringIcNS_11char_traitsIcEENS_9allocatorIcEEE4dataB8ne180100Ev, symObjAddr: 0x155C, symBinAddr: 0x1000034E8, symSize: 0x28 }
  - { offset: 0x8013, size: 0x8, addend: 0x0, symName: __ZNSt3__18ios_base5widthB8ne180100El, symObjAddr: 0x1584, symBinAddr: 0x100003510, symSize: 0x2C }
  - { offset: 0x8057, size: 0x8, addend: 0x0, symName: __ZNSt3__112basic_stringIcNS_11char_traitsIcEENS_9allocatorIcEEEC2B8ne180100Emc, symObjAddr: 0x15B0, symBinAddr: 0x10000353C, symSize: 0x4C }
  - { offset: 0x80A2, size: 0x8, addend: 0x0, symName: __ZNSt3__117__compressed_pairINS_12basic_stringIcNS_11char_traitsIcEENS_9allocatorIcEEE5__repES5_EC1B8ne180100INS_18__default_init_tagESA_EEOT_OT0_, symObjAddr: 0x15FC, symBinAddr: 0x100003588, symSize: 0x3C }
  - { offset: 0x80F8, size: 0x8, addend: 0x0, symName: __ZNSt3__117__compressed_pairINS_12basic_stringIcNS_11char_traitsIcEENS_9allocatorIcEEE5__repES5_EC2B8ne180100INS_18__default_init_tagESA_EEOT_OT0_, symObjAddr: 0x1638, symBinAddr: 0x1000035C4, symSize: 0x3C }
  - { offset: 0x814E, size: 0x8, addend: 0x0, symName: __ZNSt3__122__compressed_pair_elemINS_12basic_stringIcNS_11char_traitsIcEENS_9allocatorIcEEE5__repELi0ELb0EEC2B8ne180100ENS_18__default_init_tagE, symObjAddr: 0x1674, symBinAddr: 0x100003600, symSize: 0x14 }
  - { offset: 0x8180, size: 0x8, addend: 0x0, symName: __ZNSt3__122__compressed_pair_elemINS_9allocatorIcEELi1ELb1EEC2B8ne180100ENS_18__default_init_tagE, symObjAddr: 0x1688, symBinAddr: 0x100003614, symSize: 0x2C }
  - { offset: 0x81B2, size: 0x8, addend: 0x0, symName: __ZNSt3__19allocatorIcEC2B8ne180100Ev, symObjAddr: 0x16B4, symBinAddr: 0x100003640, symSize: 0x2C }
  - { offset: 0x81DA, size: 0x8, addend: 0x0, symName: __ZNSt3__116__non_trivial_ifILb1ENS_9allocatorIcEEEC2B8ne180100Ev, symObjAddr: 0x16E0, symBinAddr: 0x10000366C, symSize: 0x14 }
  - { offset: 0x8202, size: 0x8, addend: 0x0, symName: __ZNSt3__112basic_stringIcNS_11char_traitsIcEENS_9allocatorIcEEE13__get_pointerB8ne180100Ev, symObjAddr: 0x1708, symBinAddr: 0x100003694, symSize: 0x54 }
  - { offset: 0x8226, size: 0x8, addend: 0x0, symName: __ZNKSt3__112basic_stringIcNS_11char_traitsIcEENS_9allocatorIcEEE9__is_longB8ne180100Ev, symObjAddr: 0x175C, symBinAddr: 0x1000036E8, symSize: 0x34 }
  - { offset: 0x824A, size: 0x8, addend: 0x0, symName: __ZNSt3__112basic_stringIcNS_11char_traitsIcEENS_9allocatorIcEEE18__get_long_pointerB8ne180100Ev, symObjAddr: 0x1790, symBinAddr: 0x10000371C, symSize: 0x28 }
  - { offset: 0x826E, size: 0x8, addend: 0x0, symName: __ZNSt3__112basic_stringIcNS_11char_traitsIcEENS_9allocatorIcEEE19__get_short_pointerB8ne180100Ev, symObjAddr: 0x17B8, symBinAddr: 0x100003744, symSize: 0x28 }
  - { offset: 0x8292, size: 0x8, addend: 0x0, symName: __ZNKSt3__117__compressed_pairINS_12basic_stringIcNS_11char_traitsIcEENS_9allocatorIcEEE5__repES5_E5firstB8ne180100Ev, symObjAddr: 0x17E0, symBinAddr: 0x10000376C, symSize: 0x24 }
  - { offset: 0x82B6, size: 0x8, addend: 0x0, symName: __ZNKSt3__122__compressed_pair_elemINS_12basic_stringIcNS_11char_traitsIcEENS_9allocatorIcEEE5__repELi0ELb0EE5__getB8ne180100Ev, symObjAddr: 0x1804, symBinAddr: 0x100003790, symSize: 0x14 }
  - { offset: 0x82DA, size: 0x8, addend: 0x0, symName: __ZNSt3__117__compressed_pairINS_12basic_stringIcNS_11char_traitsIcEENS_9allocatorIcEEE5__repES5_E5firstB8ne180100Ev, symObjAddr: 0x1818, symBinAddr: 0x1000037A4, symSize: 0x24 }
  - { offset: 0x82FE, size: 0x8, addend: 0x0, symName: __ZNSt3__122__compressed_pair_elemINS_12basic_stringIcNS_11char_traitsIcEENS_9allocatorIcEEE5__repELi0ELb0EE5__getB8ne180100Ev, symObjAddr: 0x183C, symBinAddr: 0x1000037C8, symSize: 0x14 }
  - { offset: 0x8323, size: 0x8, addend: 0x0, symName: __ZNSt3__114pointer_traitsIPcE10pointer_toB8ne180100ERc, symObjAddr: 0x1850, symBinAddr: 0x1000037DC, symSize: 0x14 }
  - { offset: 0x8345, size: 0x8, addend: 0x0, symName: __ZNSt3__119ostreambuf_iteratorIcNS_11char_traitsIcEEEC2B8ne180100ERNS_13basic_ostreamIcS2_EE, symObjAddr: 0x1864, symBinAddr: 0x1000037F0, symSize: 0x54 }
  - { offset: 0x837B, size: 0x8, addend: 0x0, symName: __ZNKSt3__19basic_iosIcNS_11char_traitsIcEEE5rdbufB8ne180100Ev, symObjAddr: 0x18B8, symBinAddr: 0x100003844, symSize: 0x24 }
  - { offset: 0x839F, size: 0x8, addend: 0x0, symName: __ZNKSt3__18ios_base5rdbufB8ne180100Ev, symObjAddr: 0x18DC, symBinAddr: 0x100003868, symSize: 0x18 }
  - { offset: 0x83C4, size: 0x8, addend: 0x0, symName: __ZNSt3__111char_traitsIcE11eq_int_typeB8ne180100Eii, symObjAddr: 0x18F4, symBinAddr: 0x100003880, symSize: 0x24 }
  - { offset: 0x83F6, size: 0x8, addend: 0x0, symName: __ZNSt3__111char_traitsIcE3eofB8ne180100Ev, symObjAddr: 0x1918, symBinAddr: 0x1000038A4, symSize: 0x8 }
  - { offset: 0x8409, size: 0x8, addend: 0x0, symName: __ZNKSt3__19basic_iosIcNS_11char_traitsIcEEE5widenB8ne180100Ec, symObjAddr: 0x1920, symBinAddr: 0x1000038AC, symSize: 0x84 }
  - { offset: 0x847E, size: 0x8, addend: 0x0, symName: __ZNKSt3__15ctypeIcE5widenB8ne180100Ec, symObjAddr: 0x19D0, symBinAddr: 0x10000395C, symSize: 0x38 }
  - { offset: 0x84B2, size: 0x8, addend: 0x0, symName: __ZNSt3__18ios_base8setstateB8ne180100Ej, symObjAddr: 0x1A08, symBinAddr: 0x100003994, symSize: 0x34 }
...
