---
triple:          'arm64-apple-darwin'
binary-path:     '/Users/vivakr/GitWorkspace/Cpp/SandBox/debug/SandBox'
relocations:
  - { offset: 0x3898, size: 0x8, addend: 0x0, symName: __ZNSt3__115regex_constants13__get_grammarB8ne180100ENS0_18syntax_option_typeE, symObjAddr: 0xFF0, symBinAddr: 0x100004A4C, symSize: 0x18 }
  - { offset: 0x38C6, size: 0x8, addend: 0x0, symName: __ZNSt3__115regex_constantsoRB8ne180100ERNS0_18syntax_option_typeES1_, symObjAddr: 0x1008, symBinAddr: 0x100004A64, symSize: 0x3C }
  - { offset: 0x3903, size: 0x8, addend: 0x0, symName: __ZNSt3__115regex_constantsorB8ne180100ENS0_18syntax_option_typeES1_, symObjAddr: 0x12A4, symBinAddr: 0x100004D00, symSize: 0x20 }
  - { offset: 0x3940, size: 0x8, addend: 0x0, symName: __ZNSt3__115regex_constantsanB8ne180100ENS0_18syntax_option_typeES1_, symObjAddr: 0x434C, symBinAddr: 0x100007DA8, symSize: 0x20 }
  - { offset: 0x397D, size: 0x8, addend: 0x0, symName: __ZNSt3__115regex_constantsanB8ne180100ENS0_15match_flag_typeES1_, symObjAddr: 0x4550, symBinAddr: 0x100007FAC, symSize: 0x20 }
  - { offset: 0x39BA, size: 0x8, addend: 0x0, symName: __ZNSt3__115regex_constantsorB8ne180100ENS0_15match_flag_typeES1_, symObjAddr: 0x5A38, symBinAddr: 0x100009494, symSize: 0x20 }
  - { offset: 0x39F7, size: 0x8, addend: 0x0, symName: __ZNSt3__115regex_constantscoB8ne180100ENS0_15match_flag_typeE, symObjAddr: 0x5A58, symBinAddr: 0x1000094B4, symSize: 0x1C }
  - { offset: 0x3A25, size: 0x8, addend: 0x0, symName: __ZNSt3__115regex_constantsaNB8ne180100ERNS0_15match_flag_typeES1_, symObjAddr: 0x20414, symBinAddr: 0x100023E70, symSize: 0x3C }
  - { offset: 0x3A62, size: 0x8, addend: 0x0, symName: __ZNSt3__115regex_constantsoRB8ne180100ERNS0_15match_flag_typeES1_, symObjAddr: 0x205A0, symBinAddr: 0x100023FFC, symSize: 0x3C }
  - { offset: 0x1023A, size: 0x8, addend: 0x0, symName: __ZNSt3__17advanceB8ne180100IPKcllvEEvRT_T0_, symObjAddr: 0x45F0, symBinAddr: 0x10000804C, symSize: 0x38 }
  - { offset: 0x15D3F, size: 0x8, addend: 0x0, symName: __ZNSt3__17advanceB8ne180100IPNS_9sub_matchIPKcEEllvEEvRT_T0_, symObjAddr: 0x256F0, symBinAddr: 0x10002914C, symSize: 0x38 }
  - { offset: 0x15DAA, size: 0x8, addend: 0x0, symName: __ZNSt3__17advanceB8ne180100IPNS_4pairImPKcEEllvEEvRT_T0_, symObjAddr: 0x25C90, symBinAddr: 0x1000296EC, symSize: 0x38 }
  - { offset: 0x1634A, size: 0x8, addend: 0x0, symName: __ZNSt3__17advanceB8ne180100INS_11__wrap_iterIPKcEEllvEEvRT_T0_, symObjAddr: 0x27620, symBinAddr: 0x10002B07C, symSize: 0x38 }
  - { offset: 0x164B2, size: 0x8, addend: 0x0, symName: __ZNSt3__124__put_character_sequenceB8ne180100IcNS_11char_traitsIcEEEERNS_13basic_ostreamIT_T0_EES7_PKS4_m, symObjAddr: 0x28688, symBinAddr: 0x10002C0E4, symSize: 0x1E8 }
  - { offset: 0x17DC8, size: 0x8, addend: 0x0, symName: __ZNSt3__113regex_replaceB8ne180100INS_12regex_traitsIcEEcNS_11char_traitsIcEENS_9allocatorIcEEEENS_12basic_stringIT0_T1_T2_EERKSB_RKNS_11basic_regexIS8_T_EEPKS8_NS_15regex_constants15match_flag_typeE, symObjAddr: 0x378, symBinAddr: 0x100003DD4, symSize: 0xF8 }
  - { offset: 0x17E57, size: 0x8, addend: 0x0, symName: __ZNSt3__1lsB8ne180100IcNS_11char_traitsIcEENS_9allocatorIcEEEERNS_13basic_ostreamIT_T0_EES9_RKNS_12basic_stringIS6_S7_T1_EE, symObjAddr: 0x4D8, symBinAddr: 0x100003F34, symSize: 0x4C }
  - { offset: 0x17EAF, size: 0x8, addend: 0x0, symName: __ZNSt3__14endlB8ne180100IcNS_11char_traitsIcEEEERNS_13basic_ostreamIT_T0_EES7_, symObjAddr: 0x550, symBinAddr: 0x100003FAC, symSize: 0x58 }
  - { offset: 0x17EEF, size: 0x8, addend: 0x0, symName: __ZNSt3__1lsB8ne180100INS_11char_traitsIcEEEERNS_13basic_ostreamIcT_EES6_PKc, symObjAddr: 0x6AC, symBinAddr: 0x100004108, symSize: 0x48 }
  - { offset: 0x17F35, size: 0x8, addend: 0x0, symName: __ZNSt3__134__libcpp_atomic_refcount_decrementB8ne180100IlEET_RS1_, symObjAddr: 0xB10, symBinAddr: 0x10000456C, symSize: 0x30 }
  - { offset: 0x17F6A, size: 0x8, addend: 0x0, symName: __ZNSt3__118__constexpr_strlenB8ne180100EPKc, symObjAddr: 0xCF0, symBinAddr: 0x10000474C, symSize: 0x24 }
  - { offset: 0x17F96, size: 0x8, addend: 0x0, symName: __ZNSt3__19use_facetB8ne180100INS_5ctypeIcEEEERKT_RKNS_6localeE, symObjAddr: 0xF7C, symBinAddr: 0x1000049D8, symSize: 0x2C }
  - { offset: 0x17FCB, size: 0x8, addend: 0x0, symName: __ZNSt3__19use_facetB8ne180100INS_7collateIcEEEERKT_RKNS_6localeE, symObjAddr: 0xFA8, symBinAddr: 0x100004A04, symSize: 0x2C }
  - { offset: 0x18000, size: 0x8, addend: 0x0, symName: __ZNSt3__119__throw_regex_errorB8ne180100ILNS_15regex_constants10error_typeE17EEEvv, symObjAddr: 0x1244, symBinAddr: 0x100004CA0, symSize: 0x60 }
  - { offset: 0x18489, size: 0x8, addend: 0x0, symName: __ZNSt3__119__throw_regex_errorB8ne180100ILNS_15regex_constants10error_typeE14EEEvv, symObjAddr: 0x1A64, symBinAddr: 0x1000054C0, symSize: 0x60 }
  - { offset: 0x1904C, size: 0x8, addend: 0x0, symName: __ZNSt3__119__libcpp_deallocateB8ne180100EPvmm, symObjAddr: 0x2884, symBinAddr: 0x1000062E0, symSize: 0x30 }
  - { offset: 0x19094, size: 0x8, addend: 0x0, symName: __ZNSt3__127__do_deallocate_handle_sizeB8ne180100IJEEEvPvmDpT_, symObjAddr: 0x28B4, symBinAddr: 0x100006310, symSize: 0x28 }
  - { offset: 0x190D2, size: 0x8, addend: 0x0, symName: __ZNSt3__124__libcpp_operator_deleteB8ne180100IJPvEEEvDpT_, symObjAddr: 0x28DC, symBinAddr: 0x100006338, symSize: 0x24 }
  - { offset: 0x19107, size: 0x8, addend: 0x0, symName: __ZNSt3__14swapB8ne180100IPNS_13__empty_stateIcEEEENS_9enable_ifIXaasr21is_move_constructibleIT_EE5valuesr18is_move_assignableIS5_EE5valueEvE4typeERS5_S8_, symObjAddr: 0x29FC, symBinAddr: 0x100006458, symSize: 0x3C }
  - { offset: 0x19158, size: 0x8, addend: 0x0, symName: __ZNSt3__14swapB8ne180100IPNS_19__shared_weak_countEEENS_9enable_ifIXaasr21is_move_constructibleIT_EE5valuesr18is_move_assignableIS4_EE5valueEvE4typeERS4_S7_, symObjAddr: 0x2A38, symBinAddr: 0x100006494, symSize: 0x3C }
  - { offset: 0x191A9, size: 0x8, addend: 0x0, symName: __ZNSt3__14nextB8ne180100IPKcTnNS_9enable_ifIXsr29__has_input_iterator_categoryIT_EE5valueEiE4typeELi0EEES4_S4_NS_15iterator_traitsIS4_E15difference_typeE, symObjAddr: 0x4064, symBinAddr: 0x100007AC0, symSize: 0x34 }
  - { offset: 0x191F2, size: 0x8, addend: 0x0, symName: __ZNSt3__119__throw_regex_errorB8ne180100ILNS_15regex_constants10error_typeE6EEEvv, symObjAddr: 0x4248, symBinAddr: 0x100007CA4, symSize: 0x60 }
  - { offset: 0x1929D, size: 0x8, addend: 0x0, symName: __ZNSt3__18__is_eolB8ne180100IcEEbT_, symObjAddr: 0x4570, symBinAddr: 0x100007FCC, symSize: 0x44 }
  - { offset: 0x192D4, size: 0x8, addend: 0x0, symName: __ZNSt3__14prevB8ne180100IPKcTnNS_9enable_ifIXsr29__has_input_iterator_categoryIT_EE5valueEiE4typeELi0EEES4_S4_NS_15iterator_traitsIS4_E15difference_typeE, symObjAddr: 0x45B4, symBinAddr: 0x100008010, symSize: 0x3C }
  - { offset: 0x1931D, size: 0x8, addend: 0x0, symName: __ZNSt3__121__convert_to_integralB8ne180100El, symObjAddr: 0x4628, symBinAddr: 0x100008084, symSize: 0x14 }
  - { offset: 0x19349, size: 0x8, addend: 0x0, symName: __ZNSt3__19__advanceB8ne180100IPKcEEvRT_NS_15iterator_traitsIS3_E15difference_typeENS_26random_access_iterator_tagE, symObjAddr: 0x463C, symBinAddr: 0x100008098, symSize: 0x28 }
  - { offset: 0x1959A, size: 0x8, addend: 0x0, symName: __ZNSt3__134__libcpp_atomic_refcount_incrementB8ne180100IlEET_RS1_, symObjAddr: 0x534C, symBinAddr: 0x100008DA8, symSize: 0x30 }
  - { offset: 0x198B6, size: 0x8, addend: 0x0, symName: __ZNSt3__112__to_addressB8ne180100INS_9sub_matchIPKcEEEEPT_S6_, symObjAddr: 0x60E8, symBinAddr: 0x100009B44, symSize: 0x14 }
  - { offset: 0x198EB, size: 0x8, addend: 0x0, symName: __ZNSt3__16fill_nB8ne180100IPNS_9sub_matchIPKcEEmS4_EET_S6_T0_RKT1_, symObjAddr: 0x631C, symBinAddr: 0x100009D78, symSize: 0x44 }
  - { offset: 0x1994E, size: 0x8, addend: 0x0, symName: __ZNSt3__13minB8ne180100ImEERKT_S3_S3_, symObjAddr: 0x6360, symBinAddr: 0x100009DBC, symSize: 0x2C }
  - { offset: 0x19991, size: 0x8, addend: 0x0, symName: __ZNSt3__18__fill_nB8ne180100IPNS_9sub_matchIPKcEEmS4_EET_S6_T0_RKT1_, symObjAddr: 0x668C, symBinAddr: 0x10000A0E8, symSize: 0x68 }
  - { offset: 0x199F4, size: 0x8, addend: 0x0, symName: __ZNSt3__121__convert_to_integralB8ne180100Em, symObjAddr: 0x66F4, symBinAddr: 0x10000A150, symSize: 0x14 }
  - { offset: 0x19A20, size: 0x8, addend: 0x0, symName: __ZNSt3__13minB8ne180100ImNS_6__lessIvvEEEERKT_S5_S5_T0_, symObjAddr: 0x6708, symBinAddr: 0x10000A164, symSize: 0x54 }
  - { offset: 0x19ABF, size: 0x8, addend: 0x0, symName: __ZNSt3__119__allocate_at_leastB8ne180100INS_9allocatorINS_9sub_matchIPKcEEEEEENS_19__allocation_resultINS_16allocator_traitsIT_E7pointerEEERS9_m, symObjAddr: 0x69F8, symBinAddr: 0x10000A454, symSize: 0x40 }
  - { offset: 0x19D03, size: 0x8, addend: 0x0, symName: __ZNSt3__120__throw_length_errorB8ne180100EPKc, symObjAddr: 0x6B04, symBinAddr: 0x10000A560, symSize: 0x64 }
  - { offset: 0x19D2B, size: 0x8, addend: 0x0, symName: __ZNSt3__117__libcpp_allocateB8ne180100Emm, symObjAddr: 0x6C6C, symBinAddr: 0x10000A6C8, symSize: 0x28 }
  - { offset: 0x19D68, size: 0x8, addend: 0x0, symName: __ZNSt3__121__libcpp_operator_newB8ne180100IJmEEEPvDpT_, symObjAddr: 0x6C94, symBinAddr: 0x10000A6F0, symSize: 0x24 }
  - { offset: 0x19DA1, size: 0x8, addend: 0x0, symName: __ZNSt3__13maxB8ne180100ImEERKT_S3_S3_, symObjAddr: 0x6CB8, symBinAddr: 0x10000A714, symSize: 0x2C }
  - { offset: 0x19DE4, size: 0x8, addend: 0x0, symName: __ZNSt3__13maxB8ne180100ImNS_6__lessIvvEEEERKT_S5_S5_T0_, symObjAddr: 0x6CE4, symBinAddr: 0x10000A740, symSize: 0x54 }
  - { offset: 0x19E3E, size: 0x8, addend: 0x0, symName: __ZNSt3__119__throw_regex_errorB8ne180100ILNS_15regex_constants10error_typeE12EEEvv, symObjAddr: 0x6FA4, symBinAddr: 0x10000AA00, symSize: 0x60 }
  - { offset: 0x19E63, size: 0x8, addend: 0x0, symName: __ZNSt3__119__throw_regex_errorB8ne180100ILNS_15regex_constants10error_typeE16EEEvv, symObjAddr: 0x7064, symBinAddr: 0x10000AAC0, symSize: 0x60 }
  - { offset: 0x19E88, size: 0x8, addend: 0x0, symName: __ZNSt3__112__to_addressB8ne180100INS_7__stateIcEEEEPT_S4_, symObjAddr: 0x74D4, symBinAddr: 0x10000AF30, symSize: 0x14 }
  - { offset: 0x19EBD, size: 0x8, addend: 0x0, symName: __ZNSt3__119__allocate_at_leastB8ne180100INS_9allocatorINS_7__stateIcEEEEEENS_19__allocation_resultINS_16allocator_traitsIT_E7pointerEEERS7_m, symObjAddr: 0x7FB0, symBinAddr: 0x10000BA0C, symSize: 0x40 }
  - { offset: 0x19F00, size: 0x8, addend: 0x0, symName: __ZNSt3__142__uninitialized_allocator_move_if_noexceptB8ne180100INS_9allocatorINS_7__stateIcEEEENS_16reverse_iteratorIPS3_EES7_S7_EET2_RT_T0_T1_S8_, symObjAddr: 0x8174, symBinAddr: 0x10000BBD0, symSize: 0x12C }
  - { offset: 0x19FA0, size: 0x8, addend: 0x0, symName: __ZNSt3__14swapB8ne180100IPNS_7__stateIcEEEENS_9enable_ifIXaasr21is_move_constructibleIT_EE5valuesr18is_move_assignableIS5_EE5valueEvE4typeERS5_S8_, symObjAddr: 0x82EC, symBinAddr: 0x10000BD48, symSize: 0x3C }
  - { offset: 0x19FF1, size: 0x8, addend: 0x0, symName: __ZNSt3__122__make_exception_guardB8ne180100INS_29_AllocatorDestroyRangeReverseINS_9allocatorINS_7__stateIcEEEENS_16reverse_iteratorIPS4_EEEEEENS_28__exception_guard_exceptionsIT_EESB_, symObjAddr: 0x833C, symBinAddr: 0x10000BD98, symSize: 0x4C }
  - { offset: 0x1A027, size: 0x8, addend: 0x0, symName: __ZNSt3__1neB8ne180100IPNS_7__stateIcEES3_EEbRKNS_16reverse_iteratorIT_EERKNS4_IT0_EE, symObjAddr: 0x83CC, symBinAddr: 0x10000BE28, symSize: 0x44 }
  - { offset: 0x1A073, size: 0x8, addend: 0x0, symName: __ZNSt3__112__to_addressB8ne180100INS_16reverse_iteratorIPNS_7__stateIcEEEEvEEu7__decayIDTclsr19__to_address_helperIT_EE6__callclsr3stdE7declvalIRKS6_EEEEES8_, symObjAddr: 0x8410, symBinAddr: 0x10000BE6C, symSize: 0x24 }
  - { offset: 0x1A0D2, size: 0x8, addend: 0x0, symName: __ZNSt3__119__allocator_destroyB8ne180100INS_9allocatorINS_7__stateIcEEEENS_16reverse_iteratorINS5_IPS3_EEEES8_EEvRT_T0_T1_, symObjAddr: 0x86BC, symBinAddr: 0x10000C118, symSize: 0x70 }
  - { offset: 0x1A137, size: 0x8, addend: 0x0, symName: __ZNSt3__1neB8ne180100INS_16reverse_iteratorIPNS_7__stateIcEEEES5_EEbRKNS1_IT_EERKNS1_IT0_EE, symObjAddr: 0x8768, symBinAddr: 0x10000C1C4, symSize: 0x5C }
  - { offset: 0x1A183, size: 0x8, addend: 0x0, symName: __ZNSt3__112__to_addressB8ne180100INS_16reverse_iteratorINS1_IPNS_7__stateIcEEEEEEvEEu7__decayIDTclsr19__to_address_helperIT_EE6__callclsr3stdE7declvalIRKS7_EEEEES9_, symObjAddr: 0x87F0, symBinAddr: 0x10000C24C, symSize: 0x24 }
  - { offset: 0x1A1E2, size: 0x8, addend: 0x0, symName: __ZNSt3__112__to_addressB8ne180100INS_4pairImPKcEEEEPT_S6_, symObjAddr: 0x91AC, symBinAddr: 0x10000CC08, symSize: 0x14 }
  - { offset: 0x1A217, size: 0x8, addend: 0x0, symName: __ZNSt3__142__uninitialized_allocator_move_if_noexceptB8ne180100INS_9allocatorINS_9sub_matchIPKcEEEENS_16reverse_iteratorIPS5_EES9_S9_EET2_RT_T0_T1_SA_, symObjAddr: 0x98C0, symBinAddr: 0x10000D31C, symSize: 0x12C }
  - { offset: 0x1A2B7, size: 0x8, addend: 0x0, symName: __ZNSt3__14swapB8ne180100IPNS_9sub_matchIPKcEEEENS_9enable_ifIXaasr21is_move_constructibleIT_EE5valuesr18is_move_assignableIS7_EE5valueEvE4typeERS7_SA_, symObjAddr: 0x9A38, symBinAddr: 0x10000D494, symSize: 0x3C }
  - { offset: 0x1A308, size: 0x8, addend: 0x0, symName: __ZNSt3__122__make_exception_guardB8ne180100INS_29_AllocatorDestroyRangeReverseINS_9allocatorINS_9sub_matchIPKcEEEENS_16reverse_iteratorIPS6_EEEEEENS_28__exception_guard_exceptionsIT_EESD_, symObjAddr: 0x9A74, symBinAddr: 0x10000D4D0, symSize: 0x4C }
  - { offset: 0x1A33E, size: 0x8, addend: 0x0, symName: __ZNSt3__1neB8ne180100IPNS_9sub_matchIPKcEES5_EEbRKNS_16reverse_iteratorIT_EERKNS6_IT0_EE, symObjAddr: 0x9B04, symBinAddr: 0x10000D560, symSize: 0x44 }
  - { offset: 0x1A38A, size: 0x8, addend: 0x0, symName: __ZNSt3__112__to_addressB8ne180100INS_16reverse_iteratorIPNS_9sub_matchIPKcEEEEvEEu7__decayIDTclsr19__to_address_helperIT_EE6__callclsr3stdE7declvalIRKS8_EEEEESA_, symObjAddr: 0x9B7C, symBinAddr: 0x10000D5D8, symSize: 0x24 }
  - { offset: 0x1A3E9, size: 0x8, addend: 0x0, symName: __ZNSt3__119__allocator_destroyB8ne180100INS_9allocatorINS_9sub_matchIPKcEEEENS_16reverse_iteratorINS7_IPS5_EEEESA_EEvRT_T0_T1_, symObjAddr: 0x9E58, symBinAddr: 0x10000D8B4, symSize: 0x70 }
  - { offset: 0x1A44E, size: 0x8, addend: 0x0, symName: __ZNSt3__1neB8ne180100INS_16reverse_iteratorIPNS_9sub_matchIPKcEEEES7_EEbRKNS1_IT_EERKNS1_IT0_EE, symObjAddr: 0x9F04, symBinAddr: 0x10000D960, symSize: 0x5C }
  - { offset: 0x1A49A, size: 0x8, addend: 0x0, symName: __ZNSt3__112__to_addressB8ne180100INS_16reverse_iteratorINS1_IPNS_9sub_matchIPKcEEEEEEvEEu7__decayIDTclsr19__to_address_helperIT_EE6__callclsr3stdE7declvalIRKS9_EEEEESB_, symObjAddr: 0x9F60, symBinAddr: 0x10000D9BC, symSize: 0x24 }
  - { offset: 0x1A4F9, size: 0x8, addend: 0x0, symName: __ZNSt3__119__allocate_at_leastB8ne180100INS_9allocatorINS_4pairImPKcEEEEEENS_19__allocation_resultINS_16allocator_traitsIT_E7pointerEEERS9_m, symObjAddr: 0xAB58, symBinAddr: 0x10000E5B4, symSize: 0x40 }
  - { offset: 0x1A53C, size: 0x8, addend: 0x0, symName: __ZNSt3__142__uninitialized_allocator_move_if_noexceptB8ne180100INS_9allocatorINS_4pairImPKcEEEENS_16reverse_iteratorIPS5_EES9_S9_EET2_RT_T0_T1_SA_, symObjAddr: 0xADD4, symBinAddr: 0x10000E830, symSize: 0x12C }
  - { offset: 0x1A5DC, size: 0x8, addend: 0x0, symName: __ZNSt3__14swapB8ne180100IPNS_4pairImPKcEEEENS_9enable_ifIXaasr21is_move_constructibleIT_EE5valuesr18is_move_assignableIS7_EE5valueEvE4typeERS7_SA_, symObjAddr: 0xAF4C, symBinAddr: 0x10000E9A8, symSize: 0x3C }
  - { offset: 0x1A62D, size: 0x8, addend: 0x0, symName: __ZNSt3__122__make_exception_guardB8ne180100INS_29_AllocatorDestroyRangeReverseINS_9allocatorINS_4pairImPKcEEEENS_16reverse_iteratorIPS6_EEEEEENS_28__exception_guard_exceptionsIT_EESD_, symObjAddr: 0xAF9C, symBinAddr: 0x10000E9F8, symSize: 0x4C }
  - { offset: 0x1A663, size: 0x8, addend: 0x0, symName: __ZNSt3__1neB8ne180100IPNS_4pairImPKcEES5_EEbRKNS_16reverse_iteratorIT_EERKNS6_IT0_EE, symObjAddr: 0xB02C, symBinAddr: 0x10000EA88, symSize: 0x44 }
  - { offset: 0x1A6AF, size: 0x8, addend: 0x0, symName: __ZNSt3__112__to_addressB8ne180100INS_16reverse_iteratorIPNS_4pairImPKcEEEEvEEu7__decayIDTclsr19__to_address_helperIT_EE6__callclsr3stdE7declvalIRKS8_EEEEESA_, symObjAddr: 0xB0A4, symBinAddr: 0x10000EB00, symSize: 0x24 }
  - { offset: 0x1A70E, size: 0x8, addend: 0x0, symName: __ZNSt3__119__allocator_destroyB8ne180100INS_9allocatorINS_4pairImPKcEEEENS_16reverse_iteratorINS7_IPS5_EEEESA_EEvRT_T0_T1_, symObjAddr: 0xB378, symBinAddr: 0x10000EDD4, symSize: 0x70 }
  - { offset: 0x1A773, size: 0x8, addend: 0x0, symName: __ZNSt3__1neB8ne180100INS_16reverse_iteratorIPNS_4pairImPKcEEEES7_EEbRKNS1_IT_EERKNS1_IT0_EE, symObjAddr: 0xB424, symBinAddr: 0x10000EE80, symSize: 0x5C }
  - { offset: 0x1A7BF, size: 0x8, addend: 0x0, symName: __ZNSt3__112__to_addressB8ne180100INS_16reverse_iteratorINS1_IPNS_4pairImPKcEEEEEEvEEu7__decayIDTclsr19__to_address_helperIT_EE6__callclsr3stdE7declvalIRKS9_EEEEESB_, symObjAddr: 0xB480, symBinAddr: 0x10000EEDC, symSize: 0x24 }
  - { offset: 0x1A81E, size: 0x8, addend: 0x0, symName: __ZNSt3__122__make_exception_guardB8ne180100INS_6vectorINS_9sub_matchIPKcEENS_9allocatorIS5_EEE16__destroy_vectorEEENS_28__exception_guard_exceptionsIT_EESB_, symObjAddr: 0xBB38, symBinAddr: 0x10000F594, symSize: 0x40 }
  - { offset: 0x1A853, size: 0x8, addend: 0x0, symName: __ZNSt3__130__uninitialized_allocator_copyB8ne180100INS_9allocatorINS_9sub_matchIPKcEEEEPS5_S7_S7_EET2_RT_T0_T1_S8_, symObjAddr: 0xBCA4, symBinAddr: 0x10000F700, symSize: 0x80 }
  - { offset: 0x1A8F0, size: 0x8, addend: 0x0, symName: __ZNSt3__114__unwrap_rangeB8ne180100IPNS_9sub_matchIPKcEES5_EENS_4pairIT0_S7_EET_S9_, symObjAddr: 0xBD24, symBinAddr: 0x10000F780, symSize: 0x60 }
  - { offset: 0x1A93C, size: 0x8, addend: 0x0, symName: __ZNSt3__135__uninitialized_allocator_copy_implB8ne180100INS_9allocatorINS_9sub_matchIPKcEEEEPS5_S7_S7_EET2_RT_T0_T1_S8_, symObjAddr: 0xBD84, symBinAddr: 0x10000F7E0, symSize: 0xF0 }
  - { offset: 0x1A9DA, size: 0x8, addend: 0x0, symName: __ZNSt3__113__unwrap_iterB8ne180100IPNS_9sub_matchIPKcEENS_18__unwrap_iter_implIS5_Lb1EEETnNS_9enable_ifIXsr21is_copy_constructibleIT_EE5valueEiE4typeELi0EEEDTclsrT0_8__unwrapclsr3stdE7declvalIS9_EEEES9_, symObjAddr: 0xBE74, symBinAddr: 0x10000F8D0, symSize: 0x24 }
  - { offset: 0x1AA1E, size: 0x8, addend: 0x0, symName: __ZNSt3__113__rewrap_iterB8ne180100IPNS_9sub_matchIPKcEES5_NS_18__unwrap_iter_implIS5_Lb1EEEEET_S8_T0_, symObjAddr: 0xBE98, symBinAddr: 0x10000F8F4, symSize: 0x3C }
  - { offset: 0x1AA73, size: 0x8, addend: 0x0, symName: __ZNSt3__19make_pairB8ne180100IPNS_9sub_matchIPKcEES5_EENS_4pairINS_18__unwrap_ref_decayIT_E4typeENS7_IT0_E4typeEEEOS8_OSB_, symObjAddr: 0xBED4, symBinAddr: 0x10000F930, symSize: 0x38 }
  - { offset: 0x1AB96, size: 0x8, addend: 0x0, symName: __ZNSt3__122__make_exception_guardB8ne180100INS_29_AllocatorDestroyRangeReverseINS_9allocatorINS_9sub_matchIPKcEEEEPS6_EEEENS_28__exception_guard_exceptionsIT_EESB_, symObjAddr: 0xBF7C, symBinAddr: 0x10000F9D8, symSize: 0x4C }
  - { offset: 0x1ABCC, size: 0x8, addend: 0x0, symName: __ZNSt3__119__allocator_destroyB8ne180100INS_9allocatorINS_9sub_matchIPKcEEEENS_16reverse_iteratorIPS5_EES9_EEvRT_T0_T1_, symObjAddr: 0xC20C, symBinAddr: 0x10000FC68, symSize: 0x70 }
  - { offset: 0x1AC82, size: 0x8, addend: 0x0, symName: __ZNSt3__122__make_exception_guardB8ne180100INS_6vectorINS_4pairImPKcEENS_9allocatorIS5_EEE16__destroy_vectorEEENS_28__exception_guard_exceptionsIT_EESB_, symObjAddr: 0xC498, symBinAddr: 0x10000FEF4, symSize: 0x40 }
  - { offset: 0x1ACB7, size: 0x8, addend: 0x0, symName: __ZNSt3__130__uninitialized_allocator_copyB8ne180100INS_9allocatorINS_4pairImPKcEEEEPS5_S7_S7_EET2_RT_T0_T1_S8_, symObjAddr: 0xC6AC, symBinAddr: 0x100010108, symSize: 0x80 }
  - { offset: 0x1AD54, size: 0x8, addend: 0x0, symName: __ZNSt3__114__unwrap_rangeB8ne180100IPNS_4pairImPKcEES5_EENS1_IT0_S6_EET_S8_, symObjAddr: 0xC72C, symBinAddr: 0x100010188, symSize: 0x60 }
  - { offset: 0x1ADA0, size: 0x8, addend: 0x0, symName: __ZNSt3__135__uninitialized_allocator_copy_implB8ne180100INS_9allocatorINS_4pairImPKcEEEEPS5_S7_S7_EET2_RT_T0_T1_S8_, symObjAddr: 0xC78C, symBinAddr: 0x1000101E8, symSize: 0xF0 }
  - { offset: 0x1AE3E, size: 0x8, addend: 0x0, symName: __ZNSt3__113__unwrap_iterB8ne180100IPNS_4pairImPKcEENS_18__unwrap_iter_implIS5_Lb1EEETnNS_9enable_ifIXsr21is_copy_constructibleIT_EE5valueEiE4typeELi0EEEDTclsrT0_8__unwrapclsr3stdE7declvalIS9_EEEES9_, symObjAddr: 0xC87C, symBinAddr: 0x1000102D8, symSize: 0x24 }
  - { offset: 0x1AE82, size: 0x8, addend: 0x0, symName: __ZNSt3__113__rewrap_iterB8ne180100IPNS_4pairImPKcEES5_NS_18__unwrap_iter_implIS5_Lb1EEEEET_S8_T0_, symObjAddr: 0xC8A0, symBinAddr: 0x1000102FC, symSize: 0x3C }
  - { offset: 0x1AED7, size: 0x8, addend: 0x0, symName: __ZNSt3__19make_pairB8ne180100IPNS_4pairImPKcEES5_EENS1_INS_18__unwrap_ref_decayIT_E4typeENS6_IT0_E4typeEEEOS7_OSA_, symObjAddr: 0xC8DC, symBinAddr: 0x100010338, symSize: 0x38 }
  - { offset: 0x1AFFA, size: 0x8, addend: 0x0, symName: __ZNSt3__122__make_exception_guardB8ne180100INS_29_AllocatorDestroyRangeReverseINS_9allocatorINS_4pairImPKcEEEEPS6_EEEENS_28__exception_guard_exceptionsIT_EESB_, symObjAddr: 0xC984, symBinAddr: 0x1000103E0, symSize: 0x4C }
  - { offset: 0x1B030, size: 0x8, addend: 0x0, symName: __ZNSt3__119__allocator_destroyB8ne180100INS_9allocatorINS_4pairImPKcEEEENS_16reverse_iteratorIPS5_EES9_EEvRT_T0_T1_, symObjAddr: 0xCC0C, symBinAddr: 0x100010668, symSize: 0x70 }
  - { offset: 0x1B0E6, size: 0x8, addend: 0x0, symName: __ZNSt3__119__throw_regex_errorB8ne180100ILNS_15regex_constants10error_typeE11EEEvv, symObjAddr: 0xD3F4, symBinAddr: 0x100010E50, symSize: 0x60 }
  - { offset: 0x1B17F, size: 0x8, addend: 0x0, symName: __ZNSt3__119__throw_regex_errorB8ne180100ILNS_15regex_constants10error_typeE3EEEvv, symObjAddr: 0xD634, symBinAddr: 0x100011090, symSize: 0x60 }
  - { offset: 0x1B3A5, size: 0x8, addend: 0x0, symName: __ZNSt3__119__throw_regex_errorB8ne180100ILNS_15regex_constants10error_typeE4EEEvv, symObjAddr: 0xE1C8, symBinAddr: 0x100011C24, symSize: 0x60 }
  - { offset: 0x1B7E4, size: 0x8, addend: 0x0, symName: __ZNSt3__15equalB8ne180100IPKcS2_EEbT_S3_T0_, symObjAddr: 0xF2D8, symBinAddr: 0x100012D34, symSize: 0x34 }
  - { offset: 0x1B83E, size: 0x8, addend: 0x0, symName: __ZNSt3__15equalB8ne180100IPKcS2_NS_10__equal_toEEEbT_S4_T0_T1_, symObjAddr: 0xF30C, symBinAddr: 0x100012D68, symSize: 0x58 }
  - { offset: 0x1B8AF, size: 0x8, addend: 0x0, symName: __ZNSt3__117__equal_iter_implB8ne180100IKcS1_NS_10__equal_toETnNS_9enable_ifIXaaaaaasr13__desugars_toINS_11__equal_tagET1_T_T0_EE5valuentsr11is_volatileIS6_EE5valuentsr11is_volatileIS7_EE5valuesr41__libcpp_is_trivially_equality_comparableIS6_S7_EE5valueEiE4typeELi0EEEbPS6_SA_PS7_RS5_, symObjAddr: 0xF364, symBinAddr: 0x100012DC0, symSize: 0x40 }
  - { offset: 0x1B922, size: 0x8, addend: 0x0, symName: __ZNSt3__113__unwrap_iterB8ne180100IPKcNS_18__unwrap_iter_implIS2_Lb1EEETnNS_9enable_ifIXsr21is_copy_constructibleIT_EE5valueEiE4typeELi0EEEDTclsrT0_8__unwrapclsr3stdE7declvalIS6_EEEES6_, symObjAddr: 0xF3A4, symBinAddr: 0x100012E00, symSize: 0x24 }
  - { offset: 0x1B966, size: 0x8, addend: 0x0, symName: __ZNSt3__124__constexpr_memcmp_equalB8ne180100IccEEbPKT_PKT0_NS_15__element_countE, symObjAddr: 0xF3C8, symBinAddr: 0x100012E24, symSize: 0x48 }
  - { offset: 0x1BA21, size: 0x8, addend: 0x0, symName: __ZNSt3__112__to_addressB8ne180100IKcEEPT_S3_, symObjAddr: 0xF434, symBinAddr: 0x100012E90, symSize: 0x14 }
  - { offset: 0x1BA56, size: 0x8, addend: 0x0, symName: __ZNSt3__1neB8ne180100IcNS_11char_traitsIcEENS_9allocatorIcEEEEbRKNS_12basic_stringIT_T0_T1_EEPKS6_, symObjAddr: 0xF8E8, symBinAddr: 0x100013344, symSize: 0x30 }
  - { offset: 0x1BAAE, size: 0x8, addend: 0x0, symName: __ZNSt3__1eqB8ne180100IcNS_11char_traitsIcEENS_9allocatorIcEEEEbRKNS_12basic_stringIT_T0_T1_EEPKS6_, symObjAddr: 0x107A0, symBinAddr: 0x1000141FC, symSize: 0xA4 }
  - { offset: 0x1BB15, size: 0x8, addend: 0x0, symName: __ZNSt3__112__to_addressB8ne180100INS_12basic_stringIcNS_11char_traitsIcEENS_9allocatorIcEEEEEEPT_S8_, symObjAddr: 0x10C08, symBinAddr: 0x100014664, symSize: 0x14 }
  - { offset: 0x1BB4A, size: 0x8, addend: 0x0, symName: __ZNSt3__112__to_addressB8ne180100INS_4pairIccEEEEPT_S4_, symObjAddr: 0x10FC8, symBinAddr: 0x100014A24, symSize: 0x14 }
  - { offset: 0x1BB7F, size: 0x8, addend: 0x0, symName: __ZNSt3__112__to_addressB8ne180100INS_4pairINS_12basic_stringIcNS_11char_traitsIcEENS_9allocatorIcEEEES7_EEEEPT_SA_, symObjAddr: 0x11370, symBinAddr: 0x100014DCC, symSize: 0x14 }
  - { offset: 0x1BBB4, size: 0x8, addend: 0x0, symName: __ZNSt3__112__to_addressB8ne180100IcEEPT_S2_, symObjAddr: 0x1178C, symBinAddr: 0x1000151E8, symSize: 0x14 }
  - { offset: 0x1BBE9, size: 0x8, addend: 0x0, symName: __ZNSt3__1eqB8ne180100IccccEEbRKNS_4pairIT_T0_EERKNS1_IT1_T2_EE, symObjAddr: 0x119E0, symBinAddr: 0x10001543C, symSize: 0x60 }
  - { offset: 0x1BC4A, size: 0x8, addend: 0x0, symName: __ZNSt3__1leB8ne180100IcNS_11char_traitsIcEENS_9allocatorIcEEEEbRKNS_12basic_stringIT_T0_T1_EESB_, symObjAddr: 0x11BA0, symBinAddr: 0x1000155FC, symSize: 0x30 }
  - { offset: 0x1BCA2, size: 0x8, addend: 0x0, symName: __ZNSt3__1eqB8ne180100INS_9allocatorIcEEEEbRKNS_12basic_stringIcNS_11char_traitsIcEET_EES9_, symObjAddr: 0x11C88, symBinAddr: 0x1000156E4, symSize: 0x134 }
  - { offset: 0x1BD15, size: 0x8, addend: 0x0, symName: __ZNSt3__1neB8ne180100IPKcEEbRKNS_11__wrap_iterIT_EES7_, symObjAddr: 0x11E50, symBinAddr: 0x1000158AC, symSize: 0x30 }
  - { offset: 0x1BD58, size: 0x8, addend: 0x0, symName: __ZNSt3__14findB8ne180100INS_11__wrap_iterIPKcEEcEET_S5_S5_RKT0_, symObjAddr: 0x11E80, symBinAddr: 0x1000158DC, symSize: 0x78 }
  - { offset: 0x1BDC0, size: 0x8, addend: 0x0, symName: __ZNSt3__18distanceB8ne180100IPcEENS_15iterator_traitsIT_E15difference_typeES3_S3_, symObjAddr: 0x123F8, symBinAddr: 0x100015E54, symSize: 0x2C }
  - { offset: 0x1BE03, size: 0x8, addend: 0x0, symName: __ZNSt3__110__distanceB8ne180100IPcEENS_15iterator_traitsIT_E15difference_typeES3_S3_NS_26random_access_iterator_tagE, symObjAddr: 0x1256C, symBinAddr: 0x100015FC8, symSize: 0x20 }
  - { offset: 0x1BE50, size: 0x8, addend: 0x0, symName: __ZNSt3__119__allocate_at_leastB8ne180100INS_9allocatorIcEEEENS_19__allocation_resultINS_16allocator_traitsIT_E7pointerEEERS5_m, symObjAddr: 0x1270C, symBinAddr: 0x100016168, symSize: 0x40 }
  - { offset: 0x1C106, size: 0x8, addend: 0x0, symName: __ZNSt3__1ltB8ne180100IcNS_11char_traitsIcEENS_9allocatorIcEEEEbRKNS_12basic_stringIT_T0_T1_EESB_, symObjAddr: 0x12E94, symBinAddr: 0x1000168F0, symSize: 0x34 }
  - { offset: 0x1C15E, size: 0x8, addend: 0x0, symName: __ZNSt3__1eqB8ne180100IPKcEEbRKNS_11__wrap_iterIT_EES7_, symObjAddr: 0x1337C, symBinAddr: 0x100016DD8, symSize: 0x44 }
  - { offset: 0x1C1A1, size: 0x8, addend: 0x0, symName: __ZNSt3__113__rewrap_iterB8ne180100INS_11__wrap_iterIPKcEES3_NS_18__unwrap_iter_implIS4_Lb1EEEEET_S7_T0_, symObjAddr: 0x133D8, symBinAddr: 0x100016E34, symSize: 0x4C }
  - { offset: 0x1C1F6, size: 0x8, addend: 0x0, symName: __ZNSt3__111__find_implB8ne180100IKccNS_10__identityETnNS_9enable_ifIXaaaasr13__is_identityIT1_EE5valuesr41__libcpp_is_trivially_equality_comparableIT_T0_EE5valueeqstS5_Li1EEiE4typeELi0EEEPS5_S9_S9_RKS6_RS4_, symObjAddr: 0x13424, symBinAddr: 0x100016E80, symSize: 0x70 }
  - { offset: 0x1C27D, size: 0x8, addend: 0x0, symName: __ZNSt3__113__unwrap_iterB8ne180100INS_11__wrap_iterIPKcEENS_18__unwrap_iter_implIS4_Lb1EEETnNS_9enable_ifIXsr21is_copy_constructibleIT_EE5valueEiE4typeELi0EEEDTclsrT0_8__unwrapclsr3stdE7declvalIS8_EEEES8_, symObjAddr: 0x13494, symBinAddr: 0x100016EF0, symSize: 0x2C }
  - { offset: 0x1C314, size: 0x8, addend: 0x0, symName: __ZNSt3__112__to_addressB8ne180100INS_11__wrap_iterIPKcEEvEEu7__decayIDTclsr19__to_address_helperIT_EE6__callclsr3stdE7declvalIRKS5_EEEEES7_, symObjAddr: 0x13550, symBinAddr: 0x100016FAC, symSize: 0x24 }
  - { offset: 0x1C3B1, size: 0x8, addend: 0x0, symName: __ZNSt3__118__constexpr_memchrB8ne180100IKccEEPT_S3_T0_m, symObjAddr: 0x135F8, symBinAddr: 0x100017054, symSize: 0x40 }
  - { offset: 0x1C427, size: 0x8, addend: 0x0, symName: __ZNSt3__142__uninitialized_allocator_move_if_noexceptB8ne180100INS_9allocatorIcEENS_16reverse_iteratorIPcEES5_cvEET1_RT_T0_S9_S6_, symObjAddr: 0x14060, symBinAddr: 0x100017ABC, symSize: 0x78 }
  - { offset: 0x1C4A4, size: 0x8, addend: 0x0, symName: __ZNSt3__14swapB8ne180100IPcEENS_9enable_ifIXaasr21is_move_constructibleIT_EE5valuesr18is_move_assignableIS3_EE5valueEvE4typeERS3_S6_, symObjAddr: 0x14124, symBinAddr: 0x100017B80, symSize: 0x3C }
  - { offset: 0x1C4F5, size: 0x8, addend: 0x0, symName: __ZNSt3__14moveB8ne180100INS_16reverse_iteratorIPcEES3_EET0_T_S5_S4_, symObjAddr: 0x14174, symBinAddr: 0x100017BD0, symSize: 0x78 }
  - { offset: 0x1C54F, size: 0x8, addend: 0x0, symName: __ZNSt3__16__moveB8ne180100INS_17_ClassicAlgPolicyENS_16reverse_iteratorIPcEES4_S4_EENS_4pairIT0_T2_EES6_T1_S7_, symObjAddr: 0x141EC, symBinAddr: 0x100017C48, symSize: 0x64 }
  - { offset: 0x1C5BB, size: 0x8, addend: 0x0, symName: __ZNSt3__123__dispatch_copy_or_moveB8ne180100INS_17_ClassicAlgPolicyENS_11__move_loopIS1_EENS_14__move_trivialENS_16reverse_iteratorIPcEES7_S7_EENS_4pairIT2_T4_EES9_T3_SA_, symObjAddr: 0x14250, symBinAddr: 0x100017CAC, symSize: 0x64 }
  - { offset: 0x1C639, size: 0x8, addend: 0x0, symName: __ZNSt3__121__unwrap_and_dispatchB8ne180100INS_10__overloadINS_11__move_loopINS_17_ClassicAlgPolicyEEENS_14__move_trivialEEENS_16reverse_iteratorIPcEES9_S9_TnNS_9enable_ifIXsr12__can_rewrapIT0_T1_T2_EE5valueEiE4typeELi0EEENS_4pairISB_SD_EESB_SC_SD_, symObjAddr: 0x142B4, symBinAddr: 0x100017D10, symSize: 0x12C }
  - { offset: 0x1C6C9, size: 0x8, addend: 0x0, symName: __ZNSt3__114__unwrap_rangeB8ne180100INS_16reverse_iteratorIPcEES3_EENS_4pairIT0_S5_EET_S7_, symObjAddr: 0x143E0, symBinAddr: 0x100017E3C, symSize: 0x84 }
  - { offset: 0x1C844, size: 0x8, addend: 0x0, symName: __ZNSt3__113__unwrap_iterB8ne180100INS_16reverse_iteratorIPcEENS_18__unwrap_iter_implIS3_Lb0EEETnNS_9enable_ifIXsr21is_copy_constructibleIT_EE5valueEiE4typeELi0EEEDTclsrT0_8__unwrapclsr3stdE7declvalIS7_EEEES7_, symObjAddr: 0x14504, symBinAddr: 0x100017F60, symSize: 0x44 }
  - { offset: 0x1C888, size: 0x8, addend: 0x0, symName: __ZNSt3__19make_pairB8ne180100INS_16reverse_iteratorIPcEES3_EENS_4pairINS_18__unwrap_ref_decayIT_E4typeENS5_IT0_E4typeEEEOS6_OS9_, symObjAddr: 0x14548, symBinAddr: 0x100017FA4, symSize: 0x38 }
  - { offset: 0x1C8D7, size: 0x8, addend: 0x0, symName: __ZNSt3__114__rewrap_rangeB8ne180100INS_16reverse_iteratorIPcEES3_EET_S4_T0_, symObjAddr: 0x14580, symBinAddr: 0x100017FDC, symSize: 0x5C }
  - { offset: 0x1C923, size: 0x8, addend: 0x0, symName: __ZNSt3__113__rewrap_iterB8ne180100INS_16reverse_iteratorIPcEES3_NS_18__unwrap_iter_implIS3_Lb0EEEEET_S6_T0_, symObjAddr: 0x145DC, symBinAddr: 0x100018038, symSize: 0x74 }
  - { offset: 0x1C978, size: 0x8, addend: 0x0, symName: __ZNSt3__1neB8ne180100IPcS1_EEbRKNS_16reverse_iteratorIT_EERKNS2_IT0_EE, symObjAddr: 0x14650, symBinAddr: 0x1000180AC, symSize: 0x44 }
  - { offset: 0x1CA8D, size: 0x8, addend: 0x0, symName: __ZNSt3__17__is_07B8ne180100Eh, symObjAddr: 0x14CD8, symBinAddr: 0x100018734, symSize: 0x20 }
  - { offset: 0x1CABB, size: 0x8, addend: 0x0, symName: __ZNSt3__17__is_89B8ne180100Eh, symObjAddr: 0x14CF8, symBinAddr: 0x100018754, symSize: 0x20 }
  - { offset: 0x1CAE9, size: 0x8, addend: 0x0, symName: __ZNSt3__110__to_lowerB8ne180100Eh, symObjAddr: 0x14D18, symBinAddr: 0x100018774, symSize: 0x18 }
  - { offset: 0x1CB17, size: 0x8, addend: 0x0, symName: __ZNSt3__119__throw_regex_errorB8ne180100ILNS_15regex_constants10error_typeE5EEEvv, symObjAddr: 0x14D30, symBinAddr: 0x10001878C, symSize: 0x60 }
  - { offset: 0x1CB3C, size: 0x8, addend: 0x0, symName: __ZNSt3__16searchB8ne180100IPKcPcEET_S4_S4_T0_S5_, symObjAddr: 0x16588, symBinAddr: 0x100019FE4, symSize: 0x3C }
  - { offset: 0x1CBA4, size: 0x8, addend: 0x0, symName: __ZNSt3__119__throw_regex_errorB8ne180100ILNS_15regex_constants10error_typeE1EEEvv, symObjAddr: 0x16604, symBinAddr: 0x10001A060, symSize: 0x60 }
  - { offset: 0x1CBC9, size: 0x8, addend: 0x0, symName: __ZNSt3__16searchB8ne180100IPKcPcNS_10__equal_toEEET_S5_S5_T0_S6_T1_, symObjAddr: 0x16784, symBinAddr: 0x10001A1E0, symSize: 0x5C }
  - { offset: 0x1CC56, size: 0x8, addend: 0x0, symName: __ZNSt3__113__search_implB8ne180100IPKcS2_PcS3_NS_10__equal_toENS_10__identityES5_EENS_4pairIT_S7_EES7_T0_T1_T2_RT3_RT4_RT5_PNS_9enable_ifIXaasr37__has_random_access_iterator_categoryIS7_EE5valuesr37__has_random_access_iterator_categoryISA_EE5valueEvE4typeE, symObjAddr: 0x167E0, symBinAddr: 0x10001A23C, symSize: 0xEC }
  - { offset: 0x1CD3B, size: 0x8, addend: 0x0, symName: __ZNSt3__19make_pairB8ne180100IRPKcS3_EENS_4pairINS_18__unwrap_ref_decayIT_E4typeENS5_IT0_E4typeEEEOS6_OS9_, symObjAddr: 0x168CC, symBinAddr: 0x10001A328, symSize: 0x38 }
  - { offset: 0x1CD8A, size: 0x8, addend: 0x0, symName: __ZNSt3__127__search_random_access_implB8ne180100INS_17_ClassicAlgPolicyEPKcS3_PcS4_NS_10__equal_toENS_10__identityES6_llEENS_4pairIT0_S8_EES8_T1_T2_T3_RT4_RT5_RT6_T7_T8_, symObjAddr: 0x16904, symBinAddr: 0x10001A360, symSize: 0x1B4 }
  - { offset: 0x1CEBC, size: 0x8, addend: 0x0, symName: __ZNSt3__18__invokeB8ne180100IRNS_10__equal_toEJRKcRcEEEDTclclsr3stdE7declvalIT_EEspclsr3stdE7declvalIT0_EEEEOS6_DpOS7_, symObjAddr: 0x16B48, symBinAddr: 0x10001A5A4, symSize: 0x34 }
  - { offset: 0x1CF21, size: 0x8, addend: 0x0, symName: __ZNSt3__18__invokeB8ne180100IRNS_10__identityEJRKcEEEDTclclsr3stdE7declvalIT_EEspclsr3stdE7declvalIT0_EEEEOS5_DpOS6_, symObjAddr: 0x16B7C, symBinAddr: 0x10001A5D8, symSize: 0x2C }
  - { offset: 0x1CF72, size: 0x8, addend: 0x0, symName: __ZNSt3__18__invokeB8ne180100IRNS_10__identityEJRcEEEDTclclsr3stdE7declvalIT_EEspclsr3stdE7declvalIT0_EEEEOS4_DpOS5_, symObjAddr: 0x16BA8, symBinAddr: 0x10001A604, symSize: 0x2C }
  - { offset: 0x1CFC3, size: 0x8, addend: 0x0, symName: __ZNSt3__19make_pairB8ne180100IRPKcS2_EENS_4pairINS_18__unwrap_ref_decayIT_E4typeENS5_IT0_E4typeEEEOS6_OS9_, symObjAddr: 0x16BD4, symBinAddr: 0x10001A630, symSize: 0x38 }
  - { offset: 0x1D09D, size: 0x8, addend: 0x0, symName: __ZNSt3__18distanceB8ne180100IPKcEENS_15iterator_traitsIT_E15difference_typeES4_S4_, symObjAddr: 0x16FCC, symBinAddr: 0x10001AA28, symSize: 0x2C }
  - { offset: 0x1D0E0, size: 0x8, addend: 0x0, symName: __ZNSt3__110__distanceB8ne180100IPKcEENS_15iterator_traitsIT_E15difference_typeES4_S4_NS_26random_access_iterator_tagE, symObjAddr: 0x17140, symBinAddr: 0x10001AB9C, symSize: 0x20 }
  - { offset: 0x1D12D, size: 0x8, addend: 0x0, symName: __ZNSt3__18distanceB8ne180100INS_11__wrap_iterIPcEEEENS_15iterator_traitsIT_E15difference_typeES5_S5_, symObjAddr: 0x17410, symBinAddr: 0x10001AE6C, symSize: 0x3C }
  - { offset: 0x1D170, size: 0x8, addend: 0x0, symName: __ZNSt3__110__distanceB8ne180100INS_11__wrap_iterIPcEEEENS_15iterator_traitsIT_E15difference_typeES5_S5_NS_26random_access_iterator_tagE, symObjAddr: 0x175A0, symBinAddr: 0x10001AFFC, symSize: 0x30 }
  - { offset: 0x1D1BD, size: 0x8, addend: 0x0, symName: __ZNSt3__1miB8ne180100IPcS1_EEDTmicldtfp_4baseEcldtfp0_4baseEERKNS_11__wrap_iterIT_EERKNS3_IT0_EE, symObjAddr: 0x175D0, symBinAddr: 0x10001B02C, symSize: 0x40 }
  - { offset: 0x1D209, size: 0x8, addend: 0x0, symName: __ZNSt3__1neB8ne180100IPcEEbRKNS_11__wrap_iterIT_EES6_, symObjAddr: 0x17628, symBinAddr: 0x10001B084, symSize: 0x30 }
  - { offset: 0x1D24C, size: 0x8, addend: 0x0, symName: __ZNSt3__1eqB8ne180100IPcEEbRKNS_11__wrap_iterIT_EES6_, symObjAddr: 0x17690, symBinAddr: 0x10001B0EC, symSize: 0x44 }
  - { offset: 0x1D28F, size: 0x8, addend: 0x0, symName: __ZNSt3__119__allocate_at_leastB8ne180100INS_9allocatorINS_12basic_stringIcNS_11char_traitsIcEENS1_IcEEEEEEEENS_19__allocation_resultINS_16allocator_traitsIT_E7pointerEEERSA_m, symObjAddr: 0x17F4C, symBinAddr: 0x10001B9A8, symSize: 0x40 }
  - { offset: 0x1D2D2, size: 0x8, addend: 0x0, symName: __ZNSt3__142__uninitialized_allocator_move_if_noexceptB8ne180100INS_9allocatorINS_12basic_stringIcNS_11char_traitsIcEENS1_IcEEEEEENS_16reverse_iteratorIPS6_EESA_SA_EET2_RT_T0_T1_SB_, symObjAddr: 0x18100, symBinAddr: 0x10001BB5C, symSize: 0x12C }
  - { offset: 0x1D372, size: 0x8, addend: 0x0, symName: __ZNSt3__14swapB8ne180100IPNS_12basic_stringIcNS_11char_traitsIcEENS_9allocatorIcEEEEEENS_9enable_ifIXaasr21is_move_constructibleIT_EE5valuesr18is_move_assignableIS9_EE5valueEvE4typeERS9_SC_, symObjAddr: 0x18278, symBinAddr: 0x10001BCD4, symSize: 0x3C }
  - { offset: 0x1D3C3, size: 0x8, addend: 0x0, symName: __ZNSt3__122__make_exception_guardB8ne180100INS_29_AllocatorDestroyRangeReverseINS_9allocatorINS_12basic_stringIcNS_11char_traitsIcEENS2_IcEEEEEENS_16reverse_iteratorIPS7_EEEEEENS_28__exception_guard_exceptionsIT_EESE_, symObjAddr: 0x182C8, symBinAddr: 0x10001BD24, symSize: 0x4C }
  - { offset: 0x1D3F9, size: 0x8, addend: 0x0, symName: __ZNSt3__1neB8ne180100IPNS_12basic_stringIcNS_11char_traitsIcEENS_9allocatorIcEEEES7_EEbRKNS_16reverse_iteratorIT_EERKNS8_IT0_EE, symObjAddr: 0x18358, symBinAddr: 0x10001BDB4, symSize: 0x44 }
  - { offset: 0x1D445, size: 0x8, addend: 0x0, symName: __ZNSt3__112__to_addressB8ne180100INS_16reverse_iteratorIPNS_12basic_stringIcNS_11char_traitsIcEENS_9allocatorIcEEEEEEvEEu7__decayIDTclsr19__to_address_helperIT_EE6__callclsr3stdE7declvalIRKSA_EEEEESC_, symObjAddr: 0x183D0, symBinAddr: 0x10001BE2C, symSize: 0x24 }
  - { offset: 0x1D4A4, size: 0x8, addend: 0x0, symName: __ZNSt3__119__allocator_destroyB8ne180100INS_9allocatorINS_12basic_stringIcNS_11char_traitsIcEENS1_IcEEEEEENS_16reverse_iteratorINS8_IPS6_EEEESB_EEvRT_T0_T1_, symObjAddr: 0x186AC, symBinAddr: 0x10001C108, symSize: 0x70 }
  - { offset: 0x1D509, size: 0x8, addend: 0x0, symName: __ZNSt3__1neB8ne180100INS_16reverse_iteratorIPNS_12basic_stringIcNS_11char_traitsIcEENS_9allocatorIcEEEEEES9_EEbRKNS1_IT_EERKNS1_IT0_EE, symObjAddr: 0x18758, symBinAddr: 0x10001C1B4, symSize: 0x5C }
  - { offset: 0x1D555, size: 0x8, addend: 0x0, symName: __ZNSt3__112__to_addressB8ne180100INS_16reverse_iteratorINS1_IPNS_12basic_stringIcNS_11char_traitsIcEENS_9allocatorIcEEEEEEEEvEEu7__decayIDTclsr19__to_address_helperIT_EE6__callclsr3stdE7declvalIRKSB_EEEEESD_, symObjAddr: 0x187B4, symBinAddr: 0x10001C210, symSize: 0x24 }
  - { offset: 0x1D5B4, size: 0x8, addend: 0x0, symName: __ZNSt3__119__throw_regex_errorB8ne180100ILNS_15regex_constants10error_typeE2EEEvv, symObjAddr: 0x18B54, symBinAddr: 0x10001C5B0, symSize: 0x60 }
  - { offset: 0x1D5D9, size: 0x8, addend: 0x0, symName: __ZNSt3__19make_pairB8ne180100INS_12basic_stringIcNS_11char_traitsIcEENS_9allocatorIcEEEES6_EENS_4pairINS_18__unwrap_ref_decayIT_E4typeENS8_IT0_E4typeEEEOS9_OSC_, symObjAddr: 0x18E4C, symBinAddr: 0x10001C8A8, symSize: 0x40 }
  - { offset: 0x1D628, size: 0x8, addend: 0x0, symName: __ZNSt3__119__throw_regex_errorB8ne180100ILNS_15regex_constants10error_typeE9EEEvv, symObjAddr: 0x18F8C, symBinAddr: 0x10001C9E8, symSize: 0x60 }
  - { offset: 0x1D64D, size: 0x8, addend: 0x0, symName: __ZNSt3__119__allocate_at_leastB8ne180100INS_9allocatorINS_4pairINS_12basic_stringIcNS_11char_traitsIcEENS1_IcEEEES7_EEEEEENS_19__allocation_resultINS_16allocator_traitsIT_E7pointerEEERSC_m, symObjAddr: 0x197D0, symBinAddr: 0x10001D22C, symSize: 0x40 }
  - { offset: 0x1D690, size: 0x8, addend: 0x0, symName: __ZNSt3__142__uninitialized_allocator_move_if_noexceptB8ne180100INS_9allocatorINS_4pairINS_12basic_stringIcNS_11char_traitsIcEENS1_IcEEEES7_EEEENS_16reverse_iteratorIPS8_EESC_SC_EET2_RT_T0_T1_SD_, symObjAddr: 0x19984, symBinAddr: 0x10001D3E0, symSize: 0x12C }
  - { offset: 0x1D730, size: 0x8, addend: 0x0, symName: __ZNSt3__14swapB8ne180100IPNS_4pairINS_12basic_stringIcNS_11char_traitsIcEENS_9allocatorIcEEEES7_EEEENS_9enable_ifIXaasr21is_move_constructibleIT_EE5valuesr18is_move_assignableISB_EE5valueEvE4typeERSB_SE_, symObjAddr: 0x19AFC, symBinAddr: 0x10001D558, symSize: 0x3C }
  - { offset: 0x1D781, size: 0x8, addend: 0x0, symName: __ZNSt3__122__make_exception_guardB8ne180100INS_29_AllocatorDestroyRangeReverseINS_9allocatorINS_4pairINS_12basic_stringIcNS_11char_traitsIcEENS2_IcEEEES8_EEEENS_16reverse_iteratorIPS9_EEEEEENS_28__exception_guard_exceptionsIT_EESG_, symObjAddr: 0x19B4C, symBinAddr: 0x10001D5A8, symSize: 0x4C }
  - { offset: 0x1D7B7, size: 0x8, addend: 0x0, symName: __ZNSt3__1neB8ne180100IPNS_4pairINS_12basic_stringIcNS_11char_traitsIcEENS_9allocatorIcEEEES7_EES9_EEbRKNS_16reverse_iteratorIT_EERKNSA_IT0_EE, symObjAddr: 0x19BDC, symBinAddr: 0x10001D638, symSize: 0x44 }
  - { offset: 0x1D803, size: 0x8, addend: 0x0, symName: __ZNSt3__112__to_addressB8ne180100INS_16reverse_iteratorIPNS_4pairINS_12basic_stringIcNS_11char_traitsIcEENS_9allocatorIcEEEES8_EEEEvEEu7__decayIDTclsr19__to_address_helperIT_EE6__callclsr3stdE7declvalIRKSC_EEEEESE_, symObjAddr: 0x19C20, symBinAddr: 0x10001D67C, symSize: 0x24 }
  - { offset: 0x1D862, size: 0x8, addend: 0x0, symName: __ZNSt3__119__allocator_destroyB8ne180100INS_9allocatorINS_4pairINS_12basic_stringIcNS_11char_traitsIcEENS1_IcEEEES7_EEEENS_16reverse_iteratorINSA_IPS8_EEEESD_EEvRT_T0_T1_, symObjAddr: 0x19ECC, symBinAddr: 0x10001D928, symSize: 0x70 }
  - { offset: 0x1D8C7, size: 0x8, addend: 0x0, symName: __ZNSt3__1neB8ne180100INS_16reverse_iteratorIPNS_4pairINS_12basic_stringIcNS_11char_traitsIcEENS_9allocatorIcEEEES8_EEEESB_EEbRKNS1_IT_EERKNS1_IT0_EE, symObjAddr: 0x19F78, symBinAddr: 0x10001D9D4, symSize: 0x5C }
  - { offset: 0x1D913, size: 0x8, addend: 0x0, symName: __ZNSt3__112__to_addressB8ne180100INS_16reverse_iteratorINS1_IPNS_4pairINS_12basic_stringIcNS_11char_traitsIcEENS_9allocatorIcEEEES8_EEEEEEvEEu7__decayIDTclsr19__to_address_helperIT_EE6__callclsr3stdE7declvalIRKSD_EEEEESF_, symObjAddr: 0x19FD4, symBinAddr: 0x10001DA30, symSize: 0x24 }
  - { offset: 0x1D972, size: 0x8, addend: 0x0, symName: __ZNSt3__19make_pairB8ne180100IccEENS_4pairINS_18__unwrap_ref_decayIT_E4typeENS2_IT0_E4typeEEEOS3_OS6_, symObjAddr: 0x1A538, symBinAddr: 0x10001DF94, symSize: 0x34 }
  - { offset: 0x1D9C1, size: 0x8, addend: 0x0, symName: __ZNSt3__19make_pairB8ne180100IRcS1_EENS_4pairINS_18__unwrap_ref_decayIT_E4typeENS3_IT0_E4typeEEEOS4_OS7_, symObjAddr: 0x1A56C, symBinAddr: 0x10001DFC8, symSize: 0x34 }
  - { offset: 0x1DA10, size: 0x8, addend: 0x0, symName: __ZNSt3__119__allocate_at_leastB8ne180100INS_9allocatorINS_4pairIccEEEEEENS_19__allocation_resultINS_16allocator_traitsIT_E7pointerEEERS7_m, symObjAddr: 0x1ACE8, symBinAddr: 0x10001E744, symSize: 0x40 }
  - { offset: 0x1DA53, size: 0x8, addend: 0x0, symName: __ZNSt3__142__uninitialized_allocator_move_if_noexceptB8ne180100INS_9allocatorINS_4pairIccEEEENS_16reverse_iteratorIPS3_EES7_S7_EET2_RT_T0_T1_S8_, symObjAddr: 0x1AE98, symBinAddr: 0x10001E8F4, symSize: 0x12C }
  - { offset: 0x1DAF3, size: 0x8, addend: 0x0, symName: __ZNSt3__14swapB8ne180100IPNS_4pairIccEEEENS_9enable_ifIXaasr21is_move_constructibleIT_EE5valuesr18is_move_assignableIS5_EE5valueEvE4typeERS5_S8_, symObjAddr: 0x1B010, symBinAddr: 0x10001EA6C, symSize: 0x3C }
  - { offset: 0x1DB44, size: 0x8, addend: 0x0, symName: __ZNSt3__122__make_exception_guardB8ne180100INS_29_AllocatorDestroyRangeReverseINS_9allocatorINS_4pairIccEEEENS_16reverse_iteratorIPS4_EEEEEENS_28__exception_guard_exceptionsIT_EESB_, symObjAddr: 0x1B060, symBinAddr: 0x10001EABC, symSize: 0x4C }
  - { offset: 0x1DB7A, size: 0x8, addend: 0x0, symName: __ZNSt3__1neB8ne180100IPNS_4pairIccEES3_EEbRKNS_16reverse_iteratorIT_EERKNS4_IT0_EE, symObjAddr: 0x1B0F0, symBinAddr: 0x10001EB4C, symSize: 0x44 }
  - { offset: 0x1DBC6, size: 0x8, addend: 0x0, symName: __ZNSt3__112__to_addressB8ne180100INS_16reverse_iteratorIPNS_4pairIccEEEEvEEu7__decayIDTclsr19__to_address_helperIT_EE6__callclsr3stdE7declvalIRKS6_EEEEES8_, symObjAddr: 0x1B134, symBinAddr: 0x10001EB90, symSize: 0x24 }
  - { offset: 0x1DC25, size: 0x8, addend: 0x0, symName: __ZNSt3__119__allocator_destroyB8ne180100INS_9allocatorINS_4pairIccEEEENS_16reverse_iteratorINS5_IPS3_EEEES8_EEvRT_T0_T1_, symObjAddr: 0x1B3E0, symBinAddr: 0x10001EE3C, symSize: 0x70 }
  - { offset: 0x1DC8A, size: 0x8, addend: 0x0, symName: __ZNSt3__1neB8ne180100INS_16reverse_iteratorIPNS_4pairIccEEEES5_EEbRKNS1_IT_EERKNS1_IT0_EE, symObjAddr: 0x1B48C, symBinAddr: 0x10001EEE8, symSize: 0x5C }
  - { offset: 0x1DCD6, size: 0x8, addend: 0x0, symName: __ZNSt3__112__to_addressB8ne180100INS_16reverse_iteratorINS1_IPNS_4pairIccEEEEEEvEEu7__decayIDTclsr19__to_address_helperIT_EE6__callclsr3stdE7declvalIRKS7_EEEEES9_, symObjAddr: 0x1B4E8, symBinAddr: 0x10001EF44, symSize: 0x24 }
  - { offset: 0x1DE41, size: 0x8, addend: 0x0, symName: __ZNSt3__119__throw_regex_errorB8ne180100ILNS_15regex_constants10error_typeE8EEEvv, symObjAddr: 0x1C0D8, symBinAddr: 0x10001FB34, symSize: 0x60 }
  - { offset: 0x1DE66, size: 0x8, addend: 0x0, symName: __ZNSt3__119__throw_regex_errorB8ne180100ILNS_15regex_constants10error_typeE7EEEvv, symObjAddr: 0x1C138, symBinAddr: 0x10001FB94, symSize: 0x60 }
  - { offset: 0x1E7BE, size: 0x8, addend: 0x0, symName: __ZNSt3__119__throw_regex_errorB8ne180100ILNS_15regex_constants10error_typeE15EEEvv, symObjAddr: 0x1D0E8, symBinAddr: 0x100020B44, symSize: 0x60 }
  - { offset: 0x1E857, size: 0x8, addend: 0x0, symName: __ZNSt3__14findB8ne180100IPKccEET_S3_S3_RKT0_, symObjAddr: 0x1E4C8, symBinAddr: 0x100021F24, symSize: 0x60 }
  - { offset: 0x1E8BF, size: 0x8, addend: 0x0, symName: __ZNSt3__113__rewrap_iterB8ne180100IPKcS2_NS_18__unwrap_iter_implIS2_Lb1EEEEET_S5_T0_, symObjAddr: 0x1E528, symBinAddr: 0x100021F84, symSize: 0x3C }
  - { offset: 0x1E914, size: 0x8, addend: 0x0, symName: __ZNSt3__113regex_replaceB8ne180100INS_20back_insert_iteratorINS_12basic_stringIcNS_11char_traitsIcEENS_9allocatorIcEEEEEENS_11__wrap_iterIPKcEENS_12regex_traitsIcEEcEET_SF_T0_SG_RKNS_11basic_regexIT2_T1_EEPKSI_NS_15regex_constants15match_flag_typeE, symObjAddr: 0x1E5AC, symBinAddr: 0x100022008, symSize: 0x320 }
  - { offset: 0x1EA1A, size: 0x8, addend: 0x0, symName: __ZNSt3__113back_inserterB8ne180100INS_12basic_stringIcNS_11char_traitsIcEENS_9allocatorIcEEEEEENS_20back_insert_iteratorIT_EERS8_, symObjAddr: 0x1E8CC, symBinAddr: 0x100022328, symSize: 0x2C }
  - { offset: 0x1EF51, size: 0x8, addend: 0x0, symName: __ZNSt3__14copyB8ne180100INS_11__wrap_iterIPKcEENS_20back_insert_iteratorINS_12basic_stringIcNS_11char_traitsIcEENS_9allocatorIcEEEEEEEET0_T_SE_SD_, symObjAddr: 0x1EB8C, symBinAddr: 0x1000225E8, symSize: 0x60 }
  - { offset: 0x1EFB7, size: 0x8, addend: 0x0, symName: __ZNSt3__112regex_searchB8ne180100IPKcNS_9allocatorINS_9sub_matchINS_11__wrap_iterIS2_EEEEEEcNS_12regex_traitsIcEEEEbNS5_IT_EESC_RNS_13match_resultsISC_T0_EERKNS_11basic_regexIT1_T2_EENS_15regex_constants15match_flag_typeE, symObjAddr: 0x1F540, symBinAddr: 0x100022F9C, symSize: 0x118 }
  - { offset: 0x1F065, size: 0x8, addend: 0x0, symName: __ZNSt3__112__to_addressB8ne180100INS_9sub_matchINS_11__wrap_iterIPKcEEEEEEPT_S8_, symObjAddr: 0x1FC0C, symBinAddr: 0x100023668, symSize: 0x14 }
  - { offset: 0x1F437, size: 0x8, addend: 0x0, symName: __ZNSt3__14swapB8ne180100IPPNS_7__stateIcEEEENS_9enable_ifIXaasr21is_move_constructibleIT_EE5valuesr18is_move_assignableIS6_EE5valueEvE4typeERS6_S9_, symObjAddr: 0x22D8C, symBinAddr: 0x1000267E8, symSize: 0x3C }
  - { offset: 0x1F488, size: 0x8, addend: 0x0, symName: __ZNSt3__14moveB8ne180100IPPNS_7__stateIcEES4_EET0_T_S6_S5_, symObjAddr: 0x22EBC, symBinAddr: 0x100026918, symSize: 0x40 }
  - { offset: 0x1F4E2, size: 0x8, addend: 0x0, symName: __ZNSt3__112__to_addressB8ne180100IPNS_7__stateIcEEEEPT_S5_, symObjAddr: 0x22FC4, symBinAddr: 0x100026A20, symSize: 0x14 }
  - { offset: 0x1F517, size: 0x8, addend: 0x0, symName: __ZNSt3__16__moveB8ne180100INS_17_ClassicAlgPolicyEPPNS_7__stateIcEES5_S5_EENS_4pairIT0_T2_EES7_T1_S8_, symObjAddr: 0x22FD8, symBinAddr: 0x100026A34, symSize: 0x44 }
  - { offset: 0x1F583, size: 0x8, addend: 0x0, symName: __ZNSt3__123__dispatch_copy_or_moveB8ne180100INS_17_ClassicAlgPolicyENS_11__move_loopIS1_EENS_14__move_trivialEPPNS_7__stateIcEES8_S8_EENS_4pairIT2_T4_EESA_T3_SB_, symObjAddr: 0x2301C, symBinAddr: 0x100026A78, symSize: 0x44 }
  - { offset: 0x1F601, size: 0x8, addend: 0x0, symName: __ZNSt3__121__unwrap_and_dispatchB8ne180100INS_10__overloadINS_11__move_loopINS_17_ClassicAlgPolicyEEENS_14__move_trivialEEEPPNS_7__stateIcEESA_SA_TnNS_9enable_ifIXsr12__can_rewrapIT0_T1_T2_EE5valueEiE4typeELi0EEENS_4pairISC_SE_EESC_SD_SE_, symObjAddr: 0x23060, symBinAddr: 0x100026ABC, symSize: 0xB4 }
  - { offset: 0x1F68F, size: 0x8, addend: 0x0, symName: __ZNSt3__114__unwrap_rangeB8ne180100IPPNS_7__stateIcEES4_EENS_4pairIT0_S6_EET_S8_, symObjAddr: 0x23114, symBinAddr: 0x100026B70, symSize: 0x60 }
  - { offset: 0x1F853, size: 0x8, addend: 0x0, symName: __ZNSt3__113__unwrap_iterB8ne180100IPPNS_7__stateIcEENS_18__unwrap_iter_implIS4_Lb1EEETnNS_9enable_ifIXsr21is_copy_constructibleIT_EE5valueEiE4typeELi0EEEDTclsrT0_8__unwrapclsr3stdE7declvalIS8_EEEES8_, symObjAddr: 0x231BC, symBinAddr: 0x100026C18, symSize: 0x24 }
  - { offset: 0x1F897, size: 0x8, addend: 0x0, symName: __ZNSt3__19make_pairB8ne180100IPPNS_7__stateIcEES4_EENS_4pairINS_18__unwrap_ref_decayIT_E4typeENS6_IT0_E4typeEEEOS7_OSA_, symObjAddr: 0x231E0, symBinAddr: 0x100026C3C, symSize: 0x38 }
  - { offset: 0x1F8E6, size: 0x8, addend: 0x0, symName: __ZNSt3__114__rewrap_rangeB8ne180100IPPNS_7__stateIcEES4_EET_S5_T0_, symObjAddr: 0x23218, symBinAddr: 0x100026C74, symSize: 0x2C }
  - { offset: 0x1F932, size: 0x8, addend: 0x0, symName: __ZNSt3__113__rewrap_iterB8ne180100IPPNS_7__stateIcEES4_NS_18__unwrap_iter_implIS4_Lb1EEEEET_S7_T0_, symObjAddr: 0x23244, symBinAddr: 0x100026CA0, symSize: 0x3C }
  - { offset: 0x1F987, size: 0x8, addend: 0x0, symName: __ZNSt3__119__copy_trivial_implB8ne180100IPNS_7__stateIcEES3_EENS_4pairIPT_PT0_EES6_S6_S8_, symObjAddr: 0x23280, symBinAddr: 0x100026CDC, symSize: 0x80 }
  - { offset: 0x1F9EF, size: 0x8, addend: 0x0, symName: __ZNSt3__119__constexpr_memmoveB8ne180100IPNS_7__stateIcEES3_TnNS_9enable_ifIXsr23__is_always_bitcastableIT0_T_EE5valueEiE4typeELi0EEEPS6_S9_PS5_NS_15__element_countE, symObjAddr: 0x23300, symBinAddr: 0x100026D5C, symSize: 0x60 }
  - { offset: 0x1FA5D, size: 0x8, addend: 0x0, symName: __ZNSt3__19make_pairB8ne180100IRPPNS_7__stateIcEES4_EENS_4pairINS_18__unwrap_ref_decayIT_E4typeENS7_IT0_E4typeEEEOS8_OSB_, symObjAddr: 0x23360, symBinAddr: 0x100026DBC, symSize: 0x38 }
  - { offset: 0x1FAFF, size: 0x8, addend: 0x0, symName: __ZNSt3__18distanceB8ne180100INS_13move_iteratorIPPNS_7__stateIcEEEEEENS_15iterator_traitsIT_E15difference_typeES8_S8_, symObjAddr: 0x235C4, symBinAddr: 0x100027020, symSize: 0x3C }
  - { offset: 0x1FB42, size: 0x8, addend: 0x0, symName: __ZNSt3__110__distanceB8ne180100INS_13move_iteratorIPPNS_7__stateIcEEEEEENS_15iterator_traitsIT_E15difference_typeES8_S8_NS_26random_access_iterator_tagE, symObjAddr: 0x237C8, symBinAddr: 0x100027224, symSize: 0x30 }
  - { offset: 0x1FB8F, size: 0x8, addend: 0x0, symName: __ZNSt3__1miB8ne180100IPPNS_7__stateIcEES4_EEDTmicldtfp_4baseEcldtfp0_4baseEERKNS_13move_iteratorIT_EERKNS6_IT0_EE, symObjAddr: 0x237F8, symBinAddr: 0x100027254, symSize: 0x48 }
  - { offset: 0x1FBDE, size: 0x8, addend: 0x0, symName: __ZNSt3__113move_backwardB8ne180100IPPNS_7__stateIcEES4_EET0_T_S6_S5_, symObjAddr: 0x23900, symBinAddr: 0x10002735C, symSize: 0x40 }
  - { offset: 0x1FC38, size: 0x8, addend: 0x0, symName: __ZNSt3__115__move_backwardB8ne180100INS_17_ClassicAlgPolicyEPPNS_7__stateIcEES5_S5_EENS_4pairIT0_T2_EES7_T1_S8_, symObjAddr: 0x23940, symBinAddr: 0x10002739C, symSize: 0x44 }
  - { offset: 0x1FCA4, size: 0x8, addend: 0x0, symName: __ZNSt3__123__dispatch_copy_or_moveB8ne180100INS_17_ClassicAlgPolicyENS_20__move_backward_loopIS1_EENS_23__move_backward_trivialEPPNS_7__stateIcEES8_S8_EENS_4pairIT2_T4_EESA_T3_SB_, symObjAddr: 0x23984, symBinAddr: 0x1000273E0, symSize: 0x44 }
  - { offset: 0x1FD22, size: 0x8, addend: 0x0, symName: __ZNSt3__121__unwrap_and_dispatchB8ne180100INS_10__overloadINS_20__move_backward_loopINS_17_ClassicAlgPolicyEEENS_23__move_backward_trivialEEEPPNS_7__stateIcEESA_SA_TnNS_9enable_ifIXsr12__can_rewrapIT0_T1_T2_EE5valueEiE4typeELi0EEENS_4pairISC_SE_EESC_SD_SE_, symObjAddr: 0x239C8, symBinAddr: 0x100027424, symSize: 0xB4 }
  - { offset: 0x1FDF6, size: 0x8, addend: 0x0, symName: __ZNSt3__128__copy_backward_trivial_implB8ne180100IPNS_7__stateIcEES3_EENS_4pairIPT_PT0_EES6_S6_S8_, symObjAddr: 0x23AC4, symBinAddr: 0x100027520, symSize: 0x90 }
  - { offset: 0x1FE5E, size: 0x8, addend: 0x0, symName: __ZNSt3__19make_pairB8ne180100IRPPNS_7__stateIcEES5_EENS_4pairINS_18__unwrap_ref_decayIT_E4typeENS7_IT0_E4typeEEEOS8_OSB_, symObjAddr: 0x23B54, symBinAddr: 0x1000275B0, symSize: 0x38 }
  - { offset: 0x1FEAD, size: 0x8, addend: 0x0, symName: __ZNSt3__119__allocate_at_leastB8ne180100INS_9allocatorIPNS_7__stateIcEEEEEENS_19__allocation_resultINS_16allocator_traitsIT_E7pointerEEERS8_m, symObjAddr: 0x23D3C, symBinAddr: 0x100027798, symSize: 0x40 }
  - { offset: 0x1FEF0, size: 0x8, addend: 0x0, symName: __ZNSt3__1neB8ne180100ERKNS_16__deque_iteratorINS_7__stateIcEEPS2_RS2_PS3_lLl42EEES8_, symObjAddr: 0x24784, symBinAddr: 0x1000281E0, symSize: 0x30 }
  - { offset: 0x1FF2D, size: 0x8, addend: 0x0, symName: __ZNSt3__1eqB8ne180100ERKNS_16__deque_iteratorINS_7__stateIcEEPS2_RS2_PS3_lLl42EEES8_, symObjAddr: 0x24820, symBinAddr: 0x10002827C, symSize: 0x2C }
  - { offset: 0x1FF6A, size: 0x8, addend: 0x0, symName: __ZNSt3__18distanceB8ne180100IPNS_9sub_matchIPKcEEEENS_15iterator_traitsIT_E15difference_typeES7_S7_, symObjAddr: 0x2560C, symBinAddr: 0x100029068, symSize: 0x2C }
  - { offset: 0x1FFAD, size: 0x8, addend: 0x0, symName: __ZNSt3__14nextB8ne180100IPNS_9sub_matchIPKcEETnNS_9enable_ifIXsr29__has_input_iterator_categoryIT_EE5valueEiE4typeELi0EEES7_S7_NS_15iterator_traitsIS7_E15difference_typeE, symObjAddr: 0x25638, symBinAddr: 0x100029094, symSize: 0x34 }
  - { offset: 0x1FFF6, size: 0x8, addend: 0x0, symName: __ZNSt3__14copyB8ne180100IPNS_9sub_matchIPKcEES5_EET0_T_S7_S6_, symObjAddr: 0x2566C, symBinAddr: 0x1000290C8, symSize: 0x40 }
  - { offset: 0x20050, size: 0x8, addend: 0x0, symName: __ZNSt3__16__copyB8ne180100INS_17_ClassicAlgPolicyEPNS_9sub_matchIPKcEES6_S6_EENS_4pairIT0_T2_EES8_T1_S9_, symObjAddr: 0x256AC, symBinAddr: 0x100029108, symSize: 0x44 }
  - { offset: 0x200BC, size: 0x8, addend: 0x0, symName: __ZNSt3__19__advanceB8ne180100IPNS_9sub_matchIPKcEEEEvRT_NS_15iterator_traitsIS6_E15difference_typeENS_26random_access_iterator_tagE, symObjAddr: 0x25728, symBinAddr: 0x100029184, symSize: 0x30 }
  - { offset: 0x20105, size: 0x8, addend: 0x0, symName: __ZNSt3__123__dispatch_copy_or_moveB8ne180100INS_17_ClassicAlgPolicyENS_11__copy_loopIS1_EENS_14__copy_trivialEPNS_9sub_matchIPKcEES9_S9_EENS_4pairIT2_T4_EESB_T3_SC_, symObjAddr: 0x25758, symBinAddr: 0x1000291B4, symSize: 0x44 }
  - { offset: 0x20183, size: 0x8, addend: 0x0, symName: __ZNSt3__121__unwrap_and_dispatchB8ne180100INS_10__overloadINS_11__copy_loopINS_17_ClassicAlgPolicyEEENS_14__copy_trivialEEEPNS_9sub_matchIPKcEESB_SB_TnNS_9enable_ifIXsr12__can_rewrapIT0_T1_T2_EE5valueEiE4typeELi0EEENS_4pairISD_SF_EESD_SE_SF_, symObjAddr: 0x2579C, symBinAddr: 0x1000291F8, symSize: 0xB4 }
  - { offset: 0x202E1, size: 0x8, addend: 0x0, symName: __ZNSt3__114__rewrap_rangeB8ne180100IPNS_9sub_matchIPKcEES5_EET_S6_T0_, symObjAddr: 0x258D4, symBinAddr: 0x100029330, symSize: 0x2C }
  - { offset: 0x2032D, size: 0x8, addend: 0x0, symName: __ZNSt3__110__distanceB8ne180100IPNS_9sub_matchIPKcEEEENS_15iterator_traitsIT_E15difference_typeES7_S7_NS_26random_access_iterator_tagE, symObjAddr: 0x25900, symBinAddr: 0x10002935C, symSize: 0x28 }
  - { offset: 0x2037A, size: 0x8, addend: 0x0, symName: __ZNSt3__18distanceB8ne180100IPNS_4pairImPKcEEEENS_15iterator_traitsIT_E15difference_typeES7_S7_, symObjAddr: 0x25B20, symBinAddr: 0x10002957C, symSize: 0x2C }
  - { offset: 0x203BD, size: 0x8, addend: 0x0, symName: __ZNSt3__14nextB8ne180100IPNS_4pairImPKcEETnNS_9enable_ifIXsr29__has_input_iterator_categoryIT_EE5valueEiE4typeELi0EEES7_S7_NS_15iterator_traitsIS7_E15difference_typeE, symObjAddr: 0x25B4C, symBinAddr: 0x1000295A8, symSize: 0x34 }
  - { offset: 0x20406, size: 0x8, addend: 0x0, symName: __ZNSt3__14copyB8ne180100IPNS_4pairImPKcEES5_EET0_T_S7_S6_, symObjAddr: 0x25B80, symBinAddr: 0x1000295DC, symSize: 0x40 }
  - { offset: 0x20460, size: 0x8, addend: 0x0, symName: __ZNSt3__16__copyB8ne180100INS_17_ClassicAlgPolicyEPNS_4pairImPKcEES6_S6_EENS2_IT0_T2_EES7_T1_S8_, symObjAddr: 0x25BC0, symBinAddr: 0x10002961C, symSize: 0x44 }
  - { offset: 0x204CC, size: 0x8, addend: 0x0, symName: __ZNSt3__19__advanceB8ne180100IPNS_4pairImPKcEEEEvRT_NS_15iterator_traitsIS6_E15difference_typeENS_26random_access_iterator_tagE, symObjAddr: 0x25CC8, symBinAddr: 0x100029724, symSize: 0x28 }
  - { offset: 0x20515, size: 0x8, addend: 0x0, symName: __ZNSt3__123__dispatch_copy_or_moveB8ne180100INS_17_ClassicAlgPolicyENS_11__copy_loopIS1_EENS_14__copy_trivialEPNS_4pairImPKcEES9_S9_EENS5_IT2_T4_EESA_T3_SB_, symObjAddr: 0x25CF0, symBinAddr: 0x10002974C, symSize: 0x44 }
  - { offset: 0x20593, size: 0x8, addend: 0x0, symName: __ZNSt3__121__unwrap_and_dispatchB8ne180100INS_10__overloadINS_11__copy_loopINS_17_ClassicAlgPolicyEEENS_14__copy_trivialEEEPNS_4pairImPKcEESB_SB_TnNS_9enable_ifIXsr12__can_rewrapIT0_T1_T2_EE5valueEiE4typeELi0EEENS7_ISD_SF_EESD_SE_SF_, symObjAddr: 0x25D34, symBinAddr: 0x100029790, symSize: 0xB4 }
  - { offset: 0x20621, size: 0x8, addend: 0x0, symName: __ZNSt3__114__rewrap_rangeB8ne180100IPNS_4pairImPKcEES5_EET_S6_T0_, symObjAddr: 0x25E6C, symBinAddr: 0x1000298C8, symSize: 0x2C }
  - { offset: 0x2066D, size: 0x8, addend: 0x0, symName: __ZNSt3__110__distanceB8ne180100IPNS_4pairImPKcEEEENS_15iterator_traitsIT_E15difference_typeES7_S7_NS_26random_access_iterator_tagE, symObjAddr: 0x25F0C, symBinAddr: 0x100029968, symSize: 0x28 }
  - { offset: 0x206BA, size: 0x8, addend: 0x0, symName: __ZNSt3__14nextB8ne180100INS_11__wrap_iterIPKcEETnNS_9enable_ifIXsr29__has_input_iterator_categoryIT_EE5valueEiE4typeELi0EEES6_S6_NS_15iterator_traitsIS6_E15difference_typeE, symObjAddr: 0x26034, symBinAddr: 0x100029A90, symSize: 0x3C }
  - { offset: 0x20703, size: 0x8, addend: 0x0, symName: __ZNSt3__119__allocate_at_leastB8ne180100INS_9allocatorINS_9sub_matchINS_11__wrap_iterIPKcEEEEEEEENS_19__allocation_resultINS_16allocator_traitsIT_E7pointerEEERSB_m, symObjAddr: 0x26974, symBinAddr: 0x10002A3D0, symSize: 0x40 }
  - { offset: 0x20746, size: 0x8, addend: 0x0, symName: __ZNSt3__142__uninitialized_allocator_move_if_noexceptB8ne180100INS_9allocatorINS_9sub_matchINS_11__wrap_iterIPKcEEEEEENS_16reverse_iteratorIPS7_EESB_SB_EET2_RT_T0_T1_SC_, symObjAddr: 0x26BFC, symBinAddr: 0x10002A658, symSize: 0x12C }
  - { offset: 0x207E6, size: 0x8, addend: 0x0, symName: __ZNSt3__14swapB8ne180100IPNS_9sub_matchINS_11__wrap_iterIPKcEEEEEENS_9enable_ifIXaasr21is_move_constructibleIT_EE5valuesr18is_move_assignableIS9_EE5valueEvE4typeERS9_SC_, symObjAddr: 0x26D74, symBinAddr: 0x10002A7D0, symSize: 0x3C }
  - { offset: 0x20837, size: 0x8, addend: 0x0, symName: __ZNSt3__122__make_exception_guardB8ne180100INS_29_AllocatorDestroyRangeReverseINS_9allocatorINS_9sub_matchINS_11__wrap_iterIPKcEEEEEENS_16reverse_iteratorIPS8_EEEEEENS_28__exception_guard_exceptionsIT_EESF_, symObjAddr: 0x26DC4, symBinAddr: 0x10002A820, symSize: 0x4C }
  - { offset: 0x2086D, size: 0x8, addend: 0x0, symName: __ZNSt3__1neB8ne180100IPNS_9sub_matchINS_11__wrap_iterIPKcEEEES7_EEbRKNS_16reverse_iteratorIT_EERKNS8_IT0_EE, symObjAddr: 0x26E54, symBinAddr: 0x10002A8B0, symSize: 0x44 }
  - { offset: 0x208B9, size: 0x8, addend: 0x0, symName: __ZNSt3__112__to_addressB8ne180100INS_16reverse_iteratorIPNS_9sub_matchINS_11__wrap_iterIPKcEEEEEEvEEu7__decayIDTclsr19__to_address_helperIT_EE6__callclsr3stdE7declvalIRKSA_EEEEESC_, symObjAddr: 0x26ECC, symBinAddr: 0x10002A928, symSize: 0x24 }
  - { offset: 0x20918, size: 0x8, addend: 0x0, symName: __ZNSt3__119__allocator_destroyB8ne180100INS_9allocatorINS_9sub_matchINS_11__wrap_iterIPKcEEEEEENS_16reverse_iteratorINS9_IPS7_EEEESC_EEvRT_T0_T1_, symObjAddr: 0x271A8, symBinAddr: 0x10002AC04, symSize: 0x70 }
  - { offset: 0x2097D, size: 0x8, addend: 0x0, symName: __ZNSt3__1neB8ne180100INS_16reverse_iteratorIPNS_9sub_matchINS_11__wrap_iterIPKcEEEEEES9_EEbRKNS1_IT_EERKNS1_IT0_EE, symObjAddr: 0x27254, symBinAddr: 0x10002ACB0, symSize: 0x5C }
  - { offset: 0x209C9, size: 0x8, addend: 0x0, symName: __ZNSt3__112__to_addressB8ne180100INS_16reverse_iteratorINS1_IPNS_9sub_matchINS_11__wrap_iterIPKcEEEEEEEEvEEu7__decayIDTclsr19__to_address_helperIT_EE6__callclsr3stdE7declvalIRKSB_EEEEESD_, symObjAddr: 0x272B0, symBinAddr: 0x10002AD0C, symSize: 0x24 }
  - { offset: 0x20A28, size: 0x8, addend: 0x0, symName: __ZNSt3__19__advanceB8ne180100INS_11__wrap_iterIPKcEEEEvRT_NS_15iterator_traitsIS5_E15difference_typeENS_26random_access_iterator_tagE, symObjAddr: 0x27658, symBinAddr: 0x10002B0B4, symSize: 0x2C }
  - { offset: 0x20A71, size: 0x8, addend: 0x0, symName: __ZNSt3__1eqB8ne180100INS_11__wrap_iterIPKcEEEEbRKNS_9sub_matchIT_EES9_, symObjAddr: 0x27728, symBinAddr: 0x10002B184, symSize: 0x34 }
  - { offset: 0x20AB7, size: 0x8, addend: 0x0, symName: __ZNSt3__18distanceB8ne180100INS_11__wrap_iterIPKcEEEENS_15iterator_traitsIT_E15difference_typeES6_S6_, symObjAddr: 0x279F0, symBinAddr: 0x10002B44C, symSize: 0x3C }
  - { offset: 0x20AFA, size: 0x8, addend: 0x0, symName: __ZNSt3__110__distanceB8ne180100INS_11__wrap_iterIPKcEEEENS_15iterator_traitsIT_E15difference_typeES6_S6_NS_26random_access_iterator_tagE, symObjAddr: 0x27B80, symBinAddr: 0x10002B5DC, symSize: 0x30 }
  - { offset: 0x20B47, size: 0x8, addend: 0x0, symName: __ZNSt3__1miB8ne180100IPKcS2_EEDTmicldtfp_4baseEcldtfp0_4baseEERKNS_11__wrap_iterIT_EERKNS4_IT0_EE, symObjAddr: 0x27BB0, symBinAddr: 0x10002B60C, symSize: 0x40 }
  - { offset: 0x20B93, size: 0x8, addend: 0x0, symName: __ZNSt3__16__copyB8ne180100INS_17_ClassicAlgPolicyENS_11__wrap_iterIPKcEES5_NS_20back_insert_iteratorINS_12basic_stringIcNS_11char_traitsIcEENS_9allocatorIcEEEEEEEENS_4pairIT0_T2_EESF_T1_SG_, symObjAddr: 0x27C54, symBinAddr: 0x10002B6B0, symSize: 0x5C }
  - { offset: 0x20BFF, size: 0x8, addend: 0x0, symName: __ZNSt3__123__dispatch_copy_or_moveB8ne180100INS_17_ClassicAlgPolicyENS_11__copy_loopIS1_EENS_14__copy_trivialENS_11__wrap_iterIPKcEES8_NS_20back_insert_iteratorINS_12basic_stringIcNS_11char_traitsIcEENS_9allocatorIcEEEEEEEENS_4pairIT2_T4_EESI_T3_SJ_, symObjAddr: 0x27CB0, symBinAddr: 0x10002B70C, symSize: 0x5C }
  - { offset: 0x20C7D, size: 0x8, addend: 0x0, symName: __ZNSt3__121__unwrap_and_dispatchB8ne180100INS_10__overloadINS_11__copy_loopINS_17_ClassicAlgPolicyEEENS_14__copy_trivialEEENS_11__wrap_iterIPKcEESA_NS_20back_insert_iteratorINS_12basic_stringIcNS_11char_traitsIcEENS_9allocatorIcEEEEEETnNS_9enable_ifIXsr12__can_rewrapIT0_T1_T2_EE5valueEiE4typeELi0EEENS_4pairISK_SM_EESK_SL_SM_, symObjAddr: 0x27D0C, symBinAddr: 0x10002B768, symSize: 0xE8 }
  - { offset: 0x20D0C, size: 0x8, addend: 0x0, symName: __ZNSt3__114__unwrap_rangeB8ne180100INS_11__wrap_iterIPKcEES3_EENS_4pairIT0_S6_EET_S8_, symObjAddr: 0x27DF4, symBinAddr: 0x10002B850, symSize: 0x70 }
  - { offset: 0x20E2C, size: 0x8, addend: 0x0, symName: __ZNSt3__113__unwrap_iterB8ne180100INS_20back_insert_iteratorINS_12basic_stringIcNS_11char_traitsIcEENS_9allocatorIcEEEEEENS_18__unwrap_iter_implIS8_Lb0EEETnNS_9enable_ifIXsr21is_copy_constructibleIT_EE5valueEiE4typeELi0EEEDTclsrT0_8__unwrapclsr3stdE7declvalISC_EEEESC_, symObjAddr: 0x27EF4, symBinAddr: 0x10002B950, symSize: 0x34 }
  - { offset: 0x20E70, size: 0x8, addend: 0x0, symName: __ZNSt3__19make_pairB8ne180100INS_11__wrap_iterIPKcEENS_20back_insert_iteratorINS_12basic_stringIcNS_11char_traitsIcEENS_9allocatorIcEEEEEEEENS_4pairINS_18__unwrap_ref_decayIT_E4typeENSE_IT0_E4typeEEEOSF_OSI_, symObjAddr: 0x27F28, symBinAddr: 0x10002B984, symSize: 0x38 }
  - { offset: 0x20EBF, size: 0x8, addend: 0x0, symName: __ZNSt3__114__rewrap_rangeB8ne180100INS_11__wrap_iterIPKcEES3_EET_S5_T0_, symObjAddr: 0x27F60, symBinAddr: 0x10002B9BC, symSize: 0x3C }
  - { offset: 0x20F0B, size: 0x8, addend: 0x0, symName: __ZNSt3__113__rewrap_iterB8ne180100INS_20back_insert_iteratorINS_12basic_stringIcNS_11char_traitsIcEENS_9allocatorIcEEEEEES8_NS_18__unwrap_iter_implIS8_Lb0EEEEET_SB_T0_, symObjAddr: 0x27F9C, symBinAddr: 0x10002B9F8, symSize: 0x54 }
  - { offset: 0x20F60, size: 0x8, addend: 0x0, symName: __ZNSt3__19make_pairB8ne180100IPKcS2_EENS_4pairINS_18__unwrap_ref_decayIT_E4typeENS4_IT0_E4typeEEEOS5_OS8_, symObjAddr: 0x27FF0, symBinAddr: 0x10002BA4C, symSize: 0x38 }
  - { offset: 0x20FAF, size: 0x8, addend: 0x0, symName: __ZNSt3__19make_pairB8ne180100IPKcNS_20back_insert_iteratorINS_12basic_stringIcNS_11char_traitsIcEENS_9allocatorIcEEEEEEEENS_4pairINS_18__unwrap_ref_decayIT_E4typeENSC_IT0_E4typeEEEOSD_OSG_, symObjAddr: 0x280FC, symBinAddr: 0x10002BB58, symSize: 0x38 }
  - { offset: 0x2111A, size: 0x8, addend: 0x0, symName: __ZNSt3__116__pad_and_outputB8ne180100IcNS_11char_traitsIcEEEENS_19ostreambuf_iteratorIT_T0_EES6_PKS4_S8_S8_RNS_8ios_baseES4_, symObjAddr: 0x2888C, symBinAddr: 0x10002C2E8, symSize: 0x214 }
  - { offset: 0x22B3A, size: 0x8, addend: 0x0, symName: __ZSt28__throw_bad_array_new_lengthB8ne180100v, symObjAddr: 0x6C38, symBinAddr: 0x10000A694, symSize: 0x34 }
  - { offset: 0x23E84, size: 0x8, addend: 0x0, symName: __ZNSt3__16vectorINS_7__stateIcEENS_9allocatorIS2_EEE26__swap_out_circular_bufferERNS_14__split_bufferIS2_RS4_EE, symObjAddr: 0x7BA8, symBinAddr: 0x10000B604, symSize: 0x110 }
  - { offset: 0x23F27, size: 0x8, addend: 0x0, symName: __ZNSt3__16vectorINS_9sub_matchIPKcEENS_9allocatorIS4_EEE26__swap_out_circular_bufferERNS_14__split_bufferIS4_RS6_EE, symObjAddr: 0x9480, symBinAddr: 0x10000CEDC, symSize: 0x110 }
  - { offset: 0x23FC6, size: 0x8, addend: 0x0, symName: __ZNSt3__16vectorINS_4pairImPKcEENS_9allocatorIS4_EEE26__swap_out_circular_bufferERNS_14__split_bufferIS4_RS6_EE, symObjAddr: 0xA698, symBinAddr: 0x10000E0F4, symSize: 0x110 }
  - { offset: 0x24119, size: 0x8, addend: 0x0, symName: __ZNSt3__16vectorIcNS_9allocatorIcEEE26__swap_out_circular_bufferERNS_14__split_bufferIcRS2_EE, symObjAddr: 0x13C38, symBinAddr: 0x100017694, symSize: 0x110 }
  - { offset: 0x24173, size: 0x8, addend: 0x0, symName: __ZNSt3__16vectorINS_12basic_stringIcNS_11char_traitsIcEENS_9allocatorIcEEEENS4_IS6_EEE26__swap_out_circular_bufferERNS_14__split_bufferIS6_RS7_EE, symObjAddr: 0x17BE4, symBinAddr: 0x10001B640, symSize: 0x110 }
  - { offset: 0x24212, size: 0x8, addend: 0x0, symName: __ZNSt3__16vectorINS_4pairINS_12basic_stringIcNS_11char_traitsIcEENS_9allocatorIcEEEES7_EENS5_IS8_EEE26__swap_out_circular_bufferERNS_14__split_bufferIS8_RS9_EE, symObjAddr: 0x19468, symBinAddr: 0x10001CEC4, symSize: 0x110 }
  - { offset: 0x242B1, size: 0x8, addend: 0x0, symName: __ZNSt3__16vectorINS_4pairIccEENS_9allocatorIS2_EEE26__swap_out_circular_bufferERNS_14__split_bufferIS2_RS4_EE, symObjAddr: 0x1A990, symBinAddr: 0x10001E3EC, symSize: 0x110 }
  - { offset: 0x24604, size: 0x8, addend: 0x0, symName: __ZNSt3__16vectorINS_9sub_matchINS_11__wrap_iterIPKcEEEENS_9allocatorIS6_EEE26__swap_out_circular_bufferERNS_14__split_bufferIS6_RS8_EE, symObjAddr: 0x264AC, symBinAddr: 0x100029F08, symSize: 0x110 }
  - { offset: 0x24842, size: 0x8, addend: 0x0, symName: __Z13FloatToBinaryf, symObjAddr: 0x0, symBinAddr: 0x100003A5C, symSize: 0x120 }
  - { offset: 0x248B0, size: 0x8, addend: 0x0, symName: __Z4Demov, symObjAddr: 0x120, symBinAddr: 0x100003B7C, symSize: 0x224 }
  - { offset: 0x24938, size: 0x8, addend: 0x0, symName: __ZNSt3__112basic_stringIcNS_11char_traitsIcEENS_9allocatorIcEEEC1B8ne180100ILi0EEEPKc, symObjAddr: 0x344, symBinAddr: 0x100003DA0, symSize: 0x34 }
  - { offset: 0x24977, size: 0x8, addend: 0x0, symName: __ZNSt3__111basic_regexIcNS_12regex_traitsIcEEEC1B8ne180100EPKcNS_15regex_constants18syntax_option_typeE, symObjAddr: 0x470, symBinAddr: 0x100003ECC, symSize: 0x3C }
  - { offset: 0x249C5, size: 0x8, addend: 0x0, symName: __ZNSt3__111basic_regexIcNS_12regex_traitsIcEEED1Ev, symObjAddr: 0x4AC, symBinAddr: 0x100003F08, symSize: 0x2C }
  - { offset: 0x249F2, size: 0x8, addend: 0x0, symName: __ZNSt3__113basic_ostreamIcNS_11char_traitsIcEEElsB8ne180100EPFRS3_S4_E, symObjAddr: 0x524, symBinAddr: 0x100003F80, symSize: 0x2C }
  - { offset: 0x24A25, size: 0x8, addend: 0x0, symName: __Z5DemoBv, symObjAddr: 0x5A8, symBinAddr: 0x100004004, symSize: 0x104 }
  - { offset: 0x24ACF, size: 0x8, addend: 0x0, symName: __ZNKSt9type_info4nameB8ne180100Ev, symObjAddr: 0x6F4, symBinAddr: 0x100004150, symSize: 0x24 }
  - { offset: 0x24B14, size: 0x8, addend: 0x0, symName: __Z9ArrayDemov, symObjAddr: 0x718, symBinAddr: 0x100004174, symSize: 0x154 }
  - { offset: 0x24B83, size: 0x8, addend: 0x0, symName: __ZNKSt3__15arrayIiLm5EE4sizeB8ne180100Ev, symObjAddr: 0x86C, symBinAddr: 0x1000042C8, symSize: 0x14 }
  - { offset: 0x24BA9, size: 0x8, addend: 0x0, symName: __ZNSt3__15arrayIiLm5EEixB8ne180100Em, symObjAddr: 0x880, symBinAddr: 0x1000042DC, symSize: 0x20 }
  - { offset: 0x24BDD, size: 0x8, addend: 0x0, symName: __ZNSt3__15arrayIiLm5EE5beginB8ne180100Ev, symObjAddr: 0x8A0, symBinAddr: 0x1000042FC, symSize: 0x24 }
  - { offset: 0x24C03, size: 0x8, addend: 0x0, symName: __ZNSt3__15arrayIiLm5EE3endB8ne180100Ev, symObjAddr: 0x8C4, symBinAddr: 0x100004320, symSize: 0x28 }
  - { offset: 0x24C28, size: 0x8, addend: 0x0, symName: __Z5DemoCv, symObjAddr: 0x8EC, symBinAddr: 0x100004348, symSize: 0x60 }
  - { offset: 0x24C7B, size: 0x8, addend: 0x0, symName: _main, symObjAddr: 0x94C, symBinAddr: 0x1000043A8, symSize: 0x34 }
  - { offset: 0x24CB2, size: 0x8, addend: 0x0, symName: __ZNSt3__111basic_regexIcNS_12regex_traitsIcEEED2Ev, symObjAddr: 0x980, symBinAddr: 0x1000043DC, symSize: 0x38 }
  - { offset: 0x24CDF, size: 0x8, addend: 0x0, symName: __ZNSt3__110shared_ptrINS_13__empty_stateIcEEED1B8ne180100Ev, symObjAddr: 0x9B8, symBinAddr: 0x100004414, symSize: 0x2C }
  - { offset: 0x24D09, size: 0x8, addend: 0x0, symName: __ZNSt3__112regex_traitsIcED1Ev, symObjAddr: 0x9E4, symBinAddr: 0x100004440, symSize: 0x2C }
  - { offset: 0x24D36, size: 0x8, addend: 0x0, symName: __ZNSt3__110shared_ptrINS_13__empty_stateIcEEED2B8ne180100Ev, symObjAddr: 0xA10, symBinAddr: 0x10000446C, symSize: 0x4C }
  - { offset: 0x24D60, size: 0x8, addend: 0x0, symName: __ZNSt3__119__shared_weak_count16__release_sharedB8ne180100Ev, symObjAddr: 0xA5C, symBinAddr: 0x1000044B8, symSize: 0x3C }
  - { offset: 0x24D86, size: 0x8, addend: 0x0, symName: __ZNSt3__114__shared_count16__release_sharedB8ne180100Ev, symObjAddr: 0xA98, symBinAddr: 0x1000044F4, symSize: 0x78 }
  - { offset: 0x24DAC, size: 0x8, addend: 0x0, symName: __ZNSt3__112regex_traitsIcED2Ev, symObjAddr: 0xB40, symBinAddr: 0x10000459C, symSize: 0x2C }
  - { offset: 0x24DD9, size: 0x8, addend: 0x0, symName: __ZNSt3__112basic_stringIcNS_11char_traitsIcEENS_9allocatorIcEEEC2B8ne180100ILi0EEEPKc, symObjAddr: 0xB6C, symBinAddr: 0x1000045C8, symSize: 0x58 }
  - { offset: 0x24E1E, size: 0x8, addend: 0x0, symName: __ZNSt3__117__compressed_pairINS_12basic_stringIcNS_11char_traitsIcEENS_9allocatorIcEEE5__repES5_EC1B8ne180100INS_18__default_init_tagESA_EEOT_OT0_, symObjAddr: 0xBC4, symBinAddr: 0x100004620, symSize: 0x3C }
  - { offset: 0x24E76, size: 0x8, addend: 0x0, symName: __ZNSt3__111char_traitsIcE6lengthB8ne180100EPKc, symObjAddr: 0xC00, symBinAddr: 0x10000465C, symSize: 0x34 }
  - { offset: 0x24E99, size: 0x8, addend: 0x0, symName: __ZNSt3__117__compressed_pairINS_12basic_stringIcNS_11char_traitsIcEENS_9allocatorIcEEE5__repES5_EC2B8ne180100INS_18__default_init_tagESA_EEOT_OT0_, symObjAddr: 0xC34, symBinAddr: 0x100004690, symSize: 0x3C }
  - { offset: 0x24EF1, size: 0x8, addend: 0x0, symName: __ZNSt3__122__compressed_pair_elemINS_12basic_stringIcNS_11char_traitsIcEENS_9allocatorIcEEE5__repELi0ELb0EEC2B8ne180100ENS_18__default_init_tagE, symObjAddr: 0xC70, symBinAddr: 0x1000046CC, symSize: 0x14 }
  - { offset: 0x24F25, size: 0x8, addend: 0x0, symName: __ZNSt3__122__compressed_pair_elemINS_9allocatorIcEELi1ELb1EEC2B8ne180100ENS_18__default_init_tagE, symObjAddr: 0xC84, symBinAddr: 0x1000046E0, symSize: 0x2C }
  - { offset: 0x24F59, size: 0x8, addend: 0x0, symName: __ZNSt3__19allocatorIcEC2B8ne180100Ev, symObjAddr: 0xCB0, symBinAddr: 0x10000470C, symSize: 0x2C }
  - { offset: 0x24F83, size: 0x8, addend: 0x0, symName: __ZNSt3__116__non_trivial_ifILb1ENS_9allocatorIcEEEC2B8ne180100Ev, symObjAddr: 0xCDC, symBinAddr: 0x100004738, symSize: 0x14 }
  - { offset: 0x24FAD, size: 0x8, addend: 0x0, symName: __ZNSt3__111basic_regexIcNS_12regex_traitsIcEEEC2B8ne180100EPKcNS_15regex_constants18syntax_option_typeE, symObjAddr: 0xD24, symBinAddr: 0x100004780, symSize: 0xC4 }
  - { offset: 0x24FF5, size: 0x8, addend: 0x0, symName: __ZNSt3__112regex_traitsIcEC1Ev, symObjAddr: 0xDE8, symBinAddr: 0x100004844, symSize: 0x2C }
  - { offset: 0x25021, size: 0x8, addend: 0x0, symName: __ZNSt3__110shared_ptrINS_13__empty_stateIcEEEC1B8ne180100Ev, symObjAddr: 0xE14, symBinAddr: 0x100004870, symSize: 0x2C }
  - { offset: 0x2504B, size: 0x8, addend: 0x0, symName: __ZNSt3__111basic_regexIcNS_12regex_traitsIcEEE6__initIPKcEEvT_S7_, symObjAddr: 0xE40, symBinAddr: 0x10000489C, symSize: 0x7C }
  - { offset: 0x250A7, size: 0x8, addend: 0x0, symName: __ZNSt3__112regex_traitsIcE6lengthB8ne180100EPKc, symObjAddr: 0xEBC, symBinAddr: 0x100004918, symSize: 0x24 }
  - { offset: 0x250CB, size: 0x8, addend: 0x0, symName: __ZNSt3__112regex_traitsIcEC2Ev, symObjAddr: 0xEE0, symBinAddr: 0x10000493C, symSize: 0x5C }
  - { offset: 0x250F7, size: 0x8, addend: 0x0, symName: __ZNSt3__112regex_traitsIcE6__initEv, symObjAddr: 0xF3C, symBinAddr: 0x100004998, symSize: 0x40 }
  - { offset: 0x2511F, size: 0x8, addend: 0x0, symName: __ZNSt3__110shared_ptrINS_13__empty_stateIcEEEC2B8ne180100Ev, symObjAddr: 0xFD4, symBinAddr: 0x100004A30, symSize: 0x1C }
  - { offset: 0x25149, size: 0x8, addend: 0x0, symName: __ZNSt3__111basic_regexIcNS_12regex_traitsIcEEE7__parseIPKcEET_S7_S7_, symObjAddr: 0x1044, symBinAddr: 0x100004AA0, symSize: 0x200 }
  - { offset: 0x251C2, size: 0x8, addend: 0x0, symName: __ZNSt3__111__end_stateIcEC1B8ne180100Ev, symObjAddr: 0x12C4, symBinAddr: 0x100004D20, symSize: 0x2C }
  - { offset: 0x2528D, size: 0x8, addend: 0x0, symName: __ZNSt3__110unique_ptrINS_6__nodeIcEENS_14default_deleteIS2_EEEC1B8ne180100ILb1EvEEPS2_, symObjAddr: 0x12F0, symBinAddr: 0x100004D4C, symSize: 0x34 }
  - { offset: 0x252D6, size: 0x8, addend: 0x0, symName: __ZNSt3__110shared_ptrINS_13__empty_stateIcEEE5resetB8ne180100IS2_vEEvPT_, symObjAddr: 0x1324, symBinAddr: 0x100004D80, symSize: 0x4C }
  - { offset: 0x25315, size: 0x8, addend: 0x0, symName: __ZNKSt3__110unique_ptrINS_6__nodeIcEENS_14default_deleteIS2_EEE3getB8ne180100Ev, symObjAddr: 0x1370, symBinAddr: 0x100004DCC, symSize: 0x28 }
  - { offset: 0x2533B, size: 0x8, addend: 0x0, symName: __ZNSt3__113__empty_stateIcEC1B8ne180100EPNS_6__nodeIcEE, symObjAddr: 0x1398, symBinAddr: 0x100004DF4, symSize: 0x34 }
  - { offset: 0x25374, size: 0x8, addend: 0x0, symName: __ZNSt3__110unique_ptrINS_6__nodeIcEENS_14default_deleteIS2_EEE7releaseB8ne180100Ev, symObjAddr: 0x13CC, symBinAddr: 0x100004E28, symSize: 0x44 }
  - { offset: 0x253A9, size: 0x8, addend: 0x0, symName: __ZNKSt3__110shared_ptrINS_13__empty_stateIcEEE3getB8ne180100Ev, symObjAddr: 0x1410, symBinAddr: 0x100004E6C, symSize: 0x18 }
  - { offset: 0x253CF, size: 0x8, addend: 0x0, symName: __ZNSt3__110unique_ptrINS_6__nodeIcEENS_14default_deleteIS2_EEED1B8ne180100Ev, symObjAddr: 0x1428, symBinAddr: 0x100004E84, symSize: 0x2C }
  - { offset: 0x253F9, size: 0x8, addend: 0x0, symName: __ZNSt3__111basic_regexIcNS_12regex_traitsIcEEE16__parse_ecma_expIPKcEET_S7_S7_, symObjAddr: 0x1454, symBinAddr: 0x100004EB0, symSize: 0x118 }
  - { offset: 0x25481, size: 0x8, addend: 0x0, symName: __ZNSt3__111basic_regexIcNS_12regex_traitsIcEEE21__parse_basic_reg_expIPKcEET_S7_S7_, symObjAddr: 0x156C, symBinAddr: 0x100004FC8, symSize: 0x120 }
  - { offset: 0x254EB, size: 0x8, addend: 0x0, symName: __ZNSt3__111basic_regexIcNS_12regex_traitsIcEEE24__parse_extended_reg_expIPKcEET_S7_S7_, symObjAddr: 0x168C, symBinAddr: 0x1000050E8, symSize: 0x108 }
  - { offset: 0x25573, size: 0x8, addend: 0x0, symName: __ZNSt3__111basic_regexIcNS_12regex_traitsIcEEE12__parse_grepIPKcEET_S7_S7_, symObjAddr: 0x1794, symBinAddr: 0x1000051F0, symSize: 0x168 }
  - { offset: 0x255FB, size: 0x8, addend: 0x0, symName: __ZNSt3__111basic_regexIcNS_12regex_traitsIcEEE13__parse_egrepIPKcEET_S7_S7_, symObjAddr: 0x18FC, symBinAddr: 0x100005358, symSize: 0x168 }
  - { offset: 0x25683, size: 0x8, addend: 0x0, symName: __ZNSt3__111__end_stateIcEC2B8ne180100Ev, symObjAddr: 0x1AC4, symBinAddr: 0x100005520, symSize: 0x3C }
  - { offset: 0x256AD, size: 0x8, addend: 0x0, symName: __ZNSt3__16__nodeIcEC2B8ne180100Ev, symObjAddr: 0x1B00, symBinAddr: 0x10000555C, symSize: 0x24 }
  - { offset: 0x256D7, size: 0x8, addend: 0x0, symName: __ZNSt3__111__end_stateIcED1Ev, symObjAddr: 0x1B24, symBinAddr: 0x100005580, symSize: 0x2C }
  - { offset: 0x25704, size: 0x8, addend: 0x0, symName: __ZNSt3__111__end_stateIcED0Ev, symObjAddr: 0x1B50, symBinAddr: 0x1000055AC, symSize: 0x30 }
  - { offset: 0x25731, size: 0x8, addend: 0x0, symName: __ZNKSt3__111__end_stateIcE6__execERNS_7__stateIcEE, symObjAddr: 0x1B80, symBinAddr: 0x1000055DC, symSize: 0x20 }
  - { offset: 0x25766, size: 0x8, addend: 0x0, symName: __ZNKSt3__16__nodeIcE12__exec_splitEbRNS_7__stateIcEE, symObjAddr: 0x1BA0, symBinAddr: 0x1000055FC, symSize: 0x18 }
  - { offset: 0x257A2, size: 0x8, addend: 0x0, symName: __ZNSt3__16__nodeIcED1Ev, symObjAddr: 0x1BB8, symBinAddr: 0x100005614, symSize: 0x2C }
  - { offset: 0x257CC, size: 0x8, addend: 0x0, symName: __ZNSt3__16__nodeIcED0Ev, symObjAddr: 0x1BE4, symBinAddr: 0x100005640, symSize: 0x30 }
  - { offset: 0x257F6, size: 0x8, addend: 0x0, symName: __ZNKSt3__16__nodeIcE6__execERNS_7__stateIcEE, symObjAddr: 0x1C14, symBinAddr: 0x100005670, symSize: 0x14 }
  - { offset: 0x25827, size: 0x8, addend: 0x0, symName: __ZNSt3__16__nodeIcED2Ev, symObjAddr: 0x1C28, symBinAddr: 0x100005684, symSize: 0x14 }
  - { offset: 0x25851, size: 0x8, addend: 0x0, symName: __ZNSt3__111__end_stateIcED2Ev, symObjAddr: 0x1C3C, symBinAddr: 0x100005698, symSize: 0x2C }
  - { offset: 0x2587E, size: 0x8, addend: 0x0, symName: __ZNSt3__110unique_ptrINS_6__nodeIcEENS_14default_deleteIS2_EEEC2B8ne180100ILb1EvEEPS2_, symObjAddr: 0x1C68, symBinAddr: 0x1000056C4, symSize: 0x44 }
  - { offset: 0x258C7, size: 0x8, addend: 0x0, symName: __ZNSt3__117__compressed_pairIPNS_6__nodeIcEENS_14default_deleteIS2_EEEC1B8ne180100IRS3_NS_16__value_init_tagEEEOT_OT0_, symObjAddr: 0x1CAC, symBinAddr: 0x100005708, symSize: 0x3C }
  - { offset: 0x2591F, size: 0x8, addend: 0x0, symName: __ZNSt3__117__compressed_pairIPNS_6__nodeIcEENS_14default_deleteIS2_EEEC2B8ne180100IRS3_NS_16__value_init_tagEEEOT_OT0_, symObjAddr: 0x1CE8, symBinAddr: 0x100005744, symSize: 0x40 }
  - { offset: 0x25977, size: 0x8, addend: 0x0, symName: __ZNSt3__122__compressed_pair_elemIPNS_6__nodeIcEELi0ELb0EEC2B8ne180100IRS3_vEEOT_, symObjAddr: 0x1D28, symBinAddr: 0x100005784, symSize: 0x24 }
  - { offset: 0x259B9, size: 0x8, addend: 0x0, symName: __ZNSt3__122__compressed_pair_elemINS_14default_deleteINS_6__nodeIcEEEELi1ELb1EEC2B8ne180100ENS_16__value_init_tagE, symObjAddr: 0x1D4C, symBinAddr: 0x1000057A8, symSize: 0x14 }
  - { offset: 0x259ED, size: 0x8, addend: 0x0, symName: __ZNSt3__110shared_ptrINS_13__empty_stateIcEEEC1B8ne180100IS2_vEEPT_, symObjAddr: 0x1D60, symBinAddr: 0x1000057BC, symSize: 0x34 }
  - { offset: 0x25A30, size: 0x8, addend: 0x0, symName: __ZNSt3__110shared_ptrINS_13__empty_stateIcEEE4swapB8ne180100ERS3_, symObjAddr: 0x1D94, symBinAddr: 0x1000057F0, symSize: 0x44 }
  - { offset: 0x25A65, size: 0x8, addend: 0x0, symName: __ZNSt3__110shared_ptrINS_13__empty_stateIcEEEC2B8ne180100IS2_vEEPT_, symObjAddr: 0x1DD8, symBinAddr: 0x100005834, symSize: 0xEC }
  - { offset: 0x25B64, size: 0x8, addend: 0x0, symName: __ZNSt3__110unique_ptrINS_13__empty_stateIcEENS_14default_deleteIS2_EEEC1B8ne180100ILb1EvEEPS2_, symObjAddr: 0x1EC4, symBinAddr: 0x100005920, symSize: 0x34 }
  - { offset: 0x25BCA, size: 0x8, addend: 0x0, symName: __ZNSt3__19allocatorINS_13__empty_stateIcEEEC1B8ne180100Ev, symObjAddr: 0x1EF8, symBinAddr: 0x100005954, symSize: 0x2C }
  - { offset: 0x25CA7, size: 0x8, addend: 0x0, symName: __ZNSt3__120__shared_ptr_pointerIPNS_13__empty_stateIcEENS_10shared_ptrIS2_E27__shared_ptr_default_deleteIS2_S2_EENS_9allocatorIS2_EEEC1B8ne180100ES3_S7_S9_, symObjAddr: 0x1F24, symBinAddr: 0x100005980, symSize: 0x34 }
  - { offset: 0x25CFB, size: 0x8, addend: 0x0, symName: __ZNSt3__110unique_ptrINS_13__empty_stateIcEENS_14default_deleteIS2_EEE7releaseB8ne180100Ev, symObjAddr: 0x1F58, symBinAddr: 0x1000059B4, symSize: 0x44 }
  - { offset: 0x25D30, size: 0x8, addend: 0x0, symName: __ZNSt3__110shared_ptrINS_13__empty_stateIcEEE18__enable_weak_thisB8ne180100Ez, symObjAddr: 0x1F9C, symBinAddr: 0x1000059F8, symSize: 0x10 }
  - { offset: 0x25D57, size: 0x8, addend: 0x0, symName: __ZNSt3__110unique_ptrINS_13__empty_stateIcEENS_14default_deleteIS2_EEED1B8ne180100Ev, symObjAddr: 0x1FAC, symBinAddr: 0x100005A08, symSize: 0x2C }
  - { offset: 0x25D81, size: 0x8, addend: 0x0, symName: __ZNSt3__110unique_ptrINS_13__empty_stateIcEENS_14default_deleteIS2_EEEC2B8ne180100ILb1EvEEPS2_, symObjAddr: 0x1FD8, symBinAddr: 0x100005A34, symSize: 0x44 }
  - { offset: 0x25DC4, size: 0x8, addend: 0x0, symName: __ZNSt3__117__compressed_pairIPNS_13__empty_stateIcEENS_14default_deleteIS2_EEEC1B8ne180100IRS3_NS_16__value_init_tagEEEOT_OT0_, symObjAddr: 0x201C, symBinAddr: 0x100005A78, symSize: 0x3C }
  - { offset: 0x25E1C, size: 0x8, addend: 0x0, symName: __ZNSt3__117__compressed_pairIPNS_13__empty_stateIcEENS_14default_deleteIS2_EEEC2B8ne180100IRS3_NS_16__value_init_tagEEEOT_OT0_, symObjAddr: 0x2058, symBinAddr: 0x100005AB4, symSize: 0x40 }
  - { offset: 0x25E74, size: 0x8, addend: 0x0, symName: __ZNSt3__122__compressed_pair_elemIPNS_13__empty_stateIcEELi0ELb0EEC2B8ne180100IRS3_vEEOT_, symObjAddr: 0x2098, symBinAddr: 0x100005AF4, symSize: 0x24 }
  - { offset: 0x25EB6, size: 0x8, addend: 0x0, symName: __ZNSt3__122__compressed_pair_elemINS_14default_deleteINS_13__empty_stateIcEEEELi1ELb1EEC2B8ne180100ENS_16__value_init_tagE, symObjAddr: 0x20BC, symBinAddr: 0x100005B18, symSize: 0x14 }
  - { offset: 0x25EEA, size: 0x8, addend: 0x0, symName: __ZNSt3__19allocatorINS_13__empty_stateIcEEEC2B8ne180100Ev, symObjAddr: 0x20D0, symBinAddr: 0x100005B2C, symSize: 0x2C }
  - { offset: 0x25F14, size: 0x8, addend: 0x0, symName: __ZNSt3__116__non_trivial_ifILb1ENS_9allocatorINS_13__empty_stateIcEEEEEC2B8ne180100Ev, symObjAddr: 0x20FC, symBinAddr: 0x100005B58, symSize: 0x14 }
  - { offset: 0x25F3E, size: 0x8, addend: 0x0, symName: __ZNSt3__120__shared_ptr_pointerIPNS_13__empty_stateIcEENS_10shared_ptrIS2_E27__shared_ptr_default_deleteIS2_S2_EENS_9allocatorIS2_EEEC2B8ne180100ES3_S7_S9_, symObjAddr: 0x2110, symBinAddr: 0x100005B6C, symSize: 0xA0 }
  - { offset: 0x25F92, size: 0x8, addend: 0x0, symName: __ZNSt3__119__shared_weak_countC2B8ne180100El, symObjAddr: 0x21B0, symBinAddr: 0x100005C0C, symSize: 0x4C }
  - { offset: 0x25FD0, size: 0x8, addend: 0x0, symName: __ZNSt3__117__compressed_pairIPNS_13__empty_stateIcEENS_10shared_ptrIS2_E27__shared_ptr_default_deleteIS2_S2_EEEC1B8ne180100IRS3_S7_EEOT_OT0_, symObjAddr: 0x21FC, symBinAddr: 0x100005C58, symSize: 0x3C }
  - { offset: 0x26034, size: 0x8, addend: 0x0, symName: __ZNSt3__117__compressed_pairINS0_IPNS_13__empty_stateIcEENS_10shared_ptrIS2_E27__shared_ptr_default_deleteIS2_S2_EEEENS_9allocatorIS2_EEEC1B8ne180100IS8_SA_EEOT_OT0_, symObjAddr: 0x2238, symBinAddr: 0x100005C94, symSize: 0x3C }
  - { offset: 0x2608C, size: 0x8, addend: 0x0, symName: __ZNSt3__120__shared_ptr_pointerIPNS_13__empty_stateIcEENS_10shared_ptrIS2_E27__shared_ptr_default_deleteIS2_S2_EENS_9allocatorIS2_EEED1Ev, symObjAddr: 0x2274, symBinAddr: 0x100005CD0, symSize: 0x2C }
  - { offset: 0x260B8, size: 0x8, addend: 0x0, symName: __ZNSt3__120__shared_ptr_pointerIPNS_13__empty_stateIcEENS_10shared_ptrIS2_E27__shared_ptr_default_deleteIS2_S2_EENS_9allocatorIS2_EEED0Ev, symObjAddr: 0x22A0, symBinAddr: 0x100005CFC, symSize: 0x30 }
  - { offset: 0x260E4, size: 0x8, addend: 0x0, symName: __ZNSt3__120__shared_ptr_pointerIPNS_13__empty_stateIcEENS_10shared_ptrIS2_E27__shared_ptr_default_deleteIS2_S2_EENS_9allocatorIS2_EEE16__on_zero_sharedEv, symObjAddr: 0x22D0, symBinAddr: 0x100005D2C, symSize: 0x64 }
  - { offset: 0x2610A, size: 0x8, addend: 0x0, symName: __ZNKSt3__120__shared_ptr_pointerIPNS_13__empty_stateIcEENS_10shared_ptrIS2_E27__shared_ptr_default_deleteIS2_S2_EENS_9allocatorIS2_EEE13__get_deleterERKSt9type_info, symObjAddr: 0x2334, symBinAddr: 0x100005D90, symSize: 0x68 }
  - { offset: 0x2613E, size: 0x8, addend: 0x0, symName: __ZNSt3__120__shared_ptr_pointerIPNS_13__empty_stateIcEENS_10shared_ptrIS2_E27__shared_ptr_default_deleteIS2_S2_EENS_9allocatorIS2_EEE21__on_zero_shared_weakEv, symObjAddr: 0x239C, symBinAddr: 0x100005DF8, symSize: 0x60 }
  - { offset: 0x2617D, size: 0x8, addend: 0x0, symName: __ZNSt3__114__shared_countC2B8ne180100El, symObjAddr: 0x23FC, symBinAddr: 0x100005E58, symSize: 0x30 }
  - { offset: 0x261B5, size: 0x8, addend: 0x0, symName: __ZNSt3__117__compressed_pairIPNS_13__empty_stateIcEENS_10shared_ptrIS2_E27__shared_ptr_default_deleteIS2_S2_EEEC2B8ne180100IRS3_S7_EEOT_OT0_, symObjAddr: 0x242C, symBinAddr: 0x100005E88, symSize: 0x44 }
  - { offset: 0x2620D, size: 0x8, addend: 0x0, symName: __ZNSt3__122__compressed_pair_elemINS_10shared_ptrINS_13__empty_stateIcEEE27__shared_ptr_default_deleteIS3_S3_EELi1ELb1EEC2B8ne180100IS6_vEEOT_, symObjAddr: 0x2470, symBinAddr: 0x100005ECC, symSize: 0x18 }
  - { offset: 0x2624F, size: 0x8, addend: 0x0, symName: __ZNSt3__117__compressed_pairINS0_IPNS_13__empty_stateIcEENS_10shared_ptrIS2_E27__shared_ptr_default_deleteIS2_S2_EEEENS_9allocatorIS2_EEEC2B8ne180100IS8_SA_EEOT_OT0_, symObjAddr: 0x2488, symBinAddr: 0x100005EE4, symSize: 0x44 }
  - { offset: 0x262A7, size: 0x8, addend: 0x0, symName: __ZNSt3__122__compressed_pair_elemINS_17__compressed_pairIPNS_13__empty_stateIcEENS_10shared_ptrIS3_E27__shared_ptr_default_deleteIS3_S3_EEEELi0ELb0EEC2B8ne180100IS9_vEEOT_, symObjAddr: 0x24CC, symBinAddr: 0x100005F28, symSize: 0x24 }
  - { offset: 0x262E9, size: 0x8, addend: 0x0, symName: __ZNSt3__122__compressed_pair_elemINS_9allocatorINS_13__empty_stateIcEEEELi1ELb1EEC2B8ne180100IS4_vEEOT_, symObjAddr: 0x24F0, symBinAddr: 0x100005F4C, symSize: 0x18 }
  - { offset: 0x2632B, size: 0x8, addend: 0x0, symName: __ZNSt3__120__shared_ptr_pointerIPNS_13__empty_stateIcEENS_10shared_ptrIS2_E27__shared_ptr_default_deleteIS2_S2_EENS_9allocatorIS2_EEED2Ev, symObjAddr: 0x2508, symBinAddr: 0x100005F64, symSize: 0x2C }
  - { offset: 0x26357, size: 0x8, addend: 0x0, symName: __ZNSt3__117__compressed_pairINS0_IPNS_13__empty_stateIcEENS_10shared_ptrIS2_E27__shared_ptr_default_deleteIS2_S2_EEEENS_9allocatorIS2_EEE5firstB8ne180100Ev, symObjAddr: 0x2534, symBinAddr: 0x100005F90, symSize: 0x24 }
  - { offset: 0x2637D, size: 0x8, addend: 0x0, symName: __ZNSt3__117__compressed_pairIPNS_13__empty_stateIcEENS_10shared_ptrIS2_E27__shared_ptr_default_deleteIS2_S2_EEE6secondB8ne180100Ev, symObjAddr: 0x2558, symBinAddr: 0x100005FB4, symSize: 0x24 }
  - { offset: 0x263A3, size: 0x8, addend: 0x0, symName: __ZNKSt3__114default_deleteINS_13__empty_stateIcEEEclB8ne180100EPS2_, symObjAddr: 0x257C, symBinAddr: 0x100005FD8, symSize: 0x44 }
  - { offset: 0x263D7, size: 0x8, addend: 0x0, symName: __ZNSt3__117__compressed_pairIPNS_13__empty_stateIcEENS_10shared_ptrIS2_E27__shared_ptr_default_deleteIS2_S2_EEE5firstB8ne180100Ev, symObjAddr: 0x25C0, symBinAddr: 0x10000601C, symSize: 0x24 }
  - { offset: 0x263FD, size: 0x8, addend: 0x0, symName: __ZNSt3__122__compressed_pair_elemINS_17__compressed_pairIPNS_13__empty_stateIcEENS_10shared_ptrIS3_E27__shared_ptr_default_deleteIS3_S3_EEEELi0ELb0EE5__getB8ne180100Ev, symObjAddr: 0x25E4, symBinAddr: 0x100006040, symSize: 0x14 }
  - { offset: 0x26423, size: 0x8, addend: 0x0, symName: __ZNSt3__122__compressed_pair_elemINS_10shared_ptrINS_13__empty_stateIcEEE27__shared_ptr_default_deleteIS3_S3_EELi1ELb1EE5__getB8ne180100Ev, symObjAddr: 0x25F8, symBinAddr: 0x100006054, symSize: 0x14 }
  - { offset: 0x26449, size: 0x8, addend: 0x0, symName: __ZNSt3__122__compressed_pair_elemIPNS_13__empty_stateIcEELi0ELb0EE5__getB8ne180100Ev, symObjAddr: 0x260C, symBinAddr: 0x100006068, symSize: 0x14 }
  - { offset: 0x2648F, size: 0x8, addend: 0x0, symName: __ZNKSt9type_infoeqB8ne180100ERKS_, symObjAddr: 0x2620, symBinAddr: 0x10000607C, symSize: 0xD4 }
  - { offset: 0x2652B, size: 0x8, addend: 0x0, symName: __ZNKSt3__117__compressed_pairINS0_IPNS_13__empty_stateIcEENS_10shared_ptrIS2_E27__shared_ptr_default_deleteIS2_S2_EEEENS_9allocatorIS2_EEE5firstB8ne180100Ev, symObjAddr: 0x26F4, symBinAddr: 0x100006150, symSize: 0x24 }
  - { offset: 0x26551, size: 0x8, addend: 0x0, symName: __ZNKSt3__117__compressed_pairIPNS_13__empty_stateIcEENS_10shared_ptrIS2_E27__shared_ptr_default_deleteIS2_S2_EEE6secondB8ne180100Ev, symObjAddr: 0x2718, symBinAddr: 0x100006174, symSize: 0x24 }
  - { offset: 0x26577, size: 0x8, addend: 0x0, symName: __ZNSt27__type_info_implementations30__non_unique_arm_rtti_bit_impl21__is_type_name_uniqueB8ne180100Em, symObjAddr: 0x273C, symBinAddr: 0x100006198, symSize: 0x1C }
  - { offset: 0x2659B, size: 0x8, addend: 0x0, symName: __ZNKSt3__122__compressed_pair_elemINS_17__compressed_pairIPNS_13__empty_stateIcEENS_10shared_ptrIS3_E27__shared_ptr_default_deleteIS3_S3_EEEELi0ELb0EE5__getB8ne180100Ev, symObjAddr: 0x2758, symBinAddr: 0x1000061B4, symSize: 0x14 }
  - { offset: 0x265C1, size: 0x8, addend: 0x0, symName: __ZNKSt3__122__compressed_pair_elemINS_10shared_ptrINS_13__empty_stateIcEEE27__shared_ptr_default_deleteIS3_S3_EELi1ELb1EE5__getB8ne180100Ev, symObjAddr: 0x276C, symBinAddr: 0x1000061C8, symSize: 0x14 }
  - { offset: 0x265E7, size: 0x8, addend: 0x0, symName: __ZNSt3__117__compressed_pairINS0_IPNS_13__empty_stateIcEENS_10shared_ptrIS2_E27__shared_ptr_default_deleteIS2_S2_EEEENS_9allocatorIS2_EEE6secondB8ne180100Ev, symObjAddr: 0x2780, symBinAddr: 0x1000061DC, symSize: 0x24 }
  - { offset: 0x2663C, size: 0x8, addend: 0x0, symName: __ZNSt3__19allocatorINS_20__shared_ptr_pointerIPNS_13__empty_stateIcEENS_10shared_ptrIS3_E27__shared_ptr_default_deleteIS3_S3_EENS0_IS3_EEEEEC1B8ne180100IS3_EERKNS0_IT_EE, symObjAddr: 0x27A4, symBinAddr: 0x100006200, symSize: 0x34 }
  - { offset: 0x26679, size: 0x8, addend: 0x0, symName: __ZNSt3__19allocatorINS_20__shared_ptr_pointerIPNS_13__empty_stateIcEENS_10shared_ptrIS3_E27__shared_ptr_default_deleteIS3_S3_EENS0_IS3_EEEEE10deallocateB8ne180100EPSA_m, symObjAddr: 0x27D8, symBinAddr: 0x100006234, symSize: 0x40 }
  - { offset: 0x266BB, size: 0x8, addend: 0x0, symName: __ZNSt3__114pointer_traitsIPNS_20__shared_ptr_pointerIPNS_13__empty_stateIcEENS_10shared_ptrIS3_E27__shared_ptr_default_deleteIS3_S3_EENS_9allocatorIS3_EEEEE10pointer_toB8ne180100ERSB_, symObjAddr: 0x2818, symBinAddr: 0x100006274, symSize: 0x14 }
  - { offset: 0x266DE, size: 0x8, addend: 0x0, symName: __ZNSt3__122__compressed_pair_elemINS_9allocatorINS_13__empty_stateIcEEEELi1ELb1EE5__getB8ne180100Ev, symObjAddr: 0x282C, symBinAddr: 0x100006288, symSize: 0x14 }
  - { offset: 0x26704, size: 0x8, addend: 0x0, symName: __ZNSt3__19allocatorINS_20__shared_ptr_pointerIPNS_13__empty_stateIcEENS_10shared_ptrIS3_E27__shared_ptr_default_deleteIS3_S3_EENS0_IS3_EEEEEC2B8ne180100IS3_EERKNS0_IT_EE, symObjAddr: 0x2840, symBinAddr: 0x10000629C, symSize: 0x30 }
  - { offset: 0x26741, size: 0x8, addend: 0x0, symName: __ZNSt3__116__non_trivial_ifILb1ENS_9allocatorINS_20__shared_ptr_pointerIPNS_13__empty_stateIcEENS_10shared_ptrIS4_E27__shared_ptr_default_deleteIS4_S4_EENS1_IS4_EEEEEEEC2B8ne180100Ev, symObjAddr: 0x2870, symBinAddr: 0x1000062CC, symSize: 0x14 }
  - { offset: 0x2676B, size: 0x8, addend: 0x0, symName: __ZNSt3__117__compressed_pairIPNS_13__empty_stateIcEENS_14default_deleteIS2_EEE5firstB8ne180100Ev, symObjAddr: 0x2900, symBinAddr: 0x10000635C, symSize: 0x24 }
  - { offset: 0x26791, size: 0x8, addend: 0x0, symName: __ZNSt3__110unique_ptrINS_13__empty_stateIcEENS_14default_deleteIS2_EEED2B8ne180100Ev, symObjAddr: 0x2924, symBinAddr: 0x100006380, symSize: 0x30 }
  - { offset: 0x267BB, size: 0x8, addend: 0x0, symName: __ZNSt3__110unique_ptrINS_13__empty_stateIcEENS_14default_deleteIS2_EEE5resetB8ne180100EPS2_, symObjAddr: 0x2954, symBinAddr: 0x1000063B0, symSize: 0x70 }
  - { offset: 0x267FF, size: 0x8, addend: 0x0, symName: __ZNSt3__117__compressed_pairIPNS_13__empty_stateIcEENS_14default_deleteIS2_EEE6secondB8ne180100Ev, symObjAddr: 0x29C4, symBinAddr: 0x100006420, symSize: 0x24 }
  - { offset: 0x26825, size: 0x8, addend: 0x0, symName: __ZNSt3__122__compressed_pair_elemINS_14default_deleteINS_13__empty_stateIcEEEELi1ELb1EE5__getB8ne180100Ev, symObjAddr: 0x29E8, symBinAddr: 0x100006444, symSize: 0x14 }
  - { offset: 0x2684B, size: 0x8, addend: 0x0, symName: __ZNKSt3__117__compressed_pairIPNS_6__nodeIcEENS_14default_deleteIS2_EEE5firstB8ne180100Ev, symObjAddr: 0x2A74, symBinAddr: 0x1000064D0, symSize: 0x24 }
  - { offset: 0x26871, size: 0x8, addend: 0x0, symName: __ZNKSt3__122__compressed_pair_elemIPNS_6__nodeIcEELi0ELb0EE5__getB8ne180100Ev, symObjAddr: 0x2A98, symBinAddr: 0x1000064F4, symSize: 0x14 }
  - { offset: 0x26897, size: 0x8, addend: 0x0, symName: __ZNSt3__113__empty_stateIcEC2B8ne180100EPNS_6__nodeIcEE, symObjAddr: 0x2AAC, symBinAddr: 0x100006508, symSize: 0x44 }
  - { offset: 0x268D0, size: 0x8, addend: 0x0, symName: __ZNSt3__116__owns_one_stateIcEC2B8ne180100EPNS_6__nodeIcEE, symObjAddr: 0x2AF0, symBinAddr: 0x10000654C, symSize: 0x44 }
  - { offset: 0x26909, size: 0x8, addend: 0x0, symName: __ZNSt3__113__empty_stateIcED1Ev, symObjAddr: 0x2B34, symBinAddr: 0x100006590, symSize: 0x2C }
  - { offset: 0x26936, size: 0x8, addend: 0x0, symName: __ZNSt3__113__empty_stateIcED0Ev, symObjAddr: 0x2B60, symBinAddr: 0x1000065BC, symSize: 0x30 }
  - { offset: 0x26963, size: 0x8, addend: 0x0, symName: __ZNKSt3__113__empty_stateIcE6__execERNS_7__stateIcEE, symObjAddr: 0x2B90, symBinAddr: 0x1000065EC, symSize: 0x3C }
  - { offset: 0x2699A, size: 0x8, addend: 0x0, symName: __ZNSt3__115__has_one_stateIcEC2B8ne180100EPNS_6__nodeIcEE, symObjAddr: 0x2BCC, symBinAddr: 0x100006628, symSize: 0x48 }
  - { offset: 0x269D3, size: 0x8, addend: 0x0, symName: __ZNSt3__116__owns_one_stateIcED1Ev, symObjAddr: 0x2C14, symBinAddr: 0x100006670, symSize: 0x2C }
  - { offset: 0x269FF, size: 0x8, addend: 0x0, symName: __ZNSt3__116__owns_one_stateIcED0Ev, symObjAddr: 0x2C40, symBinAddr: 0x10000669C, symSize: 0x30 }
  - { offset: 0x26A2B, size: 0x8, addend: 0x0, symName: __ZNSt3__115__has_one_stateIcED1Ev, symObjAddr: 0x2C70, symBinAddr: 0x1000066CC, symSize: 0x2C }
  - { offset: 0x26A58, size: 0x8, addend: 0x0, symName: __ZNSt3__115__has_one_stateIcED0Ev, symObjAddr: 0x2C9C, symBinAddr: 0x1000066F8, symSize: 0x30 }
  - { offset: 0x26A85, size: 0x8, addend: 0x0, symName: __ZNSt3__115__has_one_stateIcED2Ev, symObjAddr: 0x2CCC, symBinAddr: 0x100006728, symSize: 0x2C }
  - { offset: 0x26AB2, size: 0x8, addend: 0x0, symName: __ZNSt3__116__owns_one_stateIcED2Ev, symObjAddr: 0x2CF8, symBinAddr: 0x100006754, symSize: 0x80 }
  - { offset: 0x26ADE, size: 0x8, addend: 0x0, symName: __ZNSt3__115__has_one_stateIcE5firstB8ne180100Ev, symObjAddr: 0x2D78, symBinAddr: 0x1000067D4, symSize: 0x18 }
  - { offset: 0x26B04, size: 0x8, addend: 0x0, symName: __ZNSt3__113__empty_stateIcED2Ev, symObjAddr: 0x2D90, symBinAddr: 0x1000067EC, symSize: 0x2C }
  - { offset: 0x26B31, size: 0x8, addend: 0x0, symName: __ZNKSt3__115__has_one_stateIcE5firstB8ne180100Ev, symObjAddr: 0x2DBC, symBinAddr: 0x100006818, symSize: 0x18 }
  - { offset: 0x26B57, size: 0x8, addend: 0x0, symName: __ZNSt3__117__compressed_pairIPNS_6__nodeIcEENS_14default_deleteIS2_EEE5firstB8ne180100Ev, symObjAddr: 0x2DD4, symBinAddr: 0x100006830, symSize: 0x24 }
  - { offset: 0x26B7D, size: 0x8, addend: 0x0, symName: __ZNSt3__122__compressed_pair_elemIPNS_6__nodeIcEELi0ELb0EE5__getB8ne180100Ev, symObjAddr: 0x2DF8, symBinAddr: 0x100006854, symSize: 0x14 }
  - { offset: 0x26BA3, size: 0x8, addend: 0x0, symName: __ZNSt3__110unique_ptrINS_6__nodeIcEENS_14default_deleteIS2_EEED2B8ne180100Ev, symObjAddr: 0x2E0C, symBinAddr: 0x100006868, symSize: 0x30 }
  - { offset: 0x26BCD, size: 0x8, addend: 0x0, symName: __ZNSt3__110unique_ptrINS_6__nodeIcEENS_14default_deleteIS2_EEE5resetB8ne180100EPS2_, symObjAddr: 0x2E3C, symBinAddr: 0x100006898, symSize: 0x70 }
  - { offset: 0x26C11, size: 0x8, addend: 0x0, symName: __ZNSt3__117__compressed_pairIPNS_6__nodeIcEENS_14default_deleteIS2_EEE6secondB8ne180100Ev, symObjAddr: 0x2EAC, symBinAddr: 0x100006908, symSize: 0x24 }
  - { offset: 0x26C37, size: 0x8, addend: 0x0, symName: __ZNKSt3__114default_deleteINS_6__nodeIcEEEclB8ne180100EPS2_, symObjAddr: 0x2ED0, symBinAddr: 0x10000692C, symSize: 0x44 }
  - { offset: 0x26C6B, size: 0x8, addend: 0x0, symName: __ZNSt3__122__compressed_pair_elemINS_14default_deleteINS_6__nodeIcEEEELi1ELb1EE5__getB8ne180100Ev, symObjAddr: 0x2F14, symBinAddr: 0x100006970, symSize: 0x14 }
  - { offset: 0x26C91, size: 0x8, addend: 0x0, symName: __ZNSt3__111basic_regexIcNS_12regex_traitsIcEEE19__parse_alternativeIPKcEET_S7_S7_, symObjAddr: 0x2F28, symBinAddr: 0x100006984, symSize: 0x6C }
  - { offset: 0x26CFB, size: 0x8, addend: 0x0, symName: __ZNSt3__111basic_regexIcNS_12regex_traitsIcEEE12__push_emptyEv, symObjAddr: 0x2F94, symBinAddr: 0x1000069F0, symSize: 0xA0 }
  - { offset: 0x26D23, size: 0x8, addend: 0x0, symName: __ZNSt3__111basic_regexIcNS_12regex_traitsIcEEE18__push_alternationEPNS_16__owns_one_stateIcEES6_, symObjAddr: 0x3034, symBinAddr: 0x100006A90, symSize: 0x17C }
  - { offset: 0x26D69, size: 0x8, addend: 0x0, symName: __ZNSt3__111basic_regexIcNS_12regex_traitsIcEEE12__parse_termIPKcEET_S7_S7_, symObjAddr: 0x31B0, symBinAddr: 0x100006C0C, symSize: 0xC8 }
  - { offset: 0x26DF1, size: 0x8, addend: 0x0, symName: __ZNSt3__111basic_regexIcNS_12regex_traitsIcEEE17__parse_assertionIPKcEET_S7_S7_, symObjAddr: 0x3278, symBinAddr: 0x100006CD4, symSize: 0x440 }
  - { offset: 0x26EBC, size: 0x8, addend: 0x0, symName: __ZNSt3__111basic_regexIcNS_12regex_traitsIcEEE12__parse_atomIPKcEET_S7_S7_, symObjAddr: 0x36B8, symBinAddr: 0x100007114, symSize: 0x29C }
  - { offset: 0x26F43, size: 0x8, addend: 0x0, symName: __ZNSt3__111basic_regexIcNS_12regex_traitsIcEEE23__parse_ERE_dupl_symbolIPKcEET_S7_S7_PNS_16__owns_one_stateIcEEjj, symObjAddr: 0x3954, symBinAddr: 0x1000073B0, symSize: 0x5A0 }
  - { offset: 0x27023, size: 0x8, addend: 0x0, symName: __ZNSt3__111basic_regexIcNS_12regex_traitsIcEEE15__push_l_anchorEv, symObjAddr: 0x3EF4, symBinAddr: 0x100007950, symSize: 0xB8 }
  - { offset: 0x2704B, size: 0x8, addend: 0x0, symName: __ZNSt3__111basic_regexIcNS_12regex_traitsIcEEE15__push_r_anchorEv, symObjAddr: 0x3FAC, symBinAddr: 0x100007A08, symSize: 0xB8 }
  - { offset: 0x27073, size: 0x8, addend: 0x0, symName: __ZNSt3__111basic_regexIcNS_12regex_traitsIcEEE20__push_word_boundaryEb, symObjAddr: 0x4098, symBinAddr: 0x100007AF4, symSize: 0xB8 }
  - { offset: 0x270AA, size: 0x8, addend: 0x0, symName: __ZNSt3__111basic_regexIcNS_12regex_traitsIcEEEC1B8ne180100Ev, symObjAddr: 0x4150, symBinAddr: 0x100007BAC, symSize: 0x2C }
  - { offset: 0x270D4, size: 0x8, addend: 0x0, symName: __ZNSt3__111basic_regexIcNS_12regex_traitsIcEEE16__push_lookaheadERKS3_bj, symObjAddr: 0x417C, symBinAddr: 0x100007BD8, symSize: 0xCC }
  - { offset: 0x27129, size: 0x8, addend: 0x0, symName: __ZNKSt3__111basic_regexIcNS_12regex_traitsIcEEE15__use_multilineB8ne180100Ev, symObjAddr: 0x42A8, symBinAddr: 0x100007D04, symSize: 0x64 }
  - { offset: 0x27166, size: 0x8, addend: 0x0, symName: __ZNSt3__120__l_anchor_multilineIcEC1B8ne180100EbPNS_6__nodeIcEE, symObjAddr: 0x430C, symBinAddr: 0x100007D68, symSize: 0x40 }
  - { offset: 0x271AE, size: 0x8, addend: 0x0, symName: __ZNSt3__120__l_anchor_multilineIcEC2B8ne180100EbPNS_6__nodeIcEE, symObjAddr: 0x436C, symBinAddr: 0x100007DC8, symSize: 0x54 }
  - { offset: 0x271F6, size: 0x8, addend: 0x0, symName: __ZNSt3__120__l_anchor_multilineIcED1Ev, symObjAddr: 0x43C0, symBinAddr: 0x100007E1C, symSize: 0x2C }
  - { offset: 0x27223, size: 0x8, addend: 0x0, symName: __ZNSt3__120__l_anchor_multilineIcED0Ev, symObjAddr: 0x43EC, symBinAddr: 0x100007E48, symSize: 0x30 }
  - { offset: 0x27250, size: 0x8, addend: 0x0, symName: __ZNKSt3__120__l_anchor_multilineIcE6__execERNS_7__stateIcEE, symObjAddr: 0x441C, symBinAddr: 0x100007E78, symSize: 0x108 }
  - { offset: 0x27285, size: 0x8, addend: 0x0, symName: __ZNSt3__120__l_anchor_multilineIcED2Ev, symObjAddr: 0x4524, symBinAddr: 0x100007F80, symSize: 0x2C }
  - { offset: 0x272C9, size: 0x8, addend: 0x0, symName: __ZNSt3__120__r_anchor_multilineIcEC1B8ne180100EbPNS_6__nodeIcEE, symObjAddr: 0x4664, symBinAddr: 0x1000080C0, symSize: 0x40 }
  - { offset: 0x27311, size: 0x8, addend: 0x0, symName: __ZNSt3__120__r_anchor_multilineIcEC2B8ne180100EbPNS_6__nodeIcEE, symObjAddr: 0x46A4, symBinAddr: 0x100008100, symSize: 0x54 }
  - { offset: 0x27359, size: 0x8, addend: 0x0, symName: __ZNSt3__120__r_anchor_multilineIcED1Ev, symObjAddr: 0x46F8, symBinAddr: 0x100008154, symSize: 0x2C }
  - { offset: 0x27386, size: 0x8, addend: 0x0, symName: __ZNSt3__120__r_anchor_multilineIcED0Ev, symObjAddr: 0x4724, symBinAddr: 0x100008180, symSize: 0x30 }
  - { offset: 0x273B3, size: 0x8, addend: 0x0, symName: __ZNKSt3__120__r_anchor_multilineIcE6__execERNS_7__stateIcEE, symObjAddr: 0x4754, symBinAddr: 0x1000081B0, symSize: 0xE0 }
  - { offset: 0x273E8, size: 0x8, addend: 0x0, symName: __ZNSt3__120__r_anchor_multilineIcED2Ev, symObjAddr: 0x4834, symBinAddr: 0x100008290, symSize: 0x2C }
  - { offset: 0x2742C, size: 0x8, addend: 0x0, symName: __ZNSt3__115__word_boundaryIcNS_12regex_traitsIcEEEC1B8ne180100ERKS2_bPNS_6__nodeIcEE, symObjAddr: 0x4860, symBinAddr: 0x1000082BC, symSize: 0x48 }
  - { offset: 0x27483, size: 0x8, addend: 0x0, symName: __ZNSt3__115__word_boundaryIcNS_12regex_traitsIcEEEC2B8ne180100ERKS2_bPNS_6__nodeIcEE, symObjAddr: 0x48A8, symBinAddr: 0x100008304, symSize: 0x68 }
  - { offset: 0x274DA, size: 0x8, addend: 0x0, symName: __ZNSt3__112regex_traitsIcEC1ERKS1_, symObjAddr: 0x4910, symBinAddr: 0x10000836C, symSize: 0x34 }
  - { offset: 0x27510, size: 0x8, addend: 0x0, symName: __ZNSt3__115__word_boundaryIcNS_12regex_traitsIcEEED1Ev, symObjAddr: 0x4944, symBinAddr: 0x1000083A0, symSize: 0x2C }
  - { offset: 0x2753D, size: 0x8, addend: 0x0, symName: __ZNSt3__115__word_boundaryIcNS_12regex_traitsIcEEED0Ev, symObjAddr: 0x4970, symBinAddr: 0x1000083CC, symSize: 0x30 }
  - { offset: 0x2756A, size: 0x8, addend: 0x0, symName: __ZNKSt3__115__word_boundaryIcNS_12regex_traitsIcEEE6__execERNS_7__stateIcEE, symObjAddr: 0x49A0, symBinAddr: 0x1000083FC, symSize: 0x2A4 }
  - { offset: 0x27632, size: 0x8, addend: 0x0, symName: __ZNSt3__112regex_traitsIcEC2ERKS1_, symObjAddr: 0x4C44, symBinAddr: 0x1000086A0, symSize: 0x40 }
  - { offset: 0x27668, size: 0x8, addend: 0x0, symName: __ZNSt3__115__word_boundaryIcNS_12regex_traitsIcEEED2Ev, symObjAddr: 0x4C84, symBinAddr: 0x1000086E0, symSize: 0x48 }
  - { offset: 0x27695, size: 0x8, addend: 0x0, symName: __ZNKSt3__112regex_traitsIcE7isctypeEcj, symObjAddr: 0x4CCC, symBinAddr: 0x100008728, symSize: 0x9C }
  - { offset: 0x276DB, size: 0x8, addend: 0x0, symName: __ZNKSt3__15ctypeIcE2isB8ne180100Ejc, symObjAddr: 0x4D68, symBinAddr: 0x1000087C4, symSize: 0x74 }
  - { offset: 0x2771E, size: 0x8, addend: 0x0, symName: __Z7isasciii, symObjAddr: 0x4DDC, symBinAddr: 0x100008838, symSize: 0x20 }
  - { offset: 0x2774B, size: 0x8, addend: 0x0, symName: __ZNSt3__111basic_regexIcNS_12regex_traitsIcEEEC2B8ne180100Ev, symObjAddr: 0x4DFC, symBinAddr: 0x100008858, symSize: 0x4C }
  - { offset: 0x27798, size: 0x8, addend: 0x0, symName: __ZNSt3__111__lookaheadIcNS_12regex_traitsIcEEEC1B8ne180100ERKNS_11basic_regexIcS2_EEbPNS_6__nodeIcEEj, symObjAddr: 0x4E48, symBinAddr: 0x1000088A4, symSize: 0x50 }
  - { offset: 0x277FE, size: 0x8, addend: 0x0, symName: __ZNSt3__111__lookaheadIcNS_12regex_traitsIcEEEC2B8ne180100ERKNS_11basic_regexIcS2_EEbPNS_6__nodeIcEEj, symObjAddr: 0x4E98, symBinAddr: 0x1000088F4, symSize: 0x74 }
  - { offset: 0x27864, size: 0x8, addend: 0x0, symName: __ZNSt3__111basic_regexIcNS_12regex_traitsIcEEEC1ERKS3_, symObjAddr: 0x4F0C, symBinAddr: 0x100008968, symSize: 0x34 }
  - { offset: 0x2789A, size: 0x8, addend: 0x0, symName: __ZNSt3__111__lookaheadIcNS_12regex_traitsIcEEED1Ev, symObjAddr: 0x4F40, symBinAddr: 0x10000899C, symSize: 0x2C }
  - { offset: 0x278C7, size: 0x8, addend: 0x0, symName: __ZNSt3__111__lookaheadIcNS_12regex_traitsIcEEED0Ev, symObjAddr: 0x4F6C, symBinAddr: 0x1000089C8, symSize: 0x30 }
  - { offset: 0x278F4, size: 0x8, addend: 0x0, symName: __ZNKSt3__111__lookaheadIcNS_12regex_traitsIcEEE6__execERNS_7__stateIcEE, symObjAddr: 0x4F9C, symBinAddr: 0x1000089F8, symSize: 0x268 }
  - { offset: 0x27967, size: 0x8, addend: 0x0, symName: __ZNSt3__111basic_regexIcNS_12regex_traitsIcEEEC2ERKS3_, symObjAddr: 0x5204, symBinAddr: 0x100008C60, symSize: 0x60 }
  - { offset: 0x2799D, size: 0x8, addend: 0x0, symName: __ZNSt3__110shared_ptrINS_13__empty_stateIcEEEC1B8ne180100ERKS3_, symObjAddr: 0x5264, symBinAddr: 0x100008CC0, symSize: 0x34 }
  - { offset: 0x279D6, size: 0x8, addend: 0x0, symName: __ZNSt3__110shared_ptrINS_13__empty_stateIcEEEC2B8ne180100ERKS3_, symObjAddr: 0x5298, symBinAddr: 0x100008CF4, symSize: 0x68 }
  - { offset: 0x27A0F, size: 0x8, addend: 0x0, symName: __ZNSt3__119__shared_weak_count12__add_sharedB8ne180100Ev, symObjAddr: 0x5300, symBinAddr: 0x100008D5C, symSize: 0x24 }
  - { offset: 0x27A35, size: 0x8, addend: 0x0, symName: __ZNSt3__114__shared_count12__add_sharedB8ne180100Ev, symObjAddr: 0x5324, symBinAddr: 0x100008D80, symSize: 0x28 }
  - { offset: 0x27A5B, size: 0x8, addend: 0x0, symName: __ZNSt3__111__lookaheadIcNS_12regex_traitsIcEEED2Ev, symObjAddr: 0x537C, symBinAddr: 0x100008DD8, symSize: 0x48 }
  - { offset: 0x27AC0, size: 0x8, addend: 0x0, symName: __ZNSt3__113match_resultsIPKcNS_9allocatorINS_9sub_matchIS2_EEEEEC1Ev, symObjAddr: 0x53C4, symBinAddr: 0x100008E20, symSize: 0x40 }
  - { offset: 0x27AEA, size: 0x8, addend: 0x0, symName: __ZNSt3__113match_resultsIPKcNS_9allocatorINS_9sub_matchIS2_EEEEE6__initEjS2_S2_b, symObjAddr: 0x5404, symBinAddr: 0x100008E60, symSize: 0xA8 }
  - { offset: 0x27B4C, size: 0x8, addend: 0x0, symName: __ZNKSt3__111basic_regexIcNS_12regex_traitsIcEEE10mark_countB8ne180100Ev, symObjAddr: 0x54AC, symBinAddr: 0x100008F08, symSize: 0x18 }
  - { offset: 0x27B78, size: 0x8, addend: 0x0, symName: __ZNKSt3__111basic_regexIcNS_12regex_traitsIcEEE21__match_at_start_ecmaINS_9allocatorINS_9sub_matchIPKcEEEEEEbS8_S8_RNS_13match_resultsIS8_T_EENS_15regex_constants15match_flag_typeEb, symObjAddr: 0x54C4, symBinAddr: 0x100008F20, symSize: 0x574 }
  - { offset: 0x27C9A, size: 0x8, addend: 0x0, symName: __ZNKSt3__113match_resultsIPKcNS_9allocatorINS_9sub_matchIS2_EEEEE4sizeB8ne180100Ev, symObjAddr: 0x5A74, symBinAddr: 0x1000094D0, symSize: 0x24 }
  - { offset: 0x27CC0, size: 0x8, addend: 0x0, symName: __ZNSt3__16vectorINS_9sub_matchIPKcEENS_9allocatorIS4_EEEixB8ne180100Em, symObjAddr: 0x5A98, symBinAddr: 0x1000094F4, symSize: 0x2C }
  - { offset: 0x27CF7, size: 0x8, addend: 0x0, symName: __ZNSt3__19sub_matchIPKcEaSERKS3_, symObjAddr: 0x5AC4, symBinAddr: 0x100009520, symSize: 0x44 }
  - { offset: 0x27D2F, size: 0x8, addend: 0x0, symName: __ZNSt3__113match_resultsIPKcNS_9allocatorINS_9sub_matchIS2_EEEEED1Ev, symObjAddr: 0x5B08, symBinAddr: 0x100009564, symSize: 0x2C }
  - { offset: 0x27D5C, size: 0x8, addend: 0x0, symName: __ZNSt3__19allocatorINS_9sub_matchIPKcEEEC1B8ne180100Ev, symObjAddr: 0x5B34, symBinAddr: 0x100009590, symSize: 0x2C }
  - { offset: 0x27D86, size: 0x8, addend: 0x0, symName: __ZNSt3__113match_resultsIPKcNS_9allocatorINS_9sub_matchIS2_EEEEEC1ERKS6_, symObjAddr: 0x5B60, symBinAddr: 0x1000095BC, symSize: 0x34 }
  - { offset: 0x27DBF, size: 0x8, addend: 0x0, symName: __ZNSt3__19allocatorINS_9sub_matchIPKcEEEC2B8ne180100Ev, symObjAddr: 0x5B94, symBinAddr: 0x1000095F0, symSize: 0x2C }
  - { offset: 0x27DE9, size: 0x8, addend: 0x0, symName: __ZNSt3__116__non_trivial_ifILb1ENS_9allocatorINS_9sub_matchIPKcEEEEEC2B8ne180100Ev, symObjAddr: 0x5BC0, symBinAddr: 0x10000961C, symSize: 0x14 }
  - { offset: 0x27E13, size: 0x8, addend: 0x0, symName: __ZNSt3__113match_resultsIPKcNS_9allocatorINS_9sub_matchIS2_EEEEEC2ERKS6_, symObjAddr: 0x5BD4, symBinAddr: 0x100009630, symSize: 0x90 }
  - { offset: 0x27E4C, size: 0x8, addend: 0x0, symName: __ZNSt3__16vectorINS_9sub_matchIPKcEENS_9allocatorIS4_EEEC1B8ne180100ERKS6_, symObjAddr: 0x5C64, symBinAddr: 0x1000096C0, symSize: 0x34 }
  - { offset: 0x27E85, size: 0x8, addend: 0x0, symName: __ZNSt3__19sub_matchIPKcEC1B8ne180100Ev, symObjAddr: 0x5C98, symBinAddr: 0x1000096F4, symSize: 0x2C }
  - { offset: 0x27EAF, size: 0x8, addend: 0x0, symName: __ZNSt3__16vectorINS_9sub_matchIPKcEENS_9allocatorIS4_EEED1B8ne180100Ev, symObjAddr: 0x5CC4, symBinAddr: 0x100009720, symSize: 0x2C }
  - { offset: 0x27ED9, size: 0x8, addend: 0x0, symName: __ZNSt3__16vectorINS_9sub_matchIPKcEENS_9allocatorIS4_EEEC2B8ne180100ERKS6_, symObjAddr: 0x5CF0, symBinAddr: 0x10000974C, symSize: 0x50 }
  - { offset: 0x27F18, size: 0x8, addend: 0x0, symName: __ZNSt3__117__compressed_pairIPNS_9sub_matchIPKcEENS_9allocatorIS4_EEEC1B8ne180100IDnRKS7_EEOT_OT0_, symObjAddr: 0x5D40, symBinAddr: 0x10000979C, symSize: 0x3C }
  - { offset: 0x27F70, size: 0x8, addend: 0x0, symName: __ZNSt3__117__compressed_pairIPNS_9sub_matchIPKcEENS_9allocatorIS4_EEEC2B8ne180100IDnRKS7_EEOT_OT0_, symObjAddr: 0x5D7C, symBinAddr: 0x1000097D8, symSize: 0x44 }
  - { offset: 0x27FC8, size: 0x8, addend: 0x0, symName: __ZNSt3__122__compressed_pair_elemIPNS_9sub_matchIPKcEELi0ELb0EEC2B8ne180100IDnvEEOT_, symObjAddr: 0x5DC0, symBinAddr: 0x10000981C, symSize: 0x1C }
  - { offset: 0x2800A, size: 0x8, addend: 0x0, symName: __ZNSt3__122__compressed_pair_elemINS_9allocatorINS_9sub_matchIPKcEEEELi1ELb1EEC2B8ne180100IRKS6_vEEOT_, symObjAddr: 0x5DDC, symBinAddr: 0x100009838, symSize: 0x18 }
  - { offset: 0x2804C, size: 0x8, addend: 0x0, symName: __ZNSt3__19sub_matchIPKcEC2B8ne180100Ev, symObjAddr: 0x5DF4, symBinAddr: 0x100009850, symSize: 0x30 }
  - { offset: 0x28076, size: 0x8, addend: 0x0, symName: __ZNSt3__14pairIPKcS2_EC2B8ne180100ILb1ETnNS_9enable_ifIXclsr13_CheckArgsDepIXT_EEE25__enable_implicit_defaultEEiE4typeELi0EEEv, symObjAddr: 0x5E24, symBinAddr: 0x100009880, symSize: 0x1C }
  - { offset: 0x280B0, size: 0x8, addend: 0x0, symName: __ZNSt3__16vectorINS_9sub_matchIPKcEENS_9allocatorIS4_EEED2B8ne180100Ev, symObjAddr: 0x5E40, symBinAddr: 0x10000989C, symSize: 0x44 }
  - { offset: 0x280DA, size: 0x8, addend: 0x0, symName: __ZNSt3__16vectorINS_9sub_matchIPKcEENS_9allocatorIS4_EEE16__destroy_vectorC1B8ne180100ERS7_, symObjAddr: 0x5E84, symBinAddr: 0x1000098E0, symSize: 0x34 }
  - { offset: 0x28113, size: 0x8, addend: 0x0, symName: __ZNSt3__16vectorINS_9sub_matchIPKcEENS_9allocatorIS4_EEE16__destroy_vectorclB8ne180100Ev, symObjAddr: 0x5EB8, symBinAddr: 0x100009914, symSize: 0x88 }
  - { offset: 0x28139, size: 0x8, addend: 0x0, symName: __ZNSt3__16vectorINS_9sub_matchIPKcEENS_9allocatorIS4_EEE16__destroy_vectorC2B8ne180100ERS7_, symObjAddr: 0x5F40, symBinAddr: 0x10000999C, symSize: 0x20 }
  - { offset: 0x28172, size: 0x8, addend: 0x0, symName: __ZNSt3__16vectorINS_9sub_matchIPKcEENS_9allocatorIS4_EEE7__clearB8ne180100Ev, symObjAddr: 0x5F60, symBinAddr: 0x1000099BC, symSize: 0x28 }
  - { offset: 0x28198, size: 0x8, addend: 0x0, symName: __ZNKSt3__16vectorINS_9sub_matchIPKcEENS_9allocatorIS4_EEE17__annotate_deleteB8ne180100Ev, symObjAddr: 0x5F88, symBinAddr: 0x1000099E4, symSize: 0x10 }
  - { offset: 0x281BE, size: 0x8, addend: 0x0, symName: __ZNSt3__116allocator_traitsINS_9allocatorINS_9sub_matchIPKcEEEEE10deallocateB8ne180100ERS6_PS5_m, symObjAddr: 0x5F98, symBinAddr: 0x1000099F4, symSize: 0x34 }
  - { offset: 0x28200, size: 0x8, addend: 0x0, symName: __ZNSt3__16vectorINS_9sub_matchIPKcEENS_9allocatorIS4_EEE7__allocB8ne180100Ev, symObjAddr: 0x5FCC, symBinAddr: 0x100009A28, symSize: 0x28 }
  - { offset: 0x28226, size: 0x8, addend: 0x0, symName: __ZNKSt3__16vectorINS_9sub_matchIPKcEENS_9allocatorIS4_EEE8capacityB8ne180100Ev, symObjAddr: 0x5FF4, symBinAddr: 0x100009A50, symSize: 0x40 }
  - { offset: 0x2824C, size: 0x8, addend: 0x0, symName: __ZNSt3__16vectorINS_9sub_matchIPKcEENS_9allocatorIS4_EEE22__base_destruct_at_endB8ne180100EPS4_, symObjAddr: 0x6034, symBinAddr: 0x100009A90, symSize: 0x88 }
  - { offset: 0x28290, size: 0x8, addend: 0x0, symName: __ZNSt3__116allocator_traitsINS_9allocatorINS_9sub_matchIPKcEEEEE7destroyB8ne180100IS5_vEEvRS6_PT_, symObjAddr: 0x60BC, symBinAddr: 0x100009B18, symSize: 0x2C }
  - { offset: 0x282CD, size: 0x8, addend: 0x0, symName: __ZNSt3__19allocatorINS_9sub_matchIPKcEEE7destroyB8ne180100EPS4_, symObjAddr: 0x60FC, symBinAddr: 0x100009B58, symSize: 0x14 }
  - { offset: 0x28301, size: 0x8, addend: 0x0, symName: __ZNSt3__19allocatorINS_9sub_matchIPKcEEE10deallocateB8ne180100EPS4_m, symObjAddr: 0x6110, symBinAddr: 0x100009B6C, symSize: 0x44 }
  - { offset: 0x28343, size: 0x8, addend: 0x0, symName: __ZNSt3__117__compressed_pairIPNS_9sub_matchIPKcEENS_9allocatorIS4_EEE6secondB8ne180100Ev, symObjAddr: 0x6154, symBinAddr: 0x100009BB0, symSize: 0x24 }
  - { offset: 0x28369, size: 0x8, addend: 0x0, symName: __ZNSt3__122__compressed_pair_elemINS_9allocatorINS_9sub_matchIPKcEEEELi1ELb1EE5__getB8ne180100Ev, symObjAddr: 0x6178, symBinAddr: 0x100009BD4, symSize: 0x14 }
  - { offset: 0x2838F, size: 0x8, addend: 0x0, symName: __ZNKSt3__16vectorINS_9sub_matchIPKcEENS_9allocatorIS4_EEE9__end_capB8ne180100Ev, symObjAddr: 0x618C, symBinAddr: 0x100009BE8, symSize: 0x28 }
  - { offset: 0x283B5, size: 0x8, addend: 0x0, symName: __ZNKSt3__117__compressed_pairIPNS_9sub_matchIPKcEENS_9allocatorIS4_EEE5firstB8ne180100Ev, symObjAddr: 0x61B4, symBinAddr: 0x100009C10, symSize: 0x24 }
  - { offset: 0x283DB, size: 0x8, addend: 0x0, symName: __ZNKSt3__122__compressed_pair_elemIPNS_9sub_matchIPKcEELi0ELb0EE5__getB8ne180100Ev, symObjAddr: 0x61D8, symBinAddr: 0x100009C34, symSize: 0x14 }
  - { offset: 0x28401, size: 0x8, addend: 0x0, symName: __ZNSt3__16vectorINS_9sub_matchIPKcEENS_9allocatorIS4_EEE6assignEmRKS4_, symObjAddr: 0x61EC, symBinAddr: 0x100009C48, symSize: 0x108 }
  - { offset: 0x28464, size: 0x8, addend: 0x0, symName: __ZNKSt3__16vectorINS_9sub_matchIPKcEENS_9allocatorIS4_EEE4sizeB8ne180100Ev, symObjAddr: 0x62F4, symBinAddr: 0x100009D50, symSize: 0x28 }
  - { offset: 0x2848A, size: 0x8, addend: 0x0, symName: __ZNSt3__16vectorINS_9sub_matchIPKcEENS_9allocatorIS4_EEE18__construct_at_endEmRKS4_, symObjAddr: 0x638C, symBinAddr: 0x100009DE8, symSize: 0xCC }
  - { offset: 0x2850B, size: 0x8, addend: 0x0, symName: __ZNSt3__16vectorINS_9sub_matchIPKcEENS_9allocatorIS4_EEE17__destruct_at_endB8ne180100EPS4_, symObjAddr: 0x6458, symBinAddr: 0x100009EB4, symSize: 0x4C }
  - { offset: 0x2854F, size: 0x8, addend: 0x0, symName: __ZNSt3__16vectorINS_9sub_matchIPKcEENS_9allocatorIS4_EEE13__vdeallocateEv, symObjAddr: 0x64A4, symBinAddr: 0x100009F00, symSize: 0x8C }
  - { offset: 0x28577, size: 0x8, addend: 0x0, symName: __ZNSt3__16vectorINS_9sub_matchIPKcEENS_9allocatorIS4_EEE11__vallocateB8ne180100Em, symObjAddr: 0x6530, symBinAddr: 0x100009F8C, symSize: 0xB0 }
  - { offset: 0x285BB, size: 0x8, addend: 0x0, symName: __ZNKSt3__16vectorINS_9sub_matchIPKcEENS_9allocatorIS4_EEE11__recommendB8ne180100Em, symObjAddr: 0x65E0, symBinAddr: 0x10000A03C, symSize: 0xAC }
  - { offset: 0x2861B, size: 0x8, addend: 0x0, symName: __ZNKSt3__16__lessIvvEclB8ne180100ImmEEbRKT_RKT0_, symObjAddr: 0x675C, symBinAddr: 0x10000A1B8, symSize: 0x30 }
  - { offset: 0x2868B, size: 0x8, addend: 0x0, symName: __ZNSt3__16vectorINS_9sub_matchIPKcEENS_9allocatorIS4_EEE21_ConstructTransactionC1B8ne180100ERS7_m, symObjAddr: 0x678C, symBinAddr: 0x10000A1E8, symSize: 0x3C }
  - { offset: 0x286D3, size: 0x8, addend: 0x0, symName: __ZNSt3__116allocator_traitsINS_9allocatorINS_9sub_matchIPKcEEEEE9constructB8ne180100IS5_JRKS5_EvEEvRS6_PT_DpOT0_, symObjAddr: 0x67C8, symBinAddr: 0x10000A224, symSize: 0x34 }
  - { offset: 0x2872A, size: 0x8, addend: 0x0, symName: __ZNSt3__16vectorINS_9sub_matchIPKcEENS_9allocatorIS4_EEE21_ConstructTransactionD1B8ne180100Ev, symObjAddr: 0x67FC, symBinAddr: 0x10000A258, symSize: 0x2C }
  - { offset: 0x28754, size: 0x8, addend: 0x0, symName: __ZNSt3__16vectorINS_9sub_matchIPKcEENS_9allocatorIS4_EEE21_ConstructTransactionC2B8ne180100ERS7_m, symObjAddr: 0x6828, symBinAddr: 0x10000A284, symSize: 0x4C }
  - { offset: 0x2879C, size: 0x8, addend: 0x0, symName: __ZNSt3__19allocatorINS_9sub_matchIPKcEEE9constructB8ne180100IS4_JRKS4_EEEvPT_DpOT0_, symObjAddr: 0x6874, symBinAddr: 0x10000A2D0, symSize: 0x30 }
  - { offset: 0x287F2, size: 0x8, addend: 0x0, symName: __ZNSt3__16vectorINS_9sub_matchIPKcEENS_9allocatorIS4_EEE21_ConstructTransactionD2B8ne180100Ev, symObjAddr: 0x68A4, symBinAddr: 0x10000A300, symSize: 0x20 }
  - { offset: 0x2881C, size: 0x8, addend: 0x0, symName: __ZNKSt3__16vectorINS_9sub_matchIPKcEENS_9allocatorIS4_EEE17__annotate_shrinkB8ne180100Em, symObjAddr: 0x68C4, symBinAddr: 0x10000A320, symSize: 0x14 }
  - { offset: 0x28851, size: 0x8, addend: 0x0, symName: __ZNSt3__16vectorINS_9sub_matchIPKcEENS_9allocatorIS4_EEE5clearB8ne180100Ev, symObjAddr: 0x68D8, symBinAddr: 0x10000A334, symSize: 0x44 }
  - { offset: 0x28886, size: 0x8, addend: 0x0, symName: __ZNSt3__16vectorINS_9sub_matchIPKcEENS_9allocatorIS4_EEE9__end_capB8ne180100Ev, symObjAddr: 0x691C, symBinAddr: 0x10000A378, symSize: 0x28 }
  - { offset: 0x288AC, size: 0x8, addend: 0x0, symName: __ZNSt3__117__compressed_pairIPNS_9sub_matchIPKcEENS_9allocatorIS4_EEE5firstB8ne180100Ev, symObjAddr: 0x6944, symBinAddr: 0x10000A3A0, symSize: 0x24 }
  - { offset: 0x288D2, size: 0x8, addend: 0x0, symName: __ZNSt3__122__compressed_pair_elemIPNS_9sub_matchIPKcEELi0ELb0EE5__getB8ne180100Ev, symObjAddr: 0x6968, symBinAddr: 0x10000A3C4, symSize: 0x14 }
  - { offset: 0x288F8, size: 0x8, addend: 0x0, symName: __ZNKSt3__16vectorINS_9sub_matchIPKcEENS_9allocatorIS4_EEE8max_sizeEv, symObjAddr: 0x697C, symBinAddr: 0x10000A3D8, symSize: 0x60 }
  - { offset: 0x28920, size: 0x8, addend: 0x0, symName: __ZNKSt3__16vectorINS_9sub_matchIPKcEENS_9allocatorIS4_EEE20__throw_length_errorB8ne180100Ev, symObjAddr: 0x69DC, symBinAddr: 0x10000A438, symSize: 0x1C }
  - { offset: 0x28946, size: 0x8, addend: 0x0, symName: __ZNKSt3__16vectorINS_9sub_matchIPKcEENS_9allocatorIS4_EEE14__annotate_newB8ne180100Em, symObjAddr: 0x6A38, symBinAddr: 0x10000A494, symSize: 0x14 }
  - { offset: 0x28986, size: 0x8, addend: 0x0, symName: __ZNSt3__116allocator_traitsINS_9allocatorINS_9sub_matchIPKcEEEEE8max_sizeB8ne180100IS6_vEEmRKS6_, symObjAddr: 0x6A4C, symBinAddr: 0x10000A4A8, symSize: 0x24 }
  - { offset: 0x289B4, size: 0x8, addend: 0x0, symName: __ZNKSt3__16vectorINS_9sub_matchIPKcEENS_9allocatorIS4_EEE7__allocB8ne180100Ev, symObjAddr: 0x6A70, symBinAddr: 0x10000A4CC, symSize: 0x28 }
  - { offset: 0x289DA, size: 0x8, addend: 0x0, symName: __ZNSt3__114numeric_limitsIlE3maxB8ne180100Ev, symObjAddr: 0x6A98, symBinAddr: 0x10000A4F4, symSize: 0x14 }
  - { offset: 0x289EE, size: 0x8, addend: 0x0, symName: __ZNKSt3__19allocatorINS_9sub_matchIPKcEEE8max_sizeB8ne180100Ev, symObjAddr: 0x6AAC, symBinAddr: 0x10000A508, symSize: 0x18 }
  - { offset: 0x28A14, size: 0x8, addend: 0x0, symName: __ZNKSt3__117__compressed_pairIPNS_9sub_matchIPKcEENS_9allocatorIS4_EEE6secondB8ne180100Ev, symObjAddr: 0x6AC4, symBinAddr: 0x10000A520, symSize: 0x24 }
  - { offset: 0x28A3A, size: 0x8, addend: 0x0, symName: __ZNKSt3__122__compressed_pair_elemINS_9allocatorINS_9sub_matchIPKcEEEELi1ELb1EE5__getB8ne180100Ev, symObjAddr: 0x6AE8, symBinAddr: 0x10000A544, symSize: 0x14 }
  - { offset: 0x28A60, size: 0x8, addend: 0x0, symName: __ZNSt3__123__libcpp_numeric_limitsIlLb1EE3maxB8ne180100Ev, symObjAddr: 0x6AFC, symBinAddr: 0x10000A558, symSize: 0x8 }
  - { offset: 0x28A74, size: 0x8, addend: 0x0, symName: __ZNSt12length_errorC1B8ne180100EPKc, symObjAddr: 0x6B68, symBinAddr: 0x10000A5C4, symSize: 0x34 }
  - { offset: 0x28AAC, size: 0x8, addend: 0x0, symName: __ZNSt12length_errorC2B8ne180100EPKc, symObjAddr: 0x6B9C, symBinAddr: 0x10000A5F8, symSize: 0x44 }
  - { offset: 0x28AE4, size: 0x8, addend: 0x0, symName: __ZNSt3__19allocatorINS_9sub_matchIPKcEEE8allocateB8ne180100Em, symObjAddr: 0x6BE0, symBinAddr: 0x10000A63C, symSize: 0x58 }
  - { offset: 0x28B18, size: 0x8, addend: 0x0, symName: __ZNSt3__16vectorINS_7__stateIcEENS_9allocatorIS2_EEEC1B8ne180100Ev, symObjAddr: 0x6D38, symBinAddr: 0x10000A794, symSize: 0x2C }
  - { offset: 0x28B42, size: 0x8, addend: 0x0, symName: __ZNSt3__16vectorINS_7__stateIcEENS_9allocatorIS2_EEE9push_backB8ne180100EOS2_, symObjAddr: 0x6D64, symBinAddr: 0x10000A7C0, symSize: 0x8C }
  - { offset: 0x28B86, size: 0x8, addend: 0x0, symName: __ZNSt3__17__stateIcEC1B8ne180100Ev, symObjAddr: 0x6DF0, symBinAddr: 0x10000A84C, symSize: 0x2C }
  - { offset: 0x28BB0, size: 0x8, addend: 0x0, symName: __ZNSt3__17__stateIcED1Ev, symObjAddr: 0x6E1C, symBinAddr: 0x10000A878, symSize: 0x2C }
  - { offset: 0x28BDD, size: 0x8, addend: 0x0, symName: __ZNSt3__16vectorINS_7__stateIcEENS_9allocatorIS2_EEE4backB8ne180100Ev, symObjAddr: 0x6E48, symBinAddr: 0x10000A8A4, symSize: 0x1C }
  - { offset: 0x28C03, size: 0x8, addend: 0x0, symName: __ZNSt3__16vectorINS_9sub_matchIPKcEENS_9allocatorIS4_EEE6resizeEmRKS4_, symObjAddr: 0x6E64, symBinAddr: 0x10000A8C0, symSize: 0x9C }
  - { offset: 0x28C58, size: 0x8, addend: 0x0, symName: __ZNSt3__16vectorINS_4pairImPKcEENS_9allocatorIS4_EEE6resizeEm, symObjAddr: 0x6F00, symBinAddr: 0x10000A95C, symSize: 0x8C }
  - { offset: 0x28C9E, size: 0x8, addend: 0x0, symName: __ZNKSt3__111basic_regexIcNS_12regex_traitsIcEEE12__loop_countB8ne180100Ev, symObjAddr: 0x6F8C, symBinAddr: 0x10000A9E8, symSize: 0x18 }
  - { offset: 0x28CC4, size: 0x8, addend: 0x0, symName: __ZNSt3__16vectorINS_7__stateIcEENS_9allocatorIS2_EEE8pop_backEv, symObjAddr: 0x7004, symBinAddr: 0x10000AA60, symSize: 0x2C }
  - { offset: 0x28CEA, size: 0x8, addend: 0x0, symName: __ZNSt3__17__stateIcEC1ERKS1_, symObjAddr: 0x7030, symBinAddr: 0x10000AA8C, symSize: 0x34 }
  - { offset: 0x28D20, size: 0x8, addend: 0x0, symName: __ZNKSt3__16vectorINS_7__stateIcEENS_9allocatorIS2_EEE5emptyB8ne180100Ev, symObjAddr: 0x70C4, symBinAddr: 0x10000AB20, symSize: 0x24 }
  - { offset: 0x28D46, size: 0x8, addend: 0x0, symName: __ZNSt3__16vectorINS_7__stateIcEENS_9allocatorIS2_EEED1B8ne180100Ev, symObjAddr: 0x70E8, symBinAddr: 0x10000AB44, symSize: 0x2C }
  - { offset: 0x28D70, size: 0x8, addend: 0x0, symName: __ZNSt3__16vectorINS_7__stateIcEENS_9allocatorIS2_EEEC2B8ne180100Ev, symObjAddr: 0x7114, symBinAddr: 0x10000AB70, symSize: 0x4C }
  - { offset: 0x28D9A, size: 0x8, addend: 0x0, symName: __ZNSt3__117__compressed_pairIPNS_7__stateIcEENS_9allocatorIS2_EEEC1B8ne180100IDnNS_18__default_init_tagEEEOT_OT0_, symObjAddr: 0x7160, symBinAddr: 0x10000ABBC, symSize: 0x3C }
  - { offset: 0x28DF2, size: 0x8, addend: 0x0, symName: __ZNSt3__117__compressed_pairIPNS_7__stateIcEENS_9allocatorIS2_EEEC2B8ne180100IDnNS_18__default_init_tagEEEOT_OT0_, symObjAddr: 0x719C, symBinAddr: 0x10000ABF8, symSize: 0x40 }
  - { offset: 0x28E4A, size: 0x8, addend: 0x0, symName: __ZNSt3__122__compressed_pair_elemIPNS_7__stateIcEELi0ELb0EEC2B8ne180100IDnvEEOT_, symObjAddr: 0x71DC, symBinAddr: 0x10000AC38, symSize: 0x1C }
  - { offset: 0x28E8C, size: 0x8, addend: 0x0, symName: __ZNSt3__122__compressed_pair_elemINS_9allocatorINS_7__stateIcEEEELi1ELb1EEC2B8ne180100ENS_18__default_init_tagE, symObjAddr: 0x71F8, symBinAddr: 0x10000AC54, symSize: 0x2C }
  - { offset: 0x28EC0, size: 0x8, addend: 0x0, symName: __ZNSt3__19allocatorINS_7__stateIcEEEC2B8ne180100Ev, symObjAddr: 0x7224, symBinAddr: 0x10000AC80, symSize: 0x2C }
  - { offset: 0x28EEA, size: 0x8, addend: 0x0, symName: __ZNSt3__116__non_trivial_ifILb1ENS_9allocatorINS_7__stateIcEEEEEC2B8ne180100Ev, symObjAddr: 0x7250, symBinAddr: 0x10000ACAC, symSize: 0x14 }
  - { offset: 0x28F14, size: 0x8, addend: 0x0, symName: __ZNSt3__16vectorINS_7__stateIcEENS_9allocatorIS2_EEE9__end_capB8ne180100Ev, symObjAddr: 0x7264, symBinAddr: 0x10000ACC0, symSize: 0x28 }
  - { offset: 0x28F40, size: 0x8, addend: 0x0, symName: __ZNSt3__16vectorINS_7__stateIcEENS_9allocatorIS2_EEE22__construct_one_at_endB8ne180100IJS2_EEEvDpOT_, symObjAddr: 0x728C, symBinAddr: 0x10000ACE8, symSize: 0x90 }
  - { offset: 0x28F8F, size: 0x8, addend: 0x0, symName: __ZNSt3__16vectorINS_7__stateIcEENS_9allocatorIS2_EEE21__push_back_slow_pathIS2_EEPS2_OT_, symObjAddr: 0x731C, symBinAddr: 0x10000AD78, symSize: 0xE8 }
  - { offset: 0x28FEB, size: 0x8, addend: 0x0, symName: __ZNSt3__117__compressed_pairIPNS_7__stateIcEENS_9allocatorIS2_EEE5firstB8ne180100Ev, symObjAddr: 0x7404, symBinAddr: 0x10000AE60, symSize: 0x24 }
  - { offset: 0x29011, size: 0x8, addend: 0x0, symName: __ZNSt3__122__compressed_pair_elemIPNS_7__stateIcEELi0ELb0EE5__getB8ne180100Ev, symObjAddr: 0x7428, symBinAddr: 0x10000AE84, symSize: 0x14 }
  - { offset: 0x29053, size: 0x8, addend: 0x0, symName: __ZNSt3__16vectorINS_7__stateIcEENS_9allocatorIS2_EEE21_ConstructTransactionC1B8ne180100ERS5_m, symObjAddr: 0x743C, symBinAddr: 0x10000AE98, symSize: 0x3C }
  - { offset: 0x2909B, size: 0x8, addend: 0x0, symName: __ZNSt3__116allocator_traitsINS_9allocatorINS_7__stateIcEEEEE9constructB8ne180100IS3_JS3_EvEEvRS4_PT_DpOT0_, symObjAddr: 0x7478, symBinAddr: 0x10000AED4, symSize: 0x34 }
  - { offset: 0x290F2, size: 0x8, addend: 0x0, symName: __ZNSt3__16vectorINS_7__stateIcEENS_9allocatorIS2_EEE7__allocB8ne180100Ev, symObjAddr: 0x74AC, symBinAddr: 0x10000AF08, symSize: 0x28 }
  - { offset: 0x29118, size: 0x8, addend: 0x0, symName: __ZNSt3__16vectorINS_7__stateIcEENS_9allocatorIS2_EEE21_ConstructTransactionD1B8ne180100Ev, symObjAddr: 0x74E8, symBinAddr: 0x10000AF44, symSize: 0x2C }
  - { offset: 0x29142, size: 0x8, addend: 0x0, symName: __ZNSt3__16vectorINS_7__stateIcEENS_9allocatorIS2_EEE21_ConstructTransactionC2B8ne180100ERS5_m, symObjAddr: 0x7514, symBinAddr: 0x10000AF70, symSize: 0x4C }
  - { offset: 0x2918A, size: 0x8, addend: 0x0, symName: __ZNSt3__19allocatorINS_7__stateIcEEE9constructB8ne180100IS2_JS2_EEEvPT_DpOT0_, symObjAddr: 0x7560, symBinAddr: 0x10000AFBC, symSize: 0x30 }
  - { offset: 0x291E0, size: 0x8, addend: 0x0, symName: __ZNSt3__17__stateIcEC1EOS1_, symObjAddr: 0x7590, symBinAddr: 0x10000AFEC, symSize: 0x34 }
  - { offset: 0x29216, size: 0x8, addend: 0x0, symName: __ZNSt3__17__stateIcEC2EOS1_, symObjAddr: 0x75C4, symBinAddr: 0x10000B020, symSize: 0x78 }
  - { offset: 0x2924C, size: 0x8, addend: 0x0, symName: __ZNSt3__16vectorINS_9sub_matchIPKcEENS_9allocatorIS4_EEEC1B8ne180100EOS7_, symObjAddr: 0x763C, symBinAddr: 0x10000B098, symSize: 0x34 }
  - { offset: 0x29287, size: 0x8, addend: 0x0, symName: __ZNSt3__16vectorINS_4pairImPKcEENS_9allocatorIS4_EEEC1B8ne180100EOS7_, symObjAddr: 0x7670, symBinAddr: 0x10000B0CC, symSize: 0x34 }
  - { offset: 0x292C2, size: 0x8, addend: 0x0, symName: __ZNSt3__16vectorINS_9sub_matchIPKcEENS_9allocatorIS4_EEEC2B8ne180100EOS7_, symObjAddr: 0x76A4, symBinAddr: 0x10000B100, symSize: 0xC4 }
  - { offset: 0x29303, size: 0x8, addend: 0x0, symName: __ZNSt3__117__compressed_pairIPNS_9sub_matchIPKcEENS_9allocatorIS4_EEEC1B8ne180100IDnS7_EEOT_OT0_, symObjAddr: 0x7768, symBinAddr: 0x10000B1C4, symSize: 0x3C }
  - { offset: 0x2935B, size: 0x8, addend: 0x0, symName: __ZNSt3__117__compressed_pairIPNS_9sub_matchIPKcEENS_9allocatorIS4_EEEC2B8ne180100IDnS7_EEOT_OT0_, symObjAddr: 0x77A4, symBinAddr: 0x10000B200, symSize: 0x44 }
  - { offset: 0x293B3, size: 0x8, addend: 0x0, symName: __ZNSt3__122__compressed_pair_elemINS_9allocatorINS_9sub_matchIPKcEEEELi1ELb1EEC2B8ne180100IS6_vEEOT_, symObjAddr: 0x77E8, symBinAddr: 0x10000B244, symSize: 0x18 }
  - { offset: 0x293F5, size: 0x8, addend: 0x0, symName: __ZNSt3__16vectorINS_4pairImPKcEENS_9allocatorIS4_EEEC2B8ne180100EOS7_, symObjAddr: 0x7800, symBinAddr: 0x10000B25C, symSize: 0xC4 }
  - { offset: 0x29430, size: 0x8, addend: 0x0, symName: __ZNSt3__16vectorINS_4pairImPKcEENS_9allocatorIS4_EEE7__allocB8ne180100Ev, symObjAddr: 0x78C4, symBinAddr: 0x10000B320, symSize: 0x28 }
  - { offset: 0x2945C, size: 0x8, addend: 0x0, symName: __ZNSt3__117__compressed_pairIPNS_4pairImPKcEENS_9allocatorIS4_EEEC1B8ne180100IDnS7_EEOT_OT0_, symObjAddr: 0x78EC, symBinAddr: 0x10000B348, symSize: 0x3C }
  - { offset: 0x294B4, size: 0x8, addend: 0x0, symName: __ZNSt3__16vectorINS_4pairImPKcEENS_9allocatorIS4_EEE9__end_capB8ne180100Ev, symObjAddr: 0x7928, symBinAddr: 0x10000B384, symSize: 0x28 }
  - { offset: 0x294DA, size: 0x8, addend: 0x0, symName: __ZNSt3__117__compressed_pairIPNS_4pairImPKcEENS_9allocatorIS4_EEE6secondB8ne180100Ev, symObjAddr: 0x7950, symBinAddr: 0x10000B3AC, symSize: 0x24 }
  - { offset: 0x29500, size: 0x8, addend: 0x0, symName: __ZNSt3__122__compressed_pair_elemINS_9allocatorINS_4pairImPKcEEEELi1ELb1EE5__getB8ne180100Ev, symObjAddr: 0x7974, symBinAddr: 0x10000B3D0, symSize: 0x14 }
  - { offset: 0x29526, size: 0x8, addend: 0x0, symName: __ZNSt3__117__compressed_pairIPNS_4pairImPKcEENS_9allocatorIS4_EEEC2B8ne180100IDnS7_EEOT_OT0_, symObjAddr: 0x7988, symBinAddr: 0x10000B3E4, symSize: 0x44 }
  - { offset: 0x2957E, size: 0x8, addend: 0x0, symName: __ZNSt3__122__compressed_pair_elemIPNS_4pairImPKcEELi0ELb0EEC2B8ne180100IDnvEEOT_, symObjAddr: 0x79CC, symBinAddr: 0x10000B428, symSize: 0x1C }
  - { offset: 0x295C0, size: 0x8, addend: 0x0, symName: __ZNSt3__122__compressed_pair_elemINS_9allocatorINS_4pairImPKcEEEELi1ELb1EEC2B8ne180100IS6_vEEOT_, symObjAddr: 0x79E8, symBinAddr: 0x10000B444, symSize: 0x18 }
  - { offset: 0x29602, size: 0x8, addend: 0x0, symName: __ZNSt3__117__compressed_pairIPNS_4pairImPKcEENS_9allocatorIS4_EEE5firstB8ne180100Ev, symObjAddr: 0x7A00, symBinAddr: 0x10000B45C, symSize: 0x24 }
  - { offset: 0x29628, size: 0x8, addend: 0x0, symName: __ZNSt3__122__compressed_pair_elemIPNS_4pairImPKcEELi0ELb0EE5__getB8ne180100Ev, symObjAddr: 0x7A24, symBinAddr: 0x10000B480, symSize: 0x14 }
  - { offset: 0x2964E, size: 0x8, addend: 0x0, symName: __ZNSt3__117__compressed_pairIPNS_7__stateIcEENS_9allocatorIS2_EEE6secondB8ne180100Ev, symObjAddr: 0x7A38, symBinAddr: 0x10000B494, symSize: 0x24 }
  - { offset: 0x29674, size: 0x8, addend: 0x0, symName: __ZNSt3__122__compressed_pair_elemINS_9allocatorINS_7__stateIcEEEELi1ELb1EE5__getB8ne180100Ev, symObjAddr: 0x7A5C, symBinAddr: 0x10000B4B8, symSize: 0x14 }
  - { offset: 0x2969A, size: 0x8, addend: 0x0, symName: __ZNSt3__16vectorINS_7__stateIcEENS_9allocatorIS2_EEE21_ConstructTransactionD2B8ne180100Ev, symObjAddr: 0x7A70, symBinAddr: 0x10000B4CC, symSize: 0x20 }
  - { offset: 0x296C4, size: 0x8, addend: 0x0, symName: __ZNKSt3__16vectorINS_7__stateIcEENS_9allocatorIS2_EEE11__recommendB8ne180100Em, symObjAddr: 0x7A90, symBinAddr: 0x10000B4EC, symSize: 0xAC }
  - { offset: 0x29717, size: 0x8, addend: 0x0, symName: __ZNKSt3__16vectorINS_7__stateIcEENS_9allocatorIS2_EEE4sizeB8ne180100Ev, symObjAddr: 0x7B3C, symBinAddr: 0x10000B598, symSize: 0x28 }
  - { offset: 0x2973D, size: 0x8, addend: 0x0, symName: __ZNSt3__114__split_bufferINS_7__stateIcEERNS_9allocatorIS2_EEEC1EmmS5_, symObjAddr: 0x7B64, symBinAddr: 0x10000B5C0, symSize: 0x44 }
  - { offset: 0x29791, size: 0x8, addend: 0x0, symName: __ZNSt3__114__split_bufferINS_7__stateIcEERNS_9allocatorIS2_EEED1Ev, symObjAddr: 0x7CB8, symBinAddr: 0x10000B714, symSize: 0x2C }
  - { offset: 0x297BB, size: 0x8, addend: 0x0, symName: __ZNKSt3__16vectorINS_7__stateIcEENS_9allocatorIS2_EEE8max_sizeEv, symObjAddr: 0x7CE4, symBinAddr: 0x10000B740, symSize: 0x60 }
  - { offset: 0x297E1, size: 0x8, addend: 0x0, symName: __ZNKSt3__16vectorINS_7__stateIcEENS_9allocatorIS2_EEE20__throw_length_errorB8ne180100Ev, symObjAddr: 0x7D44, symBinAddr: 0x10000B7A0, symSize: 0x1C }
  - { offset: 0x29807, size: 0x8, addend: 0x0, symName: __ZNKSt3__16vectorINS_7__stateIcEENS_9allocatorIS2_EEE8capacityB8ne180100Ev, symObjAddr: 0x7D60, symBinAddr: 0x10000B7BC, symSize: 0x40 }
  - { offset: 0x29838, size: 0x8, addend: 0x0, symName: __ZNSt3__116allocator_traitsINS_9allocatorINS_7__stateIcEEEEE8max_sizeB8ne180100IS4_vEEmRKS4_, symObjAddr: 0x7DA0, symBinAddr: 0x10000B7FC, symSize: 0x24 }
  - { offset: 0x29866, size: 0x8, addend: 0x0, symName: __ZNKSt3__16vectorINS_7__stateIcEENS_9allocatorIS2_EEE7__allocB8ne180100Ev, symObjAddr: 0x7DC4, symBinAddr: 0x10000B820, symSize: 0x28 }
  - { offset: 0x2988C, size: 0x8, addend: 0x0, symName: __ZNKSt3__19allocatorINS_7__stateIcEEE8max_sizeB8ne180100Ev, symObjAddr: 0x7DEC, symBinAddr: 0x10000B848, symSize: 0x18 }
  - { offset: 0x298B2, size: 0x8, addend: 0x0, symName: __ZNKSt3__117__compressed_pairIPNS_7__stateIcEENS_9allocatorIS2_EEE6secondB8ne180100Ev, symObjAddr: 0x7E04, symBinAddr: 0x10000B860, symSize: 0x24 }
  - { offset: 0x298D8, size: 0x8, addend: 0x0, symName: __ZNKSt3__122__compressed_pair_elemINS_9allocatorINS_7__stateIcEEEELi1ELb1EE5__getB8ne180100Ev, symObjAddr: 0x7E28, symBinAddr: 0x10000B884, symSize: 0x14 }
  - { offset: 0x298FE, size: 0x8, addend: 0x0, symName: __ZNKSt3__16vectorINS_7__stateIcEENS_9allocatorIS2_EEE9__end_capB8ne180100Ev, symObjAddr: 0x7E3C, symBinAddr: 0x10000B898, symSize: 0x28 }
  - { offset: 0x29924, size: 0x8, addend: 0x0, symName: __ZNKSt3__117__compressed_pairIPNS_7__stateIcEENS_9allocatorIS2_EEE5firstB8ne180100Ev, symObjAddr: 0x7E64, symBinAddr: 0x10000B8C0, symSize: 0x24 }
  - { offset: 0x2994A, size: 0x8, addend: 0x0, symName: __ZNKSt3__122__compressed_pair_elemIPNS_7__stateIcEELi0ELb0EE5__getB8ne180100Ev, symObjAddr: 0x7E88, symBinAddr: 0x10000B8E4, symSize: 0x14 }
  - { offset: 0x29970, size: 0x8, addend: 0x0, symName: __ZNSt3__114__split_bufferINS_7__stateIcEERNS_9allocatorIS2_EEEC2EmmS5_, symObjAddr: 0x7E9C, symBinAddr: 0x10000B8F8, symSize: 0xD8 }
  - { offset: 0x299E1, size: 0x8, addend: 0x0, symName: __ZNSt3__117__compressed_pairIPNS_7__stateIcEERNS_9allocatorIS2_EEEC1B8ne180100IDnS6_EEOT_OT0_, symObjAddr: 0x7F74, symBinAddr: 0x10000B9D0, symSize: 0x3C }
  - { offset: 0x29A39, size: 0x8, addend: 0x0, symName: __ZNSt3__114__split_bufferINS_7__stateIcEERNS_9allocatorIS2_EEE7__allocB8ne180100Ev, symObjAddr: 0x7FF0, symBinAddr: 0x10000BA4C, symSize: 0x28 }
  - { offset: 0x29A5F, size: 0x8, addend: 0x0, symName: __ZNSt3__114__split_bufferINS_7__stateIcEERNS_9allocatorIS2_EEE9__end_capB8ne180100Ev, symObjAddr: 0x8018, symBinAddr: 0x10000BA74, symSize: 0x28 }
  - { offset: 0x29A85, size: 0x8, addend: 0x0, symName: __ZNSt3__117__compressed_pairIPNS_7__stateIcEERNS_9allocatorIS2_EEEC2B8ne180100IDnS6_EEOT_OT0_, symObjAddr: 0x8040, symBinAddr: 0x10000BA9C, symSize: 0x48 }
  - { offset: 0x29ADD, size: 0x8, addend: 0x0, symName: __ZNSt3__122__compressed_pair_elemIRNS_9allocatorINS_7__stateIcEEEELi1ELb0EEC2B8ne180100IS5_vEEOT_, symObjAddr: 0x8088, symBinAddr: 0x10000BAE4, symSize: 0x20 }
  - { offset: 0x29B1F, size: 0x8, addend: 0x0, symName: __ZNSt3__19allocatorINS_7__stateIcEEE8allocateB8ne180100Em, symObjAddr: 0x80A8, symBinAddr: 0x10000BB04, symSize: 0x58 }
  - { offset: 0x29B53, size: 0x8, addend: 0x0, symName: __ZNSt3__117__compressed_pairIPNS_7__stateIcEERNS_9allocatorIS2_EEE6secondB8ne180100Ev, symObjAddr: 0x8100, symBinAddr: 0x10000BB5C, symSize: 0x28 }
  - { offset: 0x29B79, size: 0x8, addend: 0x0, symName: __ZNSt3__122__compressed_pair_elemIRNS_9allocatorINS_7__stateIcEEEELi1ELb0EE5__getB8ne180100Ev, symObjAddr: 0x8128, symBinAddr: 0x10000BB84, symSize: 0x18 }
  - { offset: 0x29B9F, size: 0x8, addend: 0x0, symName: __ZNSt3__117__compressed_pairIPNS_7__stateIcEERNS_9allocatorIS2_EEE5firstB8ne180100Ev, symObjAddr: 0x8140, symBinAddr: 0x10000BB9C, symSize: 0x24 }
  - { offset: 0x29BC5, size: 0x8, addend: 0x0, symName: __ZNKSt3__16vectorINS_7__stateIcEENS_9allocatorIS2_EEE17__annotate_deleteB8ne180100Ev, symObjAddr: 0x8164, symBinAddr: 0x10000BBC0, symSize: 0x10 }
  - { offset: 0x29BEB, size: 0x8, addend: 0x0, symName: __ZNSt3__116reverse_iteratorIPNS_7__stateIcEEEC1B8ne180100ES3_, symObjAddr: 0x82A0, symBinAddr: 0x10000BCFC, symSize: 0x34 }
  - { offset: 0x29C23, size: 0x8, addend: 0x0, symName: __ZNKSt3__116reverse_iteratorIPNS_7__stateIcEEE4baseB8ne180100Ev, symObjAddr: 0x82D4, symBinAddr: 0x10000BD30, symSize: 0x18 }
  - { offset: 0x29C49, size: 0x8, addend: 0x0, symName: __ZNKSt3__16vectorINS_7__stateIcEENS_9allocatorIS2_EEE14__annotate_newB8ne180100Em, symObjAddr: 0x8328, symBinAddr: 0x10000BD84, symSize: 0x14 }
  - { offset: 0x29C7E, size: 0x8, addend: 0x0, symName: __ZNSt3__129_AllocatorDestroyRangeReverseINS_9allocatorINS_7__stateIcEEEENS_16reverse_iteratorIPS3_EEEC1B8ne180100ERS4_RS7_SA_, symObjAddr: 0x8388, symBinAddr: 0x10000BDE4, symSize: 0x44 }
  - { offset: 0x29CD5, size: 0x8, addend: 0x0, symName: __ZNKSt3__116reverse_iteratorIPNS_7__stateIcEEEdeB8ne180100Ev, symObjAddr: 0x8434, symBinAddr: 0x10000BE90, symSize: 0x28 }
  - { offset: 0x29D09, size: 0x8, addend: 0x0, symName: __ZNSt3__116reverse_iteratorIPNS_7__stateIcEEEppB8ne180100Ev, symObjAddr: 0x845C, symBinAddr: 0x10000BEB8, symSize: 0x20 }
  - { offset: 0x29D2F, size: 0x8, addend: 0x0, symName: __ZNSt3__128__exception_guard_exceptionsINS_29_AllocatorDestroyRangeReverseINS_9allocatorINS_7__stateIcEEEENS_16reverse_iteratorIPS4_EEEEE10__completeB8ne180100Ev, symObjAddr: 0x847C, symBinAddr: 0x10000BED8, symSize: 0x1C }
  - { offset: 0x29D55, size: 0x8, addend: 0x0, symName: __ZNSt3__128__exception_guard_exceptionsINS_29_AllocatorDestroyRangeReverseINS_9allocatorINS_7__stateIcEEEENS_16reverse_iteratorIPS4_EEEEED1B8ne180100Ev, symObjAddr: 0x8498, symBinAddr: 0x10000BEF4, symSize: 0x2C }
  - { offset: 0x29D7F, size: 0x8, addend: 0x0, symName: __ZNSt3__128__exception_guard_exceptionsINS_29_AllocatorDestroyRangeReverseINS_9allocatorINS_7__stateIcEEEENS_16reverse_iteratorIPS4_EEEEEC1B8ne180100ES9_, symObjAddr: 0x84C4, symBinAddr: 0x10000BF20, symSize: 0x34 }
  - { offset: 0x29DB8, size: 0x8, addend: 0x0, symName: __ZNSt3__128__exception_guard_exceptionsINS_29_AllocatorDestroyRangeReverseINS_9allocatorINS_7__stateIcEEEENS_16reverse_iteratorIPS4_EEEEEC2B8ne180100ES9_, symObjAddr: 0x84F8, symBinAddr: 0x10000BF54, symSize: 0x30 }
  - { offset: 0x29DF1, size: 0x8, addend: 0x0, symName: __ZNSt3__129_AllocatorDestroyRangeReverseINS_9allocatorINS_7__stateIcEEEENS_16reverse_iteratorIPS3_EEEC2B8ne180100ERS4_RS7_SA_, symObjAddr: 0x8528, symBinAddr: 0x10000BF84, symSize: 0x38 }
  - { offset: 0x29E4E, size: 0x8, addend: 0x0, symName: __ZNSt3__119__to_address_helperINS_16reverse_iteratorIPNS_7__stateIcEEEEvE6__callB8ne180100ERKS5_, symObjAddr: 0x8560, symBinAddr: 0x10000BFBC, symSize: 0x38 }
  - { offset: 0x29E71, size: 0x8, addend: 0x0, symName: __ZNKSt3__116reverse_iteratorIPNS_7__stateIcEEEptB8ne180100Ev, symObjAddr: 0x8598, symBinAddr: 0x10000BFF4, symSize: 0x24 }
  - { offset: 0x29E97, size: 0x8, addend: 0x0, symName: __ZNSt3__128__exception_guard_exceptionsINS_29_AllocatorDestroyRangeReverseINS_9allocatorINS_7__stateIcEEEENS_16reverse_iteratorIPS4_EEEEED2B8ne180100Ev, symObjAddr: 0x85BC, symBinAddr: 0x10000C018, symSize: 0x50 }
  - { offset: 0x29EC1, size: 0x8, addend: 0x0, symName: __ZNKSt3__129_AllocatorDestroyRangeReverseINS_9allocatorINS_7__stateIcEEEENS_16reverse_iteratorIPS3_EEEclB8ne180100Ev, symObjAddr: 0x860C, symBinAddr: 0x10000C068, symSize: 0xB0 }
  - { offset: 0x29EE8, size: 0x8, addend: 0x0, symName: __ZNSt3__116reverse_iteratorINS0_IPNS_7__stateIcEEEEEC1B8ne180100ES4_, symObjAddr: 0x872C, symBinAddr: 0x10000C188, symSize: 0x3C }
  - { offset: 0x29F20, size: 0x8, addend: 0x0, symName: __ZNSt3__116allocator_traitsINS_9allocatorINS_7__stateIcEEEEE7destroyB8ne180100IS3_vEEvRS4_PT_, symObjAddr: 0x87C4, symBinAddr: 0x10000C220, symSize: 0x2C }
  - { offset: 0x29F5D, size: 0x8, addend: 0x0, symName: __ZNSt3__116reverse_iteratorINS0_IPNS_7__stateIcEEEEEppB8ne180100Ev, symObjAddr: 0x8814, symBinAddr: 0x10000C270, symSize: 0x30 }
  - { offset: 0x29F83, size: 0x8, addend: 0x0, symName: __ZNKSt3__116reverse_iteratorINS0_IPNS_7__stateIcEEEEE4baseB8ne180100Ev, symObjAddr: 0x8844, symBinAddr: 0x10000C2A0, symSize: 0x24 }
  - { offset: 0x29FA9, size: 0x8, addend: 0x0, symName: __ZNSt3__19allocatorINS_7__stateIcEEE7destroyB8ne180100EPS2_, symObjAddr: 0x8868, symBinAddr: 0x10000C2C4, symSize: 0x28 }
  - { offset: 0x29FE3, size: 0x8, addend: 0x0, symName: __ZNSt3__119__to_address_helperINS_16reverse_iteratorINS1_IPNS_7__stateIcEEEEEEvE6__callB8ne180100ERKS6_, symObjAddr: 0x8890, symBinAddr: 0x10000C2EC, symSize: 0x38 }
  - { offset: 0x2A006, size: 0x8, addend: 0x0, symName: __ZNKSt3__116reverse_iteratorINS0_IPNS_7__stateIcEEEEEptB8ne180100Ev, symObjAddr: 0x88C8, symBinAddr: 0x10000C324, symSize: 0x24 }
  - { offset: 0x2A02C, size: 0x8, addend: 0x0, symName: __ZNKSt3__116reverse_iteratorINS0_IPNS_7__stateIcEEEEEdeB8ne180100Ev, symObjAddr: 0x88EC, symBinAddr: 0x10000C348, symSize: 0x34 }
  - { offset: 0x2A060, size: 0x8, addend: 0x0, symName: __ZNSt3__116reverse_iteratorIPNS_7__stateIcEEEmmB8ne180100Ev, symObjAddr: 0x8920, symBinAddr: 0x10000C37C, symSize: 0x20 }
  - { offset: 0x2A086, size: 0x8, addend: 0x0, symName: __ZNSt3__116reverse_iteratorINS0_IPNS_7__stateIcEEEEEC2B8ne180100ES4_, symObjAddr: 0x8940, symBinAddr: 0x10000C39C, symSize: 0x2C }
  - { offset: 0x2A0BE, size: 0x8, addend: 0x0, symName: __ZNSt3__116reverse_iteratorIPNS_7__stateIcEEEC2B8ne180100ES3_, symObjAddr: 0x896C, symBinAddr: 0x10000C3C8, symSize: 0x28 }
  - { offset: 0x2A0F6, size: 0x8, addend: 0x0, symName: __ZNSt3__114__split_bufferINS_7__stateIcEERNS_9allocatorIS2_EEED2Ev, symObjAddr: 0x8994, symBinAddr: 0x10000C3F0, symSize: 0x84 }
  - { offset: 0x2A120, size: 0x8, addend: 0x0, symName: __ZNSt3__114__split_bufferINS_7__stateIcEERNS_9allocatorIS2_EEE5clearB8ne180100Ev, symObjAddr: 0x8A18, symBinAddr: 0x10000C474, symSize: 0x28 }
  - { offset: 0x2A146, size: 0x8, addend: 0x0, symName: __ZNSt3__116allocator_traitsINS_9allocatorINS_7__stateIcEEEEE10deallocateB8ne180100ERS4_PS3_m, symObjAddr: 0x8A40, symBinAddr: 0x10000C49C, symSize: 0x34 }
  - { offset: 0x2A188, size: 0x8, addend: 0x0, symName: __ZNKSt3__114__split_bufferINS_7__stateIcEERNS_9allocatorIS2_EEE8capacityB8ne180100Ev, symObjAddr: 0x8A74, symBinAddr: 0x10000C4D0, symSize: 0x40 }
  - { offset: 0x2A1AE, size: 0x8, addend: 0x0, symName: __ZNSt3__114__split_bufferINS_7__stateIcEERNS_9allocatorIS2_EEE17__destruct_at_endB8ne180100EPS2_, symObjAddr: 0x8AB4, symBinAddr: 0x10000C510, symSize: 0x2C }
  - { offset: 0x2A1E2, size: 0x8, addend: 0x0, symName: __ZNSt3__114__split_bufferINS_7__stateIcEERNS_9allocatorIS2_EEE17__destruct_at_endB8ne180100EPS2_NS_17integral_constantIbLb0EEE, symObjAddr: 0x8AE0, symBinAddr: 0x10000C53C, symSize: 0x7C }
  - { offset: 0x2A220, size: 0x8, addend: 0x0, symName: __ZNSt3__19allocatorINS_7__stateIcEEE10deallocateB8ne180100EPS2_m, symObjAddr: 0x8B5C, symBinAddr: 0x10000C5B8, symSize: 0x44 }
  - { offset: 0x2A262, size: 0x8, addend: 0x0, symName: __ZNKSt3__114__split_bufferINS_7__stateIcEERNS_9allocatorIS2_EEE9__end_capB8ne180100Ev, symObjAddr: 0x8BA0, symBinAddr: 0x10000C5FC, symSize: 0x28 }
  - { offset: 0x2A288, size: 0x8, addend: 0x0, symName: __ZNKSt3__117__compressed_pairIPNS_7__stateIcEERNS_9allocatorIS2_EEE5firstB8ne180100Ev, symObjAddr: 0x8BC8, symBinAddr: 0x10000C624, symSize: 0x24 }
  - { offset: 0x2A2AE, size: 0x8, addend: 0x0, symName: __ZNSt3__17__stateIcEC2B8ne180100Ev, symObjAddr: 0x8BEC, symBinAddr: 0x10000C648, symSize: 0x58 }
  - { offset: 0x2A2D8, size: 0x8, addend: 0x0, symName: __ZNSt3__16vectorINS_9sub_matchIPKcEENS_9allocatorIS4_EEEC1B8ne180100Ev, symObjAddr: 0x8C44, symBinAddr: 0x10000C6A0, symSize: 0x2C }
  - { offset: 0x2A302, size: 0x8, addend: 0x0, symName: __ZNSt3__16vectorINS_4pairImPKcEENS_9allocatorIS4_EEEC1B8ne180100Ev, symObjAddr: 0x8C70, symBinAddr: 0x10000C6CC, symSize: 0x2C }
  - { offset: 0x2A32C, size: 0x8, addend: 0x0, symName: __ZNSt3__16vectorINS_9sub_matchIPKcEENS_9allocatorIS4_EEEC2B8ne180100Ev, symObjAddr: 0x8C9C, symBinAddr: 0x10000C6F8, symSize: 0x4C }
  - { offset: 0x2A356, size: 0x8, addend: 0x0, symName: __ZNSt3__117__compressed_pairIPNS_9sub_matchIPKcEENS_9allocatorIS4_EEEC1B8ne180100IDnNS_18__default_init_tagEEEOT_OT0_, symObjAddr: 0x8CE8, symBinAddr: 0x10000C744, symSize: 0x3C }
  - { offset: 0x2A3AE, size: 0x8, addend: 0x0, symName: __ZNSt3__117__compressed_pairIPNS_9sub_matchIPKcEENS_9allocatorIS4_EEEC2B8ne180100IDnNS_18__default_init_tagEEEOT_OT0_, symObjAddr: 0x8D24, symBinAddr: 0x10000C780, symSize: 0x40 }
  - { offset: 0x2A406, size: 0x8, addend: 0x0, symName: __ZNSt3__122__compressed_pair_elemINS_9allocatorINS_9sub_matchIPKcEEEELi1ELb1EEC2B8ne180100ENS_18__default_init_tagE, symObjAddr: 0x8D64, symBinAddr: 0x10000C7C0, symSize: 0x2C }
  - { offset: 0x2A43A, size: 0x8, addend: 0x0, symName: __ZNSt3__16vectorINS_4pairImPKcEENS_9allocatorIS4_EEEC2B8ne180100Ev, symObjAddr: 0x8D90, symBinAddr: 0x10000C7EC, symSize: 0x4C }
  - { offset: 0x2A464, size: 0x8, addend: 0x0, symName: __ZNSt3__117__compressed_pairIPNS_4pairImPKcEENS_9allocatorIS4_EEEC1B8ne180100IDnNS_18__default_init_tagEEEOT_OT0_, symObjAddr: 0x8DDC, symBinAddr: 0x10000C838, symSize: 0x3C }
  - { offset: 0x2A4BC, size: 0x8, addend: 0x0, symName: __ZNSt3__117__compressed_pairIPNS_4pairImPKcEENS_9allocatorIS4_EEEC2B8ne180100IDnNS_18__default_init_tagEEEOT_OT0_, symObjAddr: 0x8E18, symBinAddr: 0x10000C874, symSize: 0x40 }
  - { offset: 0x2A514, size: 0x8, addend: 0x0, symName: __ZNSt3__122__compressed_pair_elemINS_9allocatorINS_4pairImPKcEEEELi1ELb1EEC2B8ne180100ENS_18__default_init_tagE, symObjAddr: 0x8E58, symBinAddr: 0x10000C8B4, symSize: 0x2C }
  - { offset: 0x2A548, size: 0x8, addend: 0x0, symName: __ZNSt3__19allocatorINS_4pairImPKcEEEC2B8ne180100Ev, symObjAddr: 0x8E84, symBinAddr: 0x10000C8E0, symSize: 0x2C }
  - { offset: 0x2A572, size: 0x8, addend: 0x0, symName: __ZNSt3__116__non_trivial_ifILb1ENS_9allocatorINS_4pairImPKcEEEEEC2B8ne180100Ev, symObjAddr: 0x8EB0, symBinAddr: 0x10000C90C, symSize: 0x14 }
  - { offset: 0x2A59C, size: 0x8, addend: 0x0, symName: __ZNSt3__17__stateIcED2Ev, symObjAddr: 0x8EC4, symBinAddr: 0x10000C920, symSize: 0x3C }
  - { offset: 0x2A5C9, size: 0x8, addend: 0x0, symName: __ZNSt3__16vectorINS_4pairImPKcEENS_9allocatorIS4_EEED1B8ne180100Ev, symObjAddr: 0x8F00, symBinAddr: 0x10000C95C, symSize: 0x2C }
  - { offset: 0x2A5F3, size: 0x8, addend: 0x0, symName: __ZNSt3__16vectorINS_4pairImPKcEENS_9allocatorIS4_EEED2B8ne180100Ev, symObjAddr: 0x8F2C, symBinAddr: 0x10000C988, symSize: 0x44 }
  - { offset: 0x2A61D, size: 0x8, addend: 0x0, symName: __ZNSt3__16vectorINS_4pairImPKcEENS_9allocatorIS4_EEE16__destroy_vectorC1B8ne180100ERS7_, symObjAddr: 0x8F70, symBinAddr: 0x10000C9CC, symSize: 0x34 }
  - { offset: 0x2A656, size: 0x8, addend: 0x0, symName: __ZNSt3__16vectorINS_4pairImPKcEENS_9allocatorIS4_EEE16__destroy_vectorclB8ne180100Ev, symObjAddr: 0x8FA4, symBinAddr: 0x10000CA00, symSize: 0x88 }
  - { offset: 0x2A67C, size: 0x8, addend: 0x0, symName: __ZNSt3__16vectorINS_4pairImPKcEENS_9allocatorIS4_EEE16__destroy_vectorC2B8ne180100ERS7_, symObjAddr: 0x902C, symBinAddr: 0x10000CA88, symSize: 0x20 }
  - { offset: 0x2A6B5, size: 0x8, addend: 0x0, symName: __ZNSt3__16vectorINS_4pairImPKcEENS_9allocatorIS4_EEE7__clearB8ne180100Ev, symObjAddr: 0x904C, symBinAddr: 0x10000CAA8, symSize: 0x28 }
  - { offset: 0x2A6DB, size: 0x8, addend: 0x0, symName: __ZNKSt3__16vectorINS_4pairImPKcEENS_9allocatorIS4_EEE17__annotate_deleteB8ne180100Ev, symObjAddr: 0x9074, symBinAddr: 0x10000CAD0, symSize: 0x10 }
  - { offset: 0x2A701, size: 0x8, addend: 0x0, symName: __ZNSt3__116allocator_traitsINS_9allocatorINS_4pairImPKcEEEEE10deallocateB8ne180100ERS6_PS5_m, symObjAddr: 0x9084, symBinAddr: 0x10000CAE0, symSize: 0x34 }
  - { offset: 0x2A743, size: 0x8, addend: 0x0, symName: __ZNKSt3__16vectorINS_4pairImPKcEENS_9allocatorIS4_EEE8capacityB8ne180100Ev, symObjAddr: 0x90B8, symBinAddr: 0x10000CB14, symSize: 0x40 }
  - { offset: 0x2A769, size: 0x8, addend: 0x0, symName: __ZNSt3__16vectorINS_4pairImPKcEENS_9allocatorIS4_EEE22__base_destruct_at_endB8ne180100EPS4_, symObjAddr: 0x90F8, symBinAddr: 0x10000CB54, symSize: 0x88 }
  - { offset: 0x2A7AD, size: 0x8, addend: 0x0, symName: __ZNSt3__116allocator_traitsINS_9allocatorINS_4pairImPKcEEEEE7destroyB8ne180100IS5_vEEvRS6_PT_, symObjAddr: 0x9180, symBinAddr: 0x10000CBDC, symSize: 0x2C }
  - { offset: 0x2A7EA, size: 0x8, addend: 0x0, symName: __ZNSt3__19allocatorINS_4pairImPKcEEE7destroyB8ne180100EPS4_, symObjAddr: 0x91C0, symBinAddr: 0x10000CC1C, symSize: 0x14 }
  - { offset: 0x2A81E, size: 0x8, addend: 0x0, symName: __ZNSt3__19allocatorINS_4pairImPKcEEE10deallocateB8ne180100EPS4_m, symObjAddr: 0x91D4, symBinAddr: 0x10000CC30, symSize: 0x40 }
  - { offset: 0x2A860, size: 0x8, addend: 0x0, symName: __ZNKSt3__16vectorINS_4pairImPKcEENS_9allocatorIS4_EEE9__end_capB8ne180100Ev, symObjAddr: 0x9214, symBinAddr: 0x10000CC70, symSize: 0x28 }
  - { offset: 0x2A886, size: 0x8, addend: 0x0, symName: __ZNKSt3__117__compressed_pairIPNS_4pairImPKcEENS_9allocatorIS4_EEE5firstB8ne180100Ev, symObjAddr: 0x923C, symBinAddr: 0x10000CC98, symSize: 0x24 }
  - { offset: 0x2A8AC, size: 0x8, addend: 0x0, symName: __ZNKSt3__122__compressed_pair_elemIPNS_4pairImPKcEELi0ELb0EE5__getB8ne180100Ev, symObjAddr: 0x9260, symBinAddr: 0x10000CCBC, symSize: 0x14 }
  - { offset: 0x2A8D2, size: 0x8, addend: 0x0, symName: __ZNSt3__16vectorINS_9sub_matchIPKcEENS_9allocatorIS4_EEE8__appendEmRKS4_, symObjAddr: 0x9274, symBinAddr: 0x10000CCD0, symSize: 0x110 }
  - { offset: 0x2A93C, size: 0x8, addend: 0x0, symName: __ZNSt3__114__split_bufferINS_9sub_matchIPKcEERNS_9allocatorIS4_EEEC1EmmS7_, symObjAddr: 0x9384, symBinAddr: 0x10000CDE0, symSize: 0x44 }
  - { offset: 0x2A992, size: 0x8, addend: 0x0, symName: __ZNSt3__114__split_bufferINS_9sub_matchIPKcEERNS_9allocatorIS4_EEE18__construct_at_endEmRKS4_, symObjAddr: 0x93C8, symBinAddr: 0x10000CE24, symSize: 0xB8 }
  - { offset: 0x2A9E5, size: 0x8, addend: 0x0, symName: __ZNSt3__114__split_bufferINS_9sub_matchIPKcEERNS_9allocatorIS4_EEED1Ev, symObjAddr: 0x9590, symBinAddr: 0x10000CFEC, symSize: 0x2C }
  - { offset: 0x2AA11, size: 0x8, addend: 0x0, symName: __ZNSt3__114__split_bufferINS_9sub_matchIPKcEERNS_9allocatorIS4_EEEC2EmmS7_, symObjAddr: 0x95BC, symBinAddr: 0x10000D018, symSize: 0xD8 }
  - { offset: 0x2AA84, size: 0x8, addend: 0x0, symName: __ZNSt3__117__compressed_pairIPNS_9sub_matchIPKcEERNS_9allocatorIS4_EEEC1B8ne180100IDnS8_EEOT_OT0_, symObjAddr: 0x9694, symBinAddr: 0x10000D0F0, symSize: 0x3C }
  - { offset: 0x2AADC, size: 0x8, addend: 0x0, symName: __ZNSt3__114__split_bufferINS_9sub_matchIPKcEERNS_9allocatorIS4_EEE7__allocB8ne180100Ev, symObjAddr: 0x96D0, symBinAddr: 0x10000D12C, symSize: 0x28 }
  - { offset: 0x2AB02, size: 0x8, addend: 0x0, symName: __ZNSt3__114__split_bufferINS_9sub_matchIPKcEERNS_9allocatorIS4_EEE9__end_capB8ne180100Ev, symObjAddr: 0x96F8, symBinAddr: 0x10000D154, symSize: 0x28 }
  - { offset: 0x2AB28, size: 0x8, addend: 0x0, symName: __ZNSt3__117__compressed_pairIPNS_9sub_matchIPKcEERNS_9allocatorIS4_EEEC2B8ne180100IDnS8_EEOT_OT0_, symObjAddr: 0x9720, symBinAddr: 0x10000D17C, symSize: 0x48 }
  - { offset: 0x2AB80, size: 0x8, addend: 0x0, symName: __ZNSt3__122__compressed_pair_elemIRNS_9allocatorINS_9sub_matchIPKcEEEELi1ELb0EEC2B8ne180100IS7_vEEOT_, symObjAddr: 0x9768, symBinAddr: 0x10000D1C4, symSize: 0x20 }
  - { offset: 0x2ABC2, size: 0x8, addend: 0x0, symName: __ZNSt3__117__compressed_pairIPNS_9sub_matchIPKcEERNS_9allocatorIS4_EEE6secondB8ne180100Ev, symObjAddr: 0x9788, symBinAddr: 0x10000D1E4, symSize: 0x28 }
  - { offset: 0x2ABE8, size: 0x8, addend: 0x0, symName: __ZNSt3__122__compressed_pair_elemIRNS_9allocatorINS_9sub_matchIPKcEEEELi1ELb0EE5__getB8ne180100Ev, symObjAddr: 0x97B0, symBinAddr: 0x10000D20C, symSize: 0x18 }
  - { offset: 0x2AC0E, size: 0x8, addend: 0x0, symName: __ZNSt3__117__compressed_pairIPNS_9sub_matchIPKcEERNS_9allocatorIS4_EEE5firstB8ne180100Ev, symObjAddr: 0x97C8, symBinAddr: 0x10000D224, symSize: 0x24 }
  - { offset: 0x2AC40, size: 0x8, addend: 0x0, symName: __ZNSt3__114__split_bufferINS_9sub_matchIPKcEERNS_9allocatorIS4_EEE21_ConstructTransactionC1B8ne180100EPPS4_m, symObjAddr: 0x97EC, symBinAddr: 0x10000D248, symSize: 0x3C }
  - { offset: 0x2AC86, size: 0x8, addend: 0x0, symName: __ZNSt3__114__split_bufferINS_9sub_matchIPKcEERNS_9allocatorIS4_EEE21_ConstructTransactionD1B8ne180100Ev, symObjAddr: 0x9828, symBinAddr: 0x10000D284, symSize: 0x2C }
  - { offset: 0x2ACB0, size: 0x8, addend: 0x0, symName: __ZNSt3__114__split_bufferINS_9sub_matchIPKcEERNS_9allocatorIS4_EEE21_ConstructTransactionC2B8ne180100EPPS4_m, symObjAddr: 0x9854, symBinAddr: 0x10000D2B0, symSize: 0x4C }
  - { offset: 0x2ACF6, size: 0x8, addend: 0x0, symName: __ZNSt3__114__split_bufferINS_9sub_matchIPKcEERNS_9allocatorIS4_EEE21_ConstructTransactionD2B8ne180100Ev, symObjAddr: 0x98A0, symBinAddr: 0x10000D2FC, symSize: 0x20 }
  - { offset: 0x2AD20, size: 0x8, addend: 0x0, symName: __ZNSt3__116reverse_iteratorIPNS_9sub_matchIPKcEEEC1B8ne180100ES5_, symObjAddr: 0x99EC, symBinAddr: 0x10000D448, symSize: 0x34 }
  - { offset: 0x2AD58, size: 0x8, addend: 0x0, symName: __ZNKSt3__116reverse_iteratorIPNS_9sub_matchIPKcEEE4baseB8ne180100Ev, symObjAddr: 0x9A20, symBinAddr: 0x10000D47C, symSize: 0x18 }
  - { offset: 0x2AD7E, size: 0x8, addend: 0x0, symName: __ZNSt3__129_AllocatorDestroyRangeReverseINS_9allocatorINS_9sub_matchIPKcEEEENS_16reverse_iteratorIPS5_EEEC1B8ne180100ERS6_RS9_SC_, symObjAddr: 0x9AC0, symBinAddr: 0x10000D51C, symSize: 0x44 }
  - { offset: 0x2ADDB, size: 0x8, addend: 0x0, symName: __ZNSt3__116allocator_traitsINS_9allocatorINS_9sub_matchIPKcEEEEE9constructB8ne180100IS5_JS5_EvEEvRS6_PT_DpOT0_, symObjAddr: 0x9B48, symBinAddr: 0x10000D5A4, symSize: 0x34 }
  - { offset: 0x2AE32, size: 0x8, addend: 0x0, symName: __ZNKSt3__116reverse_iteratorIPNS_9sub_matchIPKcEEEdeB8ne180100Ev, symObjAddr: 0x9BA0, symBinAddr: 0x10000D5FC, symSize: 0x28 }
  - { offset: 0x2AE66, size: 0x8, addend: 0x0, symName: __ZNSt3__116reverse_iteratorIPNS_9sub_matchIPKcEEEppB8ne180100Ev, symObjAddr: 0x9BC8, symBinAddr: 0x10000D624, symSize: 0x20 }
  - { offset: 0x2AE8C, size: 0x8, addend: 0x0, symName: __ZNSt3__128__exception_guard_exceptionsINS_29_AllocatorDestroyRangeReverseINS_9allocatorINS_9sub_matchIPKcEEEENS_16reverse_iteratorIPS6_EEEEE10__completeB8ne180100Ev, symObjAddr: 0x9BE8, symBinAddr: 0x10000D644, symSize: 0x1C }
  - { offset: 0x2AEB2, size: 0x8, addend: 0x0, symName: __ZNSt3__128__exception_guard_exceptionsINS_29_AllocatorDestroyRangeReverseINS_9allocatorINS_9sub_matchIPKcEEEENS_16reverse_iteratorIPS6_EEEEED1B8ne180100Ev, symObjAddr: 0x9C04, symBinAddr: 0x10000D660, symSize: 0x2C }
  - { offset: 0x2AEDC, size: 0x8, addend: 0x0, symName: __ZNSt3__128__exception_guard_exceptionsINS_29_AllocatorDestroyRangeReverseINS_9allocatorINS_9sub_matchIPKcEEEENS_16reverse_iteratorIPS6_EEEEEC1B8ne180100ESB_, symObjAddr: 0x9C30, symBinAddr: 0x10000D68C, symSize: 0x34 }
  - { offset: 0x2AF15, size: 0x8, addend: 0x0, symName: __ZNSt3__128__exception_guard_exceptionsINS_29_AllocatorDestroyRangeReverseINS_9allocatorINS_9sub_matchIPKcEEEENS_16reverse_iteratorIPS6_EEEEEC2B8ne180100ESB_, symObjAddr: 0x9C64, symBinAddr: 0x10000D6C0, symSize: 0x30 }
  - { offset: 0x2AF4E, size: 0x8, addend: 0x0, symName: __ZNSt3__129_AllocatorDestroyRangeReverseINS_9allocatorINS_9sub_matchIPKcEEEENS_16reverse_iteratorIPS5_EEEC2B8ne180100ERS6_RS9_SC_, symObjAddr: 0x9C94, symBinAddr: 0x10000D6F0, symSize: 0x38 }
  - { offset: 0x2AFA5, size: 0x8, addend: 0x0, symName: __ZNSt3__19allocatorINS_9sub_matchIPKcEEE9constructB8ne180100IS4_JS4_EEEvPT_DpOT0_, symObjAddr: 0x9CCC, symBinAddr: 0x10000D728, symSize: 0x30 }
  - { offset: 0x2B001, size: 0x8, addend: 0x0, symName: __ZNSt3__119__to_address_helperINS_16reverse_iteratorIPNS_9sub_matchIPKcEEEEvE6__callB8ne180100ERKS7_, symObjAddr: 0x9CFC, symBinAddr: 0x10000D758, symSize: 0x38 }
  - { offset: 0x2B024, size: 0x8, addend: 0x0, symName: __ZNKSt3__116reverse_iteratorIPNS_9sub_matchIPKcEEEptB8ne180100Ev, symObjAddr: 0x9D34, symBinAddr: 0x10000D790, symSize: 0x24 }
  - { offset: 0x2B04A, size: 0x8, addend: 0x0, symName: __ZNSt3__128__exception_guard_exceptionsINS_29_AllocatorDestroyRangeReverseINS_9allocatorINS_9sub_matchIPKcEEEENS_16reverse_iteratorIPS6_EEEEED2B8ne180100Ev, symObjAddr: 0x9D58, symBinAddr: 0x10000D7B4, symSize: 0x50 }
  - { offset: 0x2B074, size: 0x8, addend: 0x0, symName: __ZNKSt3__129_AllocatorDestroyRangeReverseINS_9allocatorINS_9sub_matchIPKcEEEENS_16reverse_iteratorIPS5_EEEclB8ne180100Ev, symObjAddr: 0x9DA8, symBinAddr: 0x10000D804, symSize: 0xB0 }
  - { offset: 0x2B09B, size: 0x8, addend: 0x0, symName: __ZNSt3__116reverse_iteratorINS0_IPNS_9sub_matchIPKcEEEEEC1B8ne180100ES6_, symObjAddr: 0x9EC8, symBinAddr: 0x10000D924, symSize: 0x3C }
  - { offset: 0x2B0D3, size: 0x8, addend: 0x0, symName: __ZNSt3__116reverse_iteratorINS0_IPNS_9sub_matchIPKcEEEEEppB8ne180100Ev, symObjAddr: 0x9F84, symBinAddr: 0x10000D9E0, symSize: 0x30 }
  - { offset: 0x2B0F9, size: 0x8, addend: 0x0, symName: __ZNKSt3__116reverse_iteratorINS0_IPNS_9sub_matchIPKcEEEEE4baseB8ne180100Ev, symObjAddr: 0x9FB4, symBinAddr: 0x10000DA10, symSize: 0x24 }
  - { offset: 0x2B125, size: 0x8, addend: 0x0, symName: __ZNSt3__119__to_address_helperINS_16reverse_iteratorINS1_IPNS_9sub_matchIPKcEEEEEEvE6__callB8ne180100ERKS8_, symObjAddr: 0x9FD8, symBinAddr: 0x10000DA34, symSize: 0x38 }
  - { offset: 0x2B148, size: 0x8, addend: 0x0, symName: __ZNKSt3__116reverse_iteratorINS0_IPNS_9sub_matchIPKcEEEEEptB8ne180100Ev, symObjAddr: 0xA010, symBinAddr: 0x10000DA6C, symSize: 0x24 }
  - { offset: 0x2B16E, size: 0x8, addend: 0x0, symName: __ZNKSt3__116reverse_iteratorINS0_IPNS_9sub_matchIPKcEEEEEdeB8ne180100Ev, symObjAddr: 0xA034, symBinAddr: 0x10000DA90, symSize: 0x34 }
  - { offset: 0x2B1A2, size: 0x8, addend: 0x0, symName: __ZNSt3__116reverse_iteratorIPNS_9sub_matchIPKcEEEmmB8ne180100Ev, symObjAddr: 0xA068, symBinAddr: 0x10000DAC4, symSize: 0x20 }
  - { offset: 0x2B1C8, size: 0x8, addend: 0x0, symName: __ZNSt3__116reverse_iteratorINS0_IPNS_9sub_matchIPKcEEEEEC2B8ne180100ES6_, symObjAddr: 0xA088, symBinAddr: 0x10000DAE4, symSize: 0x2C }
  - { offset: 0x2B200, size: 0x8, addend: 0x0, symName: __ZNSt3__116reverse_iteratorIPNS_9sub_matchIPKcEEEC2B8ne180100ES5_, symObjAddr: 0xA0B4, symBinAddr: 0x10000DB10, symSize: 0x28 }
  - { offset: 0x2B238, size: 0x8, addend: 0x0, symName: __ZNSt3__114__split_bufferINS_9sub_matchIPKcEERNS_9allocatorIS4_EEED2Ev, symObjAddr: 0xA0DC, symBinAddr: 0x10000DB38, symSize: 0x84 }
  - { offset: 0x2B264, size: 0x8, addend: 0x0, symName: __ZNSt3__114__split_bufferINS_9sub_matchIPKcEERNS_9allocatorIS4_EEE5clearB8ne180100Ev, symObjAddr: 0xA160, symBinAddr: 0x10000DBBC, symSize: 0x28 }
  - { offset: 0x2B28A, size: 0x8, addend: 0x0, symName: __ZNKSt3__114__split_bufferINS_9sub_matchIPKcEERNS_9allocatorIS4_EEE8capacityB8ne180100Ev, symObjAddr: 0xA188, symBinAddr: 0x10000DBE4, symSize: 0x40 }
  - { offset: 0x2B2B0, size: 0x8, addend: 0x0, symName: __ZNSt3__114__split_bufferINS_9sub_matchIPKcEERNS_9allocatorIS4_EEE17__destruct_at_endB8ne180100EPS4_, symObjAddr: 0xA1C8, symBinAddr: 0x10000DC24, symSize: 0x2C }
  - { offset: 0x2B2E4, size: 0x8, addend: 0x0, symName: __ZNSt3__114__split_bufferINS_9sub_matchIPKcEERNS_9allocatorIS4_EEE17__destruct_at_endB8ne180100EPS4_NS_17integral_constantIbLb0EEE, symObjAddr: 0xA1F4, symBinAddr: 0x10000DC50, symSize: 0x7C }
  - { offset: 0x2B324, size: 0x8, addend: 0x0, symName: __ZNKSt3__114__split_bufferINS_9sub_matchIPKcEERNS_9allocatorIS4_EEE9__end_capB8ne180100Ev, symObjAddr: 0xA270, symBinAddr: 0x10000DCCC, symSize: 0x28 }
  - { offset: 0x2B34A, size: 0x8, addend: 0x0, symName: __ZNKSt3__117__compressed_pairIPNS_9sub_matchIPKcEERNS_9allocatorIS4_EEE5firstB8ne180100Ev, symObjAddr: 0xA298, symBinAddr: 0x10000DCF4, symSize: 0x24 }
  - { offset: 0x2B370, size: 0x8, addend: 0x0, symName: __ZNKSt3__16vectorINS_4pairImPKcEENS_9allocatorIS4_EEE4sizeB8ne180100Ev, symObjAddr: 0xA2BC, symBinAddr: 0x10000DD18, symSize: 0x28 }
  - { offset: 0x2B396, size: 0x8, addend: 0x0, symName: __ZNSt3__16vectorINS_4pairImPKcEENS_9allocatorIS4_EEE8__appendEm, symObjAddr: 0xA2E4, symBinAddr: 0x10000DD40, symSize: 0x104 }
  - { offset: 0x2B3F1, size: 0x8, addend: 0x0, symName: __ZNSt3__16vectorINS_4pairImPKcEENS_9allocatorIS4_EEE17__destruct_at_endB8ne180100EPS4_, symObjAddr: 0xA3E8, symBinAddr: 0x10000DE44, symSize: 0x4C }
  - { offset: 0x2B435, size: 0x8, addend: 0x0, symName: __ZNSt3__16vectorINS_4pairImPKcEENS_9allocatorIS4_EEE18__construct_at_endEm, symObjAddr: 0xA434, symBinAddr: 0x10000DE90, symSize: 0xC4 }
  - { offset: 0x2B4A7, size: 0x8, addend: 0x0, symName: __ZNKSt3__16vectorINS_4pairImPKcEENS_9allocatorIS4_EEE11__recommendB8ne180100Em, symObjAddr: 0xA4F8, symBinAddr: 0x10000DF54, symSize: 0xAC }
  - { offset: 0x2B4FC, size: 0x8, addend: 0x0, symName: __ZNSt3__114__split_bufferINS_4pairImPKcEERNS_9allocatorIS4_EEEC1EmmS7_, symObjAddr: 0xA5A4, symBinAddr: 0x10000E000, symSize: 0x44 }
  - { offset: 0x2B552, size: 0x8, addend: 0x0, symName: __ZNSt3__114__split_bufferINS_4pairImPKcEERNS_9allocatorIS4_EEE18__construct_at_endEm, symObjAddr: 0xA5E8, symBinAddr: 0x10000E044, symSize: 0xB0 }
  - { offset: 0x2B595, size: 0x8, addend: 0x0, symName: __ZNSt3__114__split_bufferINS_4pairImPKcEERNS_9allocatorIS4_EEED1Ev, symObjAddr: 0xA7A8, symBinAddr: 0x10000E204, symSize: 0x2C }
  - { offset: 0x2B5DD, size: 0x8, addend: 0x0, symName: __ZNSt3__16vectorINS_4pairImPKcEENS_9allocatorIS4_EEE21_ConstructTransactionC1B8ne180100ERS7_m, symObjAddr: 0xA7D4, symBinAddr: 0x10000E230, symSize: 0x3C }
  - { offset: 0x2B625, size: 0x8, addend: 0x0, symName: __ZNSt3__116allocator_traitsINS_9allocatorINS_4pairImPKcEEEEE9constructB8ne180100IS5_JEvEEvRS6_PT_DpOT0_, symObjAddr: 0xA810, symBinAddr: 0x10000E26C, symSize: 0x2C }
  - { offset: 0x2B667, size: 0x8, addend: 0x0, symName: __ZNSt3__16vectorINS_4pairImPKcEENS_9allocatorIS4_EEE21_ConstructTransactionD1B8ne180100Ev, symObjAddr: 0xA83C, symBinAddr: 0x10000E298, symSize: 0x2C }
  - { offset: 0x2B691, size: 0x8, addend: 0x0, symName: __ZNSt3__16vectorINS_4pairImPKcEENS_9allocatorIS4_EEE21_ConstructTransactionC2B8ne180100ERS7_m, symObjAddr: 0xA868, symBinAddr: 0x10000E2C4, symSize: 0x44 }
  - { offset: 0x2B6D9, size: 0x8, addend: 0x0, symName: __ZNSt3__19allocatorINS_4pairImPKcEEE9constructB8ne180100IS4_JEEEvPT_DpOT0_, symObjAddr: 0xA8AC, symBinAddr: 0x10000E308, symSize: 0x28 }
  - { offset: 0x2B71B, size: 0x8, addend: 0x0, symName: __ZNSt3__14pairImPKcEC1B8ne180100ILb1ETnNS_9enable_ifIXclsr13_CheckArgsDepIXT_EEE25__enable_implicit_defaultEEiE4typeELi0EEEv, symObjAddr: 0xA8D4, symBinAddr: 0x10000E330, symSize: 0x2C }
  - { offset: 0x2B755, size: 0x8, addend: 0x0, symName: __ZNSt3__14pairImPKcEC2B8ne180100ILb1ETnNS_9enable_ifIXclsr13_CheckArgsDepIXT_EEE25__enable_implicit_defaultEEiE4typeELi0EEEv, symObjAddr: 0xA900, symBinAddr: 0x10000E35C, symSize: 0x1C }
  - { offset: 0x2B78F, size: 0x8, addend: 0x0, symName: __ZNSt3__16vectorINS_4pairImPKcEENS_9allocatorIS4_EEE21_ConstructTransactionD2B8ne180100Ev, symObjAddr: 0xA91C, symBinAddr: 0x10000E378, symSize: 0x20 }
  - { offset: 0x2B7B9, size: 0x8, addend: 0x0, symName: __ZNKSt3__16vectorINS_4pairImPKcEENS_9allocatorIS4_EEE8max_sizeEv, symObjAddr: 0xA93C, symBinAddr: 0x10000E398, symSize: 0x60 }
  - { offset: 0x2B7E1, size: 0x8, addend: 0x0, symName: __ZNKSt3__16vectorINS_4pairImPKcEENS_9allocatorIS4_EEE20__throw_length_errorB8ne180100Ev, symObjAddr: 0xA99C, symBinAddr: 0x10000E3F8, symSize: 0x1C }
  - { offset: 0x2B812, size: 0x8, addend: 0x0, symName: __ZNSt3__116allocator_traitsINS_9allocatorINS_4pairImPKcEEEEE8max_sizeB8ne180100IS6_vEEmRKS6_, symObjAddr: 0xA9B8, symBinAddr: 0x10000E414, symSize: 0x24 }
  - { offset: 0x2B840, size: 0x8, addend: 0x0, symName: __ZNKSt3__16vectorINS_4pairImPKcEENS_9allocatorIS4_EEE7__allocB8ne180100Ev, symObjAddr: 0xA9DC, symBinAddr: 0x10000E438, symSize: 0x28 }
  - { offset: 0x2B866, size: 0x8, addend: 0x0, symName: __ZNKSt3__19allocatorINS_4pairImPKcEEE8max_sizeB8ne180100Ev, symObjAddr: 0xAA04, symBinAddr: 0x10000E460, symSize: 0x14 }
  - { offset: 0x2B88C, size: 0x8, addend: 0x0, symName: __ZNKSt3__117__compressed_pairIPNS_4pairImPKcEENS_9allocatorIS4_EEE6secondB8ne180100Ev, symObjAddr: 0xAA18, symBinAddr: 0x10000E474, symSize: 0x24 }
  - { offset: 0x2B8B2, size: 0x8, addend: 0x0, symName: __ZNKSt3__122__compressed_pair_elemINS_9allocatorINS_4pairImPKcEEEELi1ELb1EE5__getB8ne180100Ev, symObjAddr: 0xAA3C, symBinAddr: 0x10000E498, symSize: 0x14 }
  - { offset: 0x2B8D8, size: 0x8, addend: 0x0, symName: __ZNSt3__114__split_bufferINS_4pairImPKcEERNS_9allocatorIS4_EEEC2EmmS7_, symObjAddr: 0xAA50, symBinAddr: 0x10000E4AC, symSize: 0xCC }
  - { offset: 0x2B94B, size: 0x8, addend: 0x0, symName: __ZNSt3__117__compressed_pairIPNS_4pairImPKcEERNS_9allocatorIS4_EEEC1B8ne180100IDnS8_EEOT_OT0_, symObjAddr: 0xAB1C, symBinAddr: 0x10000E578, symSize: 0x3C }
  - { offset: 0x2B9A3, size: 0x8, addend: 0x0, symName: __ZNSt3__114__split_bufferINS_4pairImPKcEERNS_9allocatorIS4_EEE7__allocB8ne180100Ev, symObjAddr: 0xAB98, symBinAddr: 0x10000E5F4, symSize: 0x28 }
  - { offset: 0x2B9C9, size: 0x8, addend: 0x0, symName: __ZNSt3__114__split_bufferINS_4pairImPKcEERNS_9allocatorIS4_EEE9__end_capB8ne180100Ev, symObjAddr: 0xABC0, symBinAddr: 0x10000E61C, symSize: 0x28 }
  - { offset: 0x2B9EF, size: 0x8, addend: 0x0, symName: __ZNSt3__117__compressed_pairIPNS_4pairImPKcEERNS_9allocatorIS4_EEEC2B8ne180100IDnS8_EEOT_OT0_, symObjAddr: 0xABE8, symBinAddr: 0x10000E644, symSize: 0x48 }
  - { offset: 0x2BA47, size: 0x8, addend: 0x0, symName: __ZNSt3__122__compressed_pair_elemIRNS_9allocatorINS_4pairImPKcEEEELi1ELb0EEC2B8ne180100IS7_vEEOT_, symObjAddr: 0xAC30, symBinAddr: 0x10000E68C, symSize: 0x20 }
  - { offset: 0x2BA89, size: 0x8, addend: 0x0, symName: __ZNSt3__19allocatorINS_4pairImPKcEEE8allocateB8ne180100Em, symObjAddr: 0xAC50, symBinAddr: 0x10000E6AC, symSize: 0x54 }
  - { offset: 0x2BABD, size: 0x8, addend: 0x0, symName: __ZNSt3__117__compressed_pairIPNS_4pairImPKcEERNS_9allocatorIS4_EEE6secondB8ne180100Ev, symObjAddr: 0xACA4, symBinAddr: 0x10000E700, symSize: 0x28 }
  - { offset: 0x2BAE3, size: 0x8, addend: 0x0, symName: __ZNSt3__122__compressed_pair_elemIRNS_9allocatorINS_4pairImPKcEEEELi1ELb0EE5__getB8ne180100Ev, symObjAddr: 0xACCC, symBinAddr: 0x10000E728, symSize: 0x18 }
  - { offset: 0x2BB09, size: 0x8, addend: 0x0, symName: __ZNSt3__117__compressed_pairIPNS_4pairImPKcEERNS_9allocatorIS4_EEE5firstB8ne180100Ev, symObjAddr: 0xACE4, symBinAddr: 0x10000E740, symSize: 0x24 }
  - { offset: 0x2BB3B, size: 0x8, addend: 0x0, symName: __ZNSt3__114__split_bufferINS_4pairImPKcEERNS_9allocatorIS4_EEE21_ConstructTransactionC1B8ne180100EPPS4_m, symObjAddr: 0xAD08, symBinAddr: 0x10000E764, symSize: 0x3C }
  - { offset: 0x2BB81, size: 0x8, addend: 0x0, symName: __ZNSt3__114__split_bufferINS_4pairImPKcEERNS_9allocatorIS4_EEE21_ConstructTransactionD1B8ne180100Ev, symObjAddr: 0xAD44, symBinAddr: 0x10000E7A0, symSize: 0x2C }
  - { offset: 0x2BBAB, size: 0x8, addend: 0x0, symName: __ZNSt3__114__split_bufferINS_4pairImPKcEERNS_9allocatorIS4_EEE21_ConstructTransactionC2B8ne180100EPPS4_m, symObjAddr: 0xAD70, symBinAddr: 0x10000E7CC, symSize: 0x44 }
  - { offset: 0x2BBF1, size: 0x8, addend: 0x0, symName: __ZNSt3__114__split_bufferINS_4pairImPKcEERNS_9allocatorIS4_EEE21_ConstructTransactionD2B8ne180100Ev, symObjAddr: 0xADB4, symBinAddr: 0x10000E810, symSize: 0x20 }
  - { offset: 0x2BC1B, size: 0x8, addend: 0x0, symName: __ZNSt3__116reverse_iteratorIPNS_4pairImPKcEEEC1B8ne180100ES5_, symObjAddr: 0xAF00, symBinAddr: 0x10000E95C, symSize: 0x34 }
  - { offset: 0x2BC53, size: 0x8, addend: 0x0, symName: __ZNKSt3__116reverse_iteratorIPNS_4pairImPKcEEE4baseB8ne180100Ev, symObjAddr: 0xAF34, symBinAddr: 0x10000E990, symSize: 0x18 }
  - { offset: 0x2BC79, size: 0x8, addend: 0x0, symName: __ZNKSt3__16vectorINS_4pairImPKcEENS_9allocatorIS4_EEE14__annotate_newB8ne180100Em, symObjAddr: 0xAF88, symBinAddr: 0x10000E9E4, symSize: 0x14 }
  - { offset: 0x2BCAE, size: 0x8, addend: 0x0, symName: __ZNSt3__129_AllocatorDestroyRangeReverseINS_9allocatorINS_4pairImPKcEEEENS_16reverse_iteratorIPS5_EEEC1B8ne180100ERS6_RS9_SC_, symObjAddr: 0xAFE8, symBinAddr: 0x10000EA44, symSize: 0x44 }
  - { offset: 0x2BD05, size: 0x8, addend: 0x0, symName: __ZNSt3__116allocator_traitsINS_9allocatorINS_4pairImPKcEEEEE9constructB8ne180100IS5_JS5_EvEEvRS6_PT_DpOT0_, symObjAddr: 0xB070, symBinAddr: 0x10000EACC, symSize: 0x34 }
  - { offset: 0x2BD5C, size: 0x8, addend: 0x0, symName: __ZNKSt3__116reverse_iteratorIPNS_4pairImPKcEEEdeB8ne180100Ev, symObjAddr: 0xB0C8, symBinAddr: 0x10000EB24, symSize: 0x28 }
  - { offset: 0x2BD90, size: 0x8, addend: 0x0, symName: __ZNSt3__116reverse_iteratorIPNS_4pairImPKcEEEppB8ne180100Ev, symObjAddr: 0xB0F0, symBinAddr: 0x10000EB4C, symSize: 0x20 }
  - { offset: 0x2BDB6, size: 0x8, addend: 0x0, symName: __ZNSt3__128__exception_guard_exceptionsINS_29_AllocatorDestroyRangeReverseINS_9allocatorINS_4pairImPKcEEEENS_16reverse_iteratorIPS6_EEEEE10__completeB8ne180100Ev, symObjAddr: 0xB110, symBinAddr: 0x10000EB6C, symSize: 0x1C }
  - { offset: 0x2BDDC, size: 0x8, addend: 0x0, symName: __ZNSt3__128__exception_guard_exceptionsINS_29_AllocatorDestroyRangeReverseINS_9allocatorINS_4pairImPKcEEEENS_16reverse_iteratorIPS6_EEEEED1B8ne180100Ev, symObjAddr: 0xB12C, symBinAddr: 0x10000EB88, symSize: 0x2C }
  - { offset: 0x2BE06, size: 0x8, addend: 0x0, symName: __ZNSt3__128__exception_guard_exceptionsINS_29_AllocatorDestroyRangeReverseINS_9allocatorINS_4pairImPKcEEEENS_16reverse_iteratorIPS6_EEEEEC1B8ne180100ESB_, symObjAddr: 0xB158, symBinAddr: 0x10000EBB4, symSize: 0x34 }
  - { offset: 0x2BE3F, size: 0x8, addend: 0x0, symName: __ZNSt3__128__exception_guard_exceptionsINS_29_AllocatorDestroyRangeReverseINS_9allocatorINS_4pairImPKcEEEENS_16reverse_iteratorIPS6_EEEEEC2B8ne180100ESB_, symObjAddr: 0xB18C, symBinAddr: 0x10000EBE8, symSize: 0x30 }
  - { offset: 0x2BE78, size: 0x8, addend: 0x0, symName: __ZNSt3__129_AllocatorDestroyRangeReverseINS_9allocatorINS_4pairImPKcEEEENS_16reverse_iteratorIPS5_EEEC2B8ne180100ERS6_RS9_SC_, symObjAddr: 0xB1BC, symBinAddr: 0x10000EC18, symSize: 0x38 }
  - { offset: 0x2BECF, size: 0x8, addend: 0x0, symName: __ZNSt3__19allocatorINS_4pairImPKcEEE9constructB8ne180100IS4_JS4_EEEvPT_DpOT0_, symObjAddr: 0xB1F4, symBinAddr: 0x10000EC50, symSize: 0x28 }
  - { offset: 0x2BF2B, size: 0x8, addend: 0x0, symName: __ZNSt3__119__to_address_helperINS_16reverse_iteratorIPNS_4pairImPKcEEEEvE6__callB8ne180100ERKS7_, symObjAddr: 0xB21C, symBinAddr: 0x10000EC78, symSize: 0x38 }
  - { offset: 0x2BF4E, size: 0x8, addend: 0x0, symName: __ZNKSt3__116reverse_iteratorIPNS_4pairImPKcEEEptB8ne180100Ev, symObjAddr: 0xB254, symBinAddr: 0x10000ECB0, symSize: 0x24 }
  - { offset: 0x2BF74, size: 0x8, addend: 0x0, symName: __ZNSt3__128__exception_guard_exceptionsINS_29_AllocatorDestroyRangeReverseINS_9allocatorINS_4pairImPKcEEEENS_16reverse_iteratorIPS6_EEEEED2B8ne180100Ev, symObjAddr: 0xB278, symBinAddr: 0x10000ECD4, symSize: 0x50 }
  - { offset: 0x2BF9E, size: 0x8, addend: 0x0, symName: __ZNKSt3__129_AllocatorDestroyRangeReverseINS_9allocatorINS_4pairImPKcEEEENS_16reverse_iteratorIPS5_EEEclB8ne180100Ev, symObjAddr: 0xB2C8, symBinAddr: 0x10000ED24, symSize: 0xB0 }
  - { offset: 0x2BFC5, size: 0x8, addend: 0x0, symName: __ZNSt3__116reverse_iteratorINS0_IPNS_4pairImPKcEEEEEC1B8ne180100ES6_, symObjAddr: 0xB3E8, symBinAddr: 0x10000EE44, symSize: 0x3C }
  - { offset: 0x2BFFD, size: 0x8, addend: 0x0, symName: __ZNSt3__116reverse_iteratorINS0_IPNS_4pairImPKcEEEEEppB8ne180100Ev, symObjAddr: 0xB4A4, symBinAddr: 0x10000EF00, symSize: 0x30 }
  - { offset: 0x2C023, size: 0x8, addend: 0x0, symName: __ZNKSt3__116reverse_iteratorINS0_IPNS_4pairImPKcEEEEE4baseB8ne180100Ev, symObjAddr: 0xB4D4, symBinAddr: 0x10000EF30, symSize: 0x24 }
  - { offset: 0x2C04F, size: 0x8, addend: 0x0, symName: __ZNSt3__119__to_address_helperINS_16reverse_iteratorINS1_IPNS_4pairImPKcEEEEEEvE6__callB8ne180100ERKS8_, symObjAddr: 0xB4F8, symBinAddr: 0x10000EF54, symSize: 0x38 }
  - { offset: 0x2C072, size: 0x8, addend: 0x0, symName: __ZNKSt3__116reverse_iteratorINS0_IPNS_4pairImPKcEEEEEptB8ne180100Ev, symObjAddr: 0xB530, symBinAddr: 0x10000EF8C, symSize: 0x24 }
  - { offset: 0x2C098, size: 0x8, addend: 0x0, symName: __ZNKSt3__116reverse_iteratorINS0_IPNS_4pairImPKcEEEEEdeB8ne180100Ev, symObjAddr: 0xB554, symBinAddr: 0x10000EFB0, symSize: 0x34 }
  - { offset: 0x2C0CC, size: 0x8, addend: 0x0, symName: __ZNSt3__116reverse_iteratorIPNS_4pairImPKcEEEmmB8ne180100Ev, symObjAddr: 0xB588, symBinAddr: 0x10000EFE4, symSize: 0x20 }
  - { offset: 0x2C0F2, size: 0x8, addend: 0x0, symName: __ZNSt3__116reverse_iteratorINS0_IPNS_4pairImPKcEEEEEC2B8ne180100ES6_, symObjAddr: 0xB5A8, symBinAddr: 0x10000F004, symSize: 0x2C }
  - { offset: 0x2C12A, size: 0x8, addend: 0x0, symName: __ZNSt3__116reverse_iteratorIPNS_4pairImPKcEEEC2B8ne180100ES5_, symObjAddr: 0xB5D4, symBinAddr: 0x10000F030, symSize: 0x28 }
  - { offset: 0x2C162, size: 0x8, addend: 0x0, symName: __ZNSt3__114__split_bufferINS_4pairImPKcEERNS_9allocatorIS4_EEED2Ev, symObjAddr: 0xB5FC, symBinAddr: 0x10000F058, symSize: 0x84 }
  - { offset: 0x2C18E, size: 0x8, addend: 0x0, symName: __ZNSt3__114__split_bufferINS_4pairImPKcEERNS_9allocatorIS4_EEE5clearB8ne180100Ev, symObjAddr: 0xB680, symBinAddr: 0x10000F0DC, symSize: 0x28 }
  - { offset: 0x2C1B4, size: 0x8, addend: 0x0, symName: __ZNKSt3__114__split_bufferINS_4pairImPKcEERNS_9allocatorIS4_EEE8capacityB8ne180100Ev, symObjAddr: 0xB6A8, symBinAddr: 0x10000F104, symSize: 0x40 }
  - { offset: 0x2C1DA, size: 0x8, addend: 0x0, symName: __ZNSt3__114__split_bufferINS_4pairImPKcEERNS_9allocatorIS4_EEE17__destruct_at_endB8ne180100EPS4_, symObjAddr: 0xB6E8, symBinAddr: 0x10000F144, symSize: 0x2C }
  - { offset: 0x2C20E, size: 0x8, addend: 0x0, symName: __ZNSt3__114__split_bufferINS_4pairImPKcEERNS_9allocatorIS4_EEE17__destruct_at_endB8ne180100EPS4_NS_17integral_constantIbLb0EEE, symObjAddr: 0xB714, symBinAddr: 0x10000F170, symSize: 0x7C }
  - { offset: 0x2C24E, size: 0x8, addend: 0x0, symName: __ZNKSt3__114__split_bufferINS_4pairImPKcEERNS_9allocatorIS4_EEE9__end_capB8ne180100Ev, symObjAddr: 0xB790, symBinAddr: 0x10000F1EC, symSize: 0x28 }
  - { offset: 0x2C274, size: 0x8, addend: 0x0, symName: __ZNKSt3__117__compressed_pairIPNS_4pairImPKcEERNS_9allocatorIS4_EEE5firstB8ne180100Ev, symObjAddr: 0xB7B8, symBinAddr: 0x10000F214, symSize: 0x24 }
  - { offset: 0x2C29A, size: 0x8, addend: 0x0, symName: __ZNKSt3__16vectorINS_4pairImPKcEENS_9allocatorIS4_EEE17__annotate_shrinkB8ne180100Em, symObjAddr: 0xB7DC, symBinAddr: 0x10000F238, symSize: 0x14 }
  - { offset: 0x2C2CF, size: 0x8, addend: 0x0, symName: __ZNSt3__16vectorINS_7__stateIcEENS_9allocatorIS2_EEE17__destruct_at_endB8ne180100EPS2_, symObjAddr: 0xB7F0, symBinAddr: 0x10000F24C, symSize: 0x4C }
  - { offset: 0x2C313, size: 0x8, addend: 0x0, symName: __ZNSt3__16vectorINS_7__stateIcEENS_9allocatorIS2_EEE22__base_destruct_at_endB8ne180100EPS2_, symObjAddr: 0xB83C, symBinAddr: 0x10000F298, symSize: 0x88 }
  - { offset: 0x2C357, size: 0x8, addend: 0x0, symName: __ZNKSt3__16vectorINS_7__stateIcEENS_9allocatorIS2_EEE17__annotate_shrinkB8ne180100Em, symObjAddr: 0xB8C4, symBinAddr: 0x10000F320, symSize: 0x14 }
  - { offset: 0x2C38C, size: 0x8, addend: 0x0, symName: __ZNSt3__17__stateIcEC2ERKS1_, symObjAddr: 0xB8D8, symBinAddr: 0x10000F334, symSize: 0xA0 }
  - { offset: 0x2C3C2, size: 0x8, addend: 0x0, symName: __ZNSt3__16vectorINS_9sub_matchIPKcEENS_9allocatorIS4_EEEC1ERKS7_, symObjAddr: 0xB978, symBinAddr: 0x10000F3D4, symSize: 0x34 }
  - { offset: 0x2C3FD, size: 0x8, addend: 0x0, symName: __ZNSt3__16vectorINS_4pairImPKcEENS_9allocatorIS4_EEEC1ERKS7_, symObjAddr: 0xB9AC, symBinAddr: 0x10000F408, symSize: 0x34 }
  - { offset: 0x2C438, size: 0x8, addend: 0x0, symName: __ZNSt3__16vectorINS_9sub_matchIPKcEENS_9allocatorIS4_EEEC2ERKS7_, symObjAddr: 0xB9E0, symBinAddr: 0x10000F43C, symSize: 0x94 }
  - { offset: 0x2C473, size: 0x8, addend: 0x0, symName: __ZNSt3__116allocator_traitsINS_9allocatorINS_9sub_matchIPKcEEEEE37select_on_container_copy_constructionB8ne180100IS6_vvEES6_RKS6_, symObjAddr: 0xBA74, symBinAddr: 0x10000F4D0, symSize: 0x10 }
  - { offset: 0x2C4A2, size: 0x8, addend: 0x0, symName: __ZNSt3__16vectorINS_9sub_matchIPKcEENS_9allocatorIS4_EEE16__init_with_sizeB8ne180100IPS4_S9_EEvT_T0_m, symObjAddr: 0xBA84, symBinAddr: 0x10000F4E0, symSize: 0xB4 }
  - { offset: 0x2C516, size: 0x8, addend: 0x0, symName: __ZNSt3__16vectorINS_9sub_matchIPKcEENS_9allocatorIS4_EEE18__construct_at_endIPS4_S9_EEvT_T0_m, symObjAddr: 0xBB78, symBinAddr: 0x10000F5D4, symSize: 0x8C }
  - { offset: 0x2C58A, size: 0x8, addend: 0x0, symName: __ZNSt3__128__exception_guard_exceptionsINS_6vectorINS_9sub_matchIPKcEENS_9allocatorIS5_EEE16__destroy_vectorEE10__completeB8ne180100Ev, symObjAddr: 0xBC04, symBinAddr: 0x10000F660, symSize: 0x1C }
  - { offset: 0x2C5B0, size: 0x8, addend: 0x0, symName: __ZNSt3__128__exception_guard_exceptionsINS_6vectorINS_9sub_matchIPKcEENS_9allocatorIS5_EEE16__destroy_vectorEED1B8ne180100Ev, symObjAddr: 0xBC20, symBinAddr: 0x10000F67C, symSize: 0x2C }
  - { offset: 0x2C5DA, size: 0x8, addend: 0x0, symName: __ZNSt3__128__exception_guard_exceptionsINS_6vectorINS_9sub_matchIPKcEENS_9allocatorIS5_EEE16__destroy_vectorEEC1B8ne180100ES9_, symObjAddr: 0xBC4C, symBinAddr: 0x10000F6A8, symSize: 0x34 }
  - { offset: 0x2C612, size: 0x8, addend: 0x0, symName: __ZNSt3__128__exception_guard_exceptionsINS_6vectorINS_9sub_matchIPKcEENS_9allocatorIS5_EEE16__destroy_vectorEEC2B8ne180100ES9_, symObjAddr: 0xBC80, symBinAddr: 0x10000F6DC, symSize: 0x24 }
  - { offset: 0x2C66D, size: 0x8, addend: 0x0, symName: __ZNSt3__14pairIPNS_9sub_matchIPKcEES5_EC1B8ne180100IS5_S5_TnNS_9enable_ifIXclsr10_CheckArgsE17__enable_implicitIT_T0_EEEiE4typeELi0EEEOS9_OSA_, symObjAddr: 0xBF0C, symBinAddr: 0x10000F968, symSize: 0x3C }
  - { offset: 0x2C6CB, size: 0x8, addend: 0x0, symName: __ZNSt3__14pairIPNS_9sub_matchIPKcEES5_EC2B8ne180100IS5_S5_TnNS_9enable_ifIXclsr10_CheckArgsE17__enable_implicitIT_T0_EEEiE4typeELi0EEEOS9_OSA_, symObjAddr: 0xBF48, symBinAddr: 0x10000F9A4, symSize: 0x34 }
  - { offset: 0x2C729, size: 0x8, addend: 0x0, symName: __ZNSt3__129_AllocatorDestroyRangeReverseINS_9allocatorINS_9sub_matchIPKcEEEEPS5_EC1B8ne180100ERS6_RS7_SA_, symObjAddr: 0xBFC8, symBinAddr: 0x10000FA24, symSize: 0x44 }
  - { offset: 0x2C780, size: 0x8, addend: 0x0, symName: __ZNSt3__116allocator_traitsINS_9allocatorINS_9sub_matchIPKcEEEEE9constructB8ne180100IS5_JRS5_EvEEvRS6_PT_DpOT0_, symObjAddr: 0xC00C, symBinAddr: 0x10000FA68, symSize: 0x34 }
  - { offset: 0x2C7D7, size: 0x8, addend: 0x0, symName: __ZNSt3__128__exception_guard_exceptionsINS_29_AllocatorDestroyRangeReverseINS_9allocatorINS_9sub_matchIPKcEEEEPS6_EEE10__completeB8ne180100Ev, symObjAddr: 0xC040, symBinAddr: 0x10000FA9C, symSize: 0x1C }
  - { offset: 0x2C7FD, size: 0x8, addend: 0x0, symName: __ZNSt3__128__exception_guard_exceptionsINS_29_AllocatorDestroyRangeReverseINS_9allocatorINS_9sub_matchIPKcEEEEPS6_EEED1B8ne180100Ev, symObjAddr: 0xC05C, symBinAddr: 0x10000FAB8, symSize: 0x2C }
  - { offset: 0x2C827, size: 0x8, addend: 0x0, symName: __ZNSt3__128__exception_guard_exceptionsINS_29_AllocatorDestroyRangeReverseINS_9allocatorINS_9sub_matchIPKcEEEEPS6_EEEC1B8ne180100ES9_, symObjAddr: 0xC088, symBinAddr: 0x10000FAE4, symSize: 0x34 }
  - { offset: 0x2C860, size: 0x8, addend: 0x0, symName: __ZNSt3__128__exception_guard_exceptionsINS_29_AllocatorDestroyRangeReverseINS_9allocatorINS_9sub_matchIPKcEEEEPS6_EEEC2B8ne180100ES9_, symObjAddr: 0xC0BC, symBinAddr: 0x10000FB18, symSize: 0x30 }
  - { offset: 0x2C899, size: 0x8, addend: 0x0, symName: __ZNSt3__129_AllocatorDestroyRangeReverseINS_9allocatorINS_9sub_matchIPKcEEEEPS5_EC2B8ne180100ERS6_RS7_SA_, symObjAddr: 0xC0EC, symBinAddr: 0x10000FB48, symSize: 0x38 }
  - { offset: 0x2C8F0, size: 0x8, addend: 0x0, symName: __ZNSt3__19allocatorINS_9sub_matchIPKcEEE9constructB8ne180100IS4_JRS4_EEEvPT_DpOT0_, symObjAddr: 0xC124, symBinAddr: 0x10000FB80, symSize: 0x30 }
  - { offset: 0x2C946, size: 0x8, addend: 0x0, symName: __ZNSt3__128__exception_guard_exceptionsINS_29_AllocatorDestroyRangeReverseINS_9allocatorINS_9sub_matchIPKcEEEEPS6_EEED2B8ne180100Ev, symObjAddr: 0xC154, symBinAddr: 0x10000FBB0, symSize: 0x50 }
  - { offset: 0x2C970, size: 0x8, addend: 0x0, symName: __ZNKSt3__129_AllocatorDestroyRangeReverseINS_9allocatorINS_9sub_matchIPKcEEEEPS5_EclB8ne180100Ev, symObjAddr: 0xC1A4, symBinAddr: 0x10000FC00, symSize: 0x68 }
  - { offset: 0x2C996, size: 0x8, addend: 0x0, symName: __ZNSt3__118__unwrap_iter_implIPNS_9sub_matchIPKcEELb1EE8__unwrapB8ne180100ES5_, symObjAddr: 0xC27C, symBinAddr: 0x10000FCD8, symSize: 0x24 }
  - { offset: 0x2C9B9, size: 0x8, addend: 0x0, symName: __ZNSt3__118__unwrap_iter_implIPNS_9sub_matchIPKcEELb1EE8__rewrapB8ne180100ES5_S5_, symObjAddr: 0xC2A0, symBinAddr: 0x10000FCFC, symSize: 0x58 }
  - { offset: 0x2C9EA, size: 0x8, addend: 0x0, symName: __ZNSt3__128__exception_guard_exceptionsINS_6vectorINS_9sub_matchIPKcEENS_9allocatorIS5_EEE16__destroy_vectorEED2B8ne180100Ev, symObjAddr: 0xC2F8, symBinAddr: 0x10000FD54, symSize: 0x48 }
  - { offset: 0x2CA14, size: 0x8, addend: 0x0, symName: __ZNSt3__16vectorINS_4pairImPKcEENS_9allocatorIS4_EEEC2ERKS7_, symObjAddr: 0xC340, symBinAddr: 0x10000FD9C, symSize: 0x94 }
  - { offset: 0x2CA4F, size: 0x8, addend: 0x0, symName: __ZNSt3__116allocator_traitsINS_9allocatorINS_4pairImPKcEEEEE37select_on_container_copy_constructionB8ne180100IS6_vvEES6_RKS6_, symObjAddr: 0xC3D4, symBinAddr: 0x10000FE30, symSize: 0x10 }
  - { offset: 0x2CA7E, size: 0x8, addend: 0x0, symName: __ZNSt3__16vectorINS_4pairImPKcEENS_9allocatorIS4_EEE16__init_with_sizeB8ne180100IPS4_S9_EEvT_T0_m, symObjAddr: 0xC3E4, symBinAddr: 0x10000FE40, symSize: 0xB4 }
  - { offset: 0x2CAF2, size: 0x8, addend: 0x0, symName: __ZNSt3__16vectorINS_4pairImPKcEENS_9allocatorIS4_EEE11__vallocateB8ne180100Em, symObjAddr: 0xC4D8, symBinAddr: 0x10000FF34, symSize: 0xA8 }
  - { offset: 0x2CB36, size: 0x8, addend: 0x0, symName: __ZNSt3__16vectorINS_4pairImPKcEENS_9allocatorIS4_EEE18__construct_at_endIPS4_S9_EEvT_T0_m, symObjAddr: 0xC580, symBinAddr: 0x10000FFDC, symSize: 0x8C }
  - { offset: 0x2CBAA, size: 0x8, addend: 0x0, symName: __ZNSt3__128__exception_guard_exceptionsINS_6vectorINS_4pairImPKcEENS_9allocatorIS5_EEE16__destroy_vectorEE10__completeB8ne180100Ev, symObjAddr: 0xC60C, symBinAddr: 0x100010068, symSize: 0x1C }
  - { offset: 0x2CBD0, size: 0x8, addend: 0x0, symName: __ZNSt3__128__exception_guard_exceptionsINS_6vectorINS_4pairImPKcEENS_9allocatorIS5_EEE16__destroy_vectorEED1B8ne180100Ev, symObjAddr: 0xC628, symBinAddr: 0x100010084, symSize: 0x2C }
  - { offset: 0x2CBFA, size: 0x8, addend: 0x0, symName: __ZNSt3__128__exception_guard_exceptionsINS_6vectorINS_4pairImPKcEENS_9allocatorIS5_EEE16__destroy_vectorEEC1B8ne180100ES9_, symObjAddr: 0xC654, symBinAddr: 0x1000100B0, symSize: 0x34 }
  - { offset: 0x2CC32, size: 0x8, addend: 0x0, symName: __ZNSt3__128__exception_guard_exceptionsINS_6vectorINS_4pairImPKcEENS_9allocatorIS5_EEE16__destroy_vectorEEC2B8ne180100ES9_, symObjAddr: 0xC688, symBinAddr: 0x1000100E4, symSize: 0x24 }
  - { offset: 0x2CC8D, size: 0x8, addend: 0x0, symName: __ZNSt3__14pairIPNS0_ImPKcEES4_EC1B8ne180100IS4_S4_TnNS_9enable_ifIXclsr10_CheckArgsE17__enable_implicitIT_T0_EEEiE4typeELi0EEEOS8_OS9_, symObjAddr: 0xC914, symBinAddr: 0x100010370, symSize: 0x3C }
  - { offset: 0x2CCEB, size: 0x8, addend: 0x0, symName: __ZNSt3__14pairIPNS0_ImPKcEES4_EC2B8ne180100IS4_S4_TnNS_9enable_ifIXclsr10_CheckArgsE17__enable_implicitIT_T0_EEEiE4typeELi0EEEOS8_OS9_, symObjAddr: 0xC950, symBinAddr: 0x1000103AC, symSize: 0x34 }
  - { offset: 0x2CD49, size: 0x8, addend: 0x0, symName: __ZNSt3__129_AllocatorDestroyRangeReverseINS_9allocatorINS_4pairImPKcEEEEPS5_EC1B8ne180100ERS6_RS7_SA_, symObjAddr: 0xC9D0, symBinAddr: 0x10001042C, symSize: 0x44 }
  - { offset: 0x2CDA0, size: 0x8, addend: 0x0, symName: __ZNSt3__116allocator_traitsINS_9allocatorINS_4pairImPKcEEEEE9constructB8ne180100IS5_JRS5_EvEEvRS6_PT_DpOT0_, symObjAddr: 0xCA14, symBinAddr: 0x100010470, symSize: 0x34 }
  - { offset: 0x2CDF7, size: 0x8, addend: 0x0, symName: __ZNSt3__128__exception_guard_exceptionsINS_29_AllocatorDestroyRangeReverseINS_9allocatorINS_4pairImPKcEEEEPS6_EEE10__completeB8ne180100Ev, symObjAddr: 0xCA48, symBinAddr: 0x1000104A4, symSize: 0x1C }
  - { offset: 0x2CE1D, size: 0x8, addend: 0x0, symName: __ZNSt3__128__exception_guard_exceptionsINS_29_AllocatorDestroyRangeReverseINS_9allocatorINS_4pairImPKcEEEEPS6_EEED1B8ne180100Ev, symObjAddr: 0xCA64, symBinAddr: 0x1000104C0, symSize: 0x2C }
  - { offset: 0x2CE47, size: 0x8, addend: 0x0, symName: __ZNSt3__128__exception_guard_exceptionsINS_29_AllocatorDestroyRangeReverseINS_9allocatorINS_4pairImPKcEEEEPS6_EEEC1B8ne180100ES9_, symObjAddr: 0xCA90, symBinAddr: 0x1000104EC, symSize: 0x34 }
  - { offset: 0x2CE80, size: 0x8, addend: 0x0, symName: __ZNSt3__128__exception_guard_exceptionsINS_29_AllocatorDestroyRangeReverseINS_9allocatorINS_4pairImPKcEEEEPS6_EEEC2B8ne180100ES9_, symObjAddr: 0xCAC4, symBinAddr: 0x100010520, symSize: 0x30 }
  - { offset: 0x2CEB9, size: 0x8, addend: 0x0, symName: __ZNSt3__129_AllocatorDestroyRangeReverseINS_9allocatorINS_4pairImPKcEEEEPS5_EC2B8ne180100ERS6_RS7_SA_, symObjAddr: 0xCAF4, symBinAddr: 0x100010550, symSize: 0x38 }
  - { offset: 0x2CF10, size: 0x8, addend: 0x0, symName: __ZNSt3__19allocatorINS_4pairImPKcEEE9constructB8ne180100IS4_JRS4_EEEvPT_DpOT0_, symObjAddr: 0xCB2C, symBinAddr: 0x100010588, symSize: 0x28 }
  - { offset: 0x2CF66, size: 0x8, addend: 0x0, symName: __ZNSt3__128__exception_guard_exceptionsINS_29_AllocatorDestroyRangeReverseINS_9allocatorINS_4pairImPKcEEEEPS6_EEED2B8ne180100Ev, symObjAddr: 0xCB54, symBinAddr: 0x1000105B0, symSize: 0x50 }
  - { offset: 0x2CF90, size: 0x8, addend: 0x0, symName: __ZNKSt3__129_AllocatorDestroyRangeReverseINS_9allocatorINS_4pairImPKcEEEEPS5_EclB8ne180100Ev, symObjAddr: 0xCBA4, symBinAddr: 0x100010600, symSize: 0x68 }
  - { offset: 0x2CFB6, size: 0x8, addend: 0x0, symName: __ZNSt3__118__unwrap_iter_implIPNS_4pairImPKcEELb1EE8__unwrapB8ne180100ES5_, symObjAddr: 0xCC7C, symBinAddr: 0x1000106D8, symSize: 0x24 }
  - { offset: 0x2CFD9, size: 0x8, addend: 0x0, symName: __ZNSt3__118__unwrap_iter_implIPNS_4pairImPKcEELb1EE8__rewrapB8ne180100ES5_S5_, symObjAddr: 0xCCA0, symBinAddr: 0x1000106FC, symSize: 0x50 }
  - { offset: 0x2D00A, size: 0x8, addend: 0x0, symName: __ZNSt3__128__exception_guard_exceptionsINS_6vectorINS_4pairImPKcEENS_9allocatorIS5_EEE16__destroy_vectorEED2B8ne180100Ev, symObjAddr: 0xCCF0, symBinAddr: 0x10001074C, symSize: 0x48 }
  - { offset: 0x2D034, size: 0x8, addend: 0x0, symName: __ZNSt3__16vectorINS_7__stateIcEENS_9allocatorIS2_EEED2B8ne180100Ev, symObjAddr: 0xCD38, symBinAddr: 0x100010794, symSize: 0x44 }
  - { offset: 0x2D05E, size: 0x8, addend: 0x0, symName: __ZNSt3__16vectorINS_7__stateIcEENS_9allocatorIS2_EEE16__destroy_vectorC1B8ne180100ERS5_, symObjAddr: 0xCD7C, symBinAddr: 0x1000107D8, symSize: 0x34 }
  - { offset: 0x2D097, size: 0x8, addend: 0x0, symName: __ZNSt3__16vectorINS_7__stateIcEENS_9allocatorIS2_EEE16__destroy_vectorclB8ne180100Ev, symObjAddr: 0xCDB0, symBinAddr: 0x10001080C, symSize: 0x88 }
  - { offset: 0x2D0BD, size: 0x8, addend: 0x0, symName: __ZNSt3__16vectorINS_7__stateIcEENS_9allocatorIS2_EEE16__destroy_vectorC2B8ne180100ERS5_, symObjAddr: 0xCE38, symBinAddr: 0x100010894, symSize: 0x20 }
  - { offset: 0x2D0F6, size: 0x8, addend: 0x0, symName: __ZNSt3__16vectorINS_7__stateIcEENS_9allocatorIS2_EEE7__clearB8ne180100Ev, symObjAddr: 0xCE58, symBinAddr: 0x1000108B4, symSize: 0x28 }
  - { offset: 0x2D11C, size: 0x8, addend: 0x0, symName: __ZNSt3__14pairIPKcS2_EaSB8ne180100ERKS3_, symObjAddr: 0xCE80, symBinAddr: 0x1000108DC, symSize: 0x30 }
  - { offset: 0x2D151, size: 0x8, addend: 0x0, symName: __ZNSt3__113match_resultsIPKcNS_9allocatorINS_9sub_matchIS2_EEEEED2Ev, symObjAddr: 0xCEB0, symBinAddr: 0x10001090C, symSize: 0x2C }
  - { offset: 0x2D17E, size: 0x8, addend: 0x0, symName: __ZNSt3__111basic_regexIcNS_12regex_traitsIcEEE28__push_match_any_but_newlineEv, symObjAddr: 0xCEDC, symBinAddr: 0x100010938, symSize: 0xA0 }
  - { offset: 0x2D1A6, size: 0x8, addend: 0x0, symName: __ZNSt3__111basic_regexIcNS_12regex_traitsIcEEE19__parse_atom_escapeIPKcEET_S7_S7_, symObjAddr: 0xCF7C, symBinAddr: 0x1000109D8, symSize: 0x12C }
  - { offset: 0x2D21F, size: 0x8, addend: 0x0, symName: __ZNSt3__111basic_regexIcNS_12regex_traitsIcEEE26__parse_bracket_expressionIPKcEET_S7_S7_, symObjAddr: 0xD0A8, symBinAddr: 0x100010B04, symSize: 0x1B8 }
  - { offset: 0x2D298, size: 0x8, addend: 0x0, symName: __ZNSt3__111basic_regexIcNS_12regex_traitsIcEEE33__push_begin_marked_subexpressionEv, symObjAddr: 0xD260, symBinAddr: 0x100010CBC, symSize: 0xCC }
  - { offset: 0x2D2C0, size: 0x8, addend: 0x0, symName: __ZNSt3__111basic_regexIcNS_12regex_traitsIcEEE31__push_end_marked_subexpressionEj, symObjAddr: 0xD32C, symBinAddr: 0x100010D88, symSize: 0xC8 }
  - { offset: 0x2D2F7, size: 0x8, addend: 0x0, symName: __ZNSt3__111basic_regexIcNS_12regex_traitsIcEEE25__parse_pattern_characterIPKcEET_S7_S7_, symObjAddr: 0xD454, symBinAddr: 0x100010EB0, symSize: 0xE0 }
  - { offset: 0x2D35B, size: 0x8, addend: 0x0, symName: __ZNSt3__123__match_any_but_newlineIcEC1B8ne180100EPNS_6__nodeIcEE, symObjAddr: 0xD534, symBinAddr: 0x100010F90, symSize: 0x34 }
  - { offset: 0x2D394, size: 0x8, addend: 0x0, symName: __ZNSt3__123__match_any_but_newlineIcEC2B8ne180100EPNS_6__nodeIcEE, symObjAddr: 0xD568, symBinAddr: 0x100010FC4, symSize: 0x44 }
  - { offset: 0x2D3CD, size: 0x8, addend: 0x0, symName: __ZNSt3__123__match_any_but_newlineIcED1Ev, symObjAddr: 0xD5AC, symBinAddr: 0x100011008, symSize: 0x2C }
  - { offset: 0x2D3FA, size: 0x8, addend: 0x0, symName: __ZNSt3__123__match_any_but_newlineIcED0Ev, symObjAddr: 0xD5D8, symBinAddr: 0x100011034, symSize: 0x30 }
  - { offset: 0x2D427, size: 0x8, addend: 0x0, symName: __ZNSt3__123__match_any_but_newlineIcED2Ev, symObjAddr: 0xD608, symBinAddr: 0x100011064, symSize: 0x2C }
  - { offset: 0x2D454, size: 0x8, addend: 0x0, symName: __ZNSt3__111basic_regexIcNS_12regex_traitsIcEEE22__parse_decimal_escapeIPKcEET_S7_S7_, symObjAddr: 0xD694, symBinAddr: 0x1000110F0, symSize: 0x1C4 }
  - { offset: 0x2D4BE, size: 0x8, addend: 0x0, symName: __ZNSt3__111basic_regexIcNS_12regex_traitsIcEEE30__parse_character_class_escapeIPKcEET_S7_S7_, symObjAddr: 0xD858, symBinAddr: 0x1000112B4, symSize: 0x1E8 }
  - { offset: 0x2D528, size: 0x8, addend: 0x0, symName: __ZNSt3__111basic_regexIcNS_12regex_traitsIcEEE24__parse_character_escapeIPKcEET_S7_S7_PNS_12basic_stringIcNS_11char_traitsIcEENS_9allocatorIcEEEE, symObjAddr: 0xDA40, symBinAddr: 0x10001149C, symSize: 0x5B0 }
  - { offset: 0x2D5BF, size: 0x8, addend: 0x0, symName: __ZNSt3__111basic_regexIcNS_12regex_traitsIcEEE11__push_charEc, symObjAddr: 0xDFF0, symBinAddr: 0x100011A4C, symSize: 0x1C4 }
  - { offset: 0x2D5F6, size: 0x8, addend: 0x0, symName: __ZNSt3__114numeric_limitsIjE3maxB8ne180100Ev, symObjAddr: 0xE1B4, symBinAddr: 0x100011C10, symSize: 0x14 }
  - { offset: 0x2D60A, size: 0x8, addend: 0x0, symName: __ZNSt3__111basic_regexIcNS_12regex_traitsIcEEE15__push_back_refEi, symObjAddr: 0xE228, symBinAddr: 0x100011C84, symSize: 0x1C4 }
  - { offset: 0x2D641, size: 0x8, addend: 0x0, symName: __ZNKSt3__111basic_regexIcNS_12regex_traitsIcEEE5flagsB8ne180100Ev, symObjAddr: 0xE3EC, symBinAddr: 0x100011E48, symSize: 0x18 }
  - { offset: 0x2D68A, size: 0x8, addend: 0x0, symName: __ZNSt3__118__match_char_icaseIcNS_12regex_traitsIcEEEC1B8ne180100ERKS2_cPNS_6__nodeIcEE, symObjAddr: 0xE404, symBinAddr: 0x100011E60, symSize: 0x44 }
  - { offset: 0x2D704, size: 0x8, addend: 0x0, symName: __ZNSt3__120__match_char_collateIcNS_12regex_traitsIcEEEC1B8ne180100ERKS2_cPNS_6__nodeIcEE, symObjAddr: 0xE448, symBinAddr: 0x100011EA4, symSize: 0x44 }
  - { offset: 0x2D77E, size: 0x8, addend: 0x0, symName: __ZNSt3__112__match_charIcEC1B8ne180100EcPNS_6__nodeIcEE, symObjAddr: 0xE48C, symBinAddr: 0x100011EE8, symSize: 0x3C }
  - { offset: 0x2D7C6, size: 0x8, addend: 0x0, symName: __ZNSt3__118__match_char_icaseIcNS_12regex_traitsIcEEEC2B8ne180100ERKS2_cPNS_6__nodeIcEE, symObjAddr: 0xE4C8, symBinAddr: 0x100011F24, symSize: 0xA4 }
  - { offset: 0x2D81D, size: 0x8, addend: 0x0, symName: __ZNKSt3__112regex_traitsIcE16translate_nocaseEc, symObjAddr: 0xE56C, symBinAddr: 0x100011FC8, symSize: 0x34 }
  - { offset: 0x2D854, size: 0x8, addend: 0x0, symName: __ZNSt3__118__match_char_icaseIcNS_12regex_traitsIcEEED1Ev, symObjAddr: 0xE5A0, symBinAddr: 0x100011FFC, symSize: 0x2C }
  - { offset: 0x2D881, size: 0x8, addend: 0x0, symName: __ZNSt3__118__match_char_icaseIcNS_12regex_traitsIcEEED0Ev, symObjAddr: 0xE5CC, symBinAddr: 0x100012028, symSize: 0x30 }
  - { offset: 0x2D8AE, size: 0x8, addend: 0x0, symName: __ZNKSt3__118__match_char_icaseIcNS_12regex_traitsIcEEE6__execERNS_7__stateIcEE, symObjAddr: 0xE5FC, symBinAddr: 0x100012058, symSize: 0xB8 }
  - { offset: 0x2D8E3, size: 0x8, addend: 0x0, symName: __ZNKSt3__15ctypeIcE7tolowerB8ne180100Ec, symObjAddr: 0xE6B4, symBinAddr: 0x100012110, symSize: 0x38 }
  - { offset: 0x2D918, size: 0x8, addend: 0x0, symName: __ZNSt3__118__match_char_icaseIcNS_12regex_traitsIcEEED2Ev, symObjAddr: 0xE6EC, symBinAddr: 0x100012148, symSize: 0x48 }
  - { offset: 0x2D945, size: 0x8, addend: 0x0, symName: __ZNSt3__120__match_char_collateIcNS_12regex_traitsIcEEEC2B8ne180100ERKS2_cPNS_6__nodeIcEE, symObjAddr: 0xE734, symBinAddr: 0x100012190, symSize: 0xA4 }
  - { offset: 0x2D99C, size: 0x8, addend: 0x0, symName: __ZNKSt3__112regex_traitsIcE9translateB8ne180100Ec, symObjAddr: 0xE7D8, symBinAddr: 0x100012234, symSize: 0x18 }
  - { offset: 0x2D9D1, size: 0x8, addend: 0x0, symName: __ZNSt3__120__match_char_collateIcNS_12regex_traitsIcEEED1Ev, symObjAddr: 0xE7F0, symBinAddr: 0x10001224C, symSize: 0x2C }
  - { offset: 0x2D9FE, size: 0x8, addend: 0x0, symName: __ZNSt3__120__match_char_collateIcNS_12regex_traitsIcEEED0Ev, symObjAddr: 0xE81C, symBinAddr: 0x100012278, symSize: 0x30 }
  - { offset: 0x2DA2B, size: 0x8, addend: 0x0, symName: __ZNKSt3__120__match_char_collateIcNS_12regex_traitsIcEEE6__execERNS_7__stateIcEE, symObjAddr: 0xE84C, symBinAddr: 0x1000122A8, symSize: 0xB8 }
  - { offset: 0x2DA60, size: 0x8, addend: 0x0, symName: __ZNSt3__120__match_char_collateIcNS_12regex_traitsIcEEED2Ev, symObjAddr: 0xE904, symBinAddr: 0x100012360, symSize: 0x48 }
  - { offset: 0x2DA8D, size: 0x8, addend: 0x0, symName: __ZNSt3__112__match_charIcEC2B8ne180100EcPNS_6__nodeIcEE, symObjAddr: 0xE94C, symBinAddr: 0x1000123A8, symSize: 0x50 }
  - { offset: 0x2DAD5, size: 0x8, addend: 0x0, symName: __ZNSt3__112__match_charIcED1Ev, symObjAddr: 0xE99C, symBinAddr: 0x1000123F8, symSize: 0x2C }
  - { offset: 0x2DB02, size: 0x8, addend: 0x0, symName: __ZNSt3__112__match_charIcED0Ev, symObjAddr: 0xE9C8, symBinAddr: 0x100012424, symSize: 0x30 }
  - { offset: 0x2DB2F, size: 0x8, addend: 0x0, symName: __ZNKSt3__112__match_charIcE6__execERNS_7__stateIcEE, symObjAddr: 0xE9F8, symBinAddr: 0x100012454, symSize: 0xAC }
  - { offset: 0x2DB64, size: 0x8, addend: 0x0, symName: __ZNSt3__112__match_charIcED2Ev, symObjAddr: 0xEAA4, symBinAddr: 0x100012500, symSize: 0x2C }
  - { offset: 0x2DB91, size: 0x8, addend: 0x0, symName: __ZNSt3__123__libcpp_numeric_limitsIjLb1EE3maxB8ne180100Ev, symObjAddr: 0xEAD0, symBinAddr: 0x10001252C, symSize: 0x8 }
  - { offset: 0x2DBBC, size: 0x8, addend: 0x0, symName: __ZNSt3__116__back_ref_icaseIcNS_12regex_traitsIcEEEC1B8ne180100ERKS2_jPNS_6__nodeIcEE, symObjAddr: 0xEAD8, symBinAddr: 0x100012534, symSize: 0x44 }
  - { offset: 0x2DC2A, size: 0x8, addend: 0x0, symName: __ZNSt3__118__back_ref_collateIcNS_12regex_traitsIcEEEC1B8ne180100ERKS2_jPNS_6__nodeIcEE, symObjAddr: 0xEB1C, symBinAddr: 0x100012578, symSize: 0x44 }
  - { offset: 0x2DC98, size: 0x8, addend: 0x0, symName: __ZNSt3__110__back_refIcEC1B8ne180100EjPNS_6__nodeIcEE, symObjAddr: 0xEB60, symBinAddr: 0x1000125BC, symSize: 0x3C }
  - { offset: 0x2DCE0, size: 0x8, addend: 0x0, symName: __ZNSt3__116__back_ref_icaseIcNS_12regex_traitsIcEEEC2B8ne180100ERKS2_jPNS_6__nodeIcEE, symObjAddr: 0xEB9C, symBinAddr: 0x1000125F8, symSize: 0x64 }
  - { offset: 0x2DD37, size: 0x8, addend: 0x0, symName: __ZNSt3__116__back_ref_icaseIcNS_12regex_traitsIcEEED1Ev, symObjAddr: 0xEC00, symBinAddr: 0x10001265C, symSize: 0x2C }
  - { offset: 0x2DD64, size: 0x8, addend: 0x0, symName: __ZNSt3__116__back_ref_icaseIcNS_12regex_traitsIcEEED0Ev, symObjAddr: 0xEC2C, symBinAddr: 0x100012688, symSize: 0x30 }
  - { offset: 0x2DD91, size: 0x8, addend: 0x0, symName: __ZNKSt3__116__back_ref_icaseIcNS_12regex_traitsIcEEE6__execERNS_7__stateIcEE, symObjAddr: 0xEC5C, symBinAddr: 0x1000126B8, symSize: 0x184 }
  - { offset: 0x2DE20, size: 0x8, addend: 0x0, symName: __ZNSt3__116__back_ref_icaseIcNS_12regex_traitsIcEEED2Ev, symObjAddr: 0xEDE0, symBinAddr: 0x10001283C, symSize: 0x48 }
  - { offset: 0x2DE4D, size: 0x8, addend: 0x0, symName: __ZNSt3__118__back_ref_collateIcNS_12regex_traitsIcEEEC2B8ne180100ERKS2_jPNS_6__nodeIcEE, symObjAddr: 0xEE28, symBinAddr: 0x100012884, symSize: 0x64 }
  - { offset: 0x2DEA4, size: 0x8, addend: 0x0, symName: __ZNSt3__118__back_ref_collateIcNS_12regex_traitsIcEEED1Ev, symObjAddr: 0xEE8C, symBinAddr: 0x1000128E8, symSize: 0x2C }
  - { offset: 0x2DED1, size: 0x8, addend: 0x0, symName: __ZNSt3__118__back_ref_collateIcNS_12regex_traitsIcEEED0Ev, symObjAddr: 0xEEB8, symBinAddr: 0x100012914, symSize: 0x30 }
  - { offset: 0x2DEFE, size: 0x8, addend: 0x0, symName: __ZNKSt3__118__back_ref_collateIcNS_12regex_traitsIcEEE6__execERNS_7__stateIcEE, symObjAddr: 0xEEE8, symBinAddr: 0x100012944, symSize: 0x184 }
  - { offset: 0x2DF8D, size: 0x8, addend: 0x0, symName: __ZNSt3__118__back_ref_collateIcNS_12regex_traitsIcEEED2Ev, symObjAddr: 0xF06C, symBinAddr: 0x100012AC8, symSize: 0x48 }
  - { offset: 0x2DFBA, size: 0x8, addend: 0x0, symName: __ZNSt3__110__back_refIcEC2B8ne180100EjPNS_6__nodeIcEE, symObjAddr: 0xF0B4, symBinAddr: 0x100012B10, symSize: 0x50 }
  - { offset: 0x2E002, size: 0x8, addend: 0x0, symName: __ZNSt3__110__back_refIcED1Ev, symObjAddr: 0xF104, symBinAddr: 0x100012B60, symSize: 0x2C }
  - { offset: 0x2E02F, size: 0x8, addend: 0x0, symName: __ZNSt3__110__back_refIcED0Ev, symObjAddr: 0xF130, symBinAddr: 0x100012B8C, symSize: 0x30 }
  - { offset: 0x2E05C, size: 0x8, addend: 0x0, symName: __ZNKSt3__110__back_refIcE6__execERNS_7__stateIcEE, symObjAddr: 0xF160, symBinAddr: 0x100012BBC, symSize: 0x14C }
  - { offset: 0x2E0BD, size: 0x8, addend: 0x0, symName: __ZNSt3__110__back_refIcED2Ev, symObjAddr: 0xF2AC, symBinAddr: 0x100012D08, symSize: 0x2C }
  - { offset: 0x2E0EA, size: 0x8, addend: 0x0, symName: __ZNSt3__118__unwrap_iter_implIPKcLb1EE8__unwrapB8ne180100ES2_, symObjAddr: 0xF410, symBinAddr: 0x100012E6C, symSize: 0x24 }
  - { offset: 0x2E10D, size: 0x8, addend: 0x0, symName: __ZNSt3__111basic_regexIcNS_12regex_traitsIcEEE21__start_matching_listEb, symObjAddr: 0xF448, symBinAddr: 0x100012EA4, symSize: 0x100 }
  - { offset: 0x2E153, size: 0x8, addend: 0x0, symName: __ZNSt3__120__bracket_expressionIcNS_12regex_traitsIcEEE11__add_classB8ne180100Ej, symObjAddr: 0xF548, symBinAddr: 0x100012FA4, symSize: 0x28 }
  - { offset: 0x2E188, size: 0x8, addend: 0x0, symName: __ZNSt3__120__bracket_expressionIcNS_12regex_traitsIcEEE10__add_charB8ne180100Ec, symObjAddr: 0xF570, symBinAddr: 0x100012FCC, symSize: 0xBC }
  - { offset: 0x2E1BD, size: 0x8, addend: 0x0, symName: __ZNSt3__120__bracket_expressionIcNS_12regex_traitsIcEEEC1B8ne180100ERKS2_PNS_6__nodeIcEEbbb, symObjAddr: 0xF62C, symBinAddr: 0x100013088, symSize: 0x60 }
  - { offset: 0x2E232, size: 0x8, addend: 0x0, symName: __ZNSt3__120__bracket_expressionIcNS_12regex_traitsIcEEEC2B8ne180100ERKS2_PNS_6__nodeIcEEbbb, symObjAddr: 0xF68C, symBinAddr: 0x1000130E8, symSize: 0x1AC }
  - { offset: 0x2E2A7, size: 0x8, addend: 0x0, symName: __ZNSt3__16vectorIcNS_9allocatorIcEEEC1B8ne180100Ev, symObjAddr: 0xF838, symBinAddr: 0x100013294, symSize: 0x2C }
  - { offset: 0x2E2D1, size: 0x8, addend: 0x0, symName: __ZNSt3__16vectorINS_4pairINS_12basic_stringIcNS_11char_traitsIcEENS_9allocatorIcEEEES7_EENS5_IS8_EEEC1B8ne180100Ev, symObjAddr: 0xF864, symBinAddr: 0x1000132C0, symSize: 0x2C }
  - { offset: 0x2E2FB, size: 0x8, addend: 0x0, symName: __ZNSt3__16vectorINS_4pairIccEENS_9allocatorIS2_EEEC1B8ne180100Ev, symObjAddr: 0xF890, symBinAddr: 0x1000132EC, symSize: 0x2C }
  - { offset: 0x2E325, size: 0x8, addend: 0x0, symName: __ZNSt3__16vectorINS_12basic_stringIcNS_11char_traitsIcEENS_9allocatorIcEEEENS4_IS6_EEEC1B8ne180100Ev, symObjAddr: 0xF8BC, symBinAddr: 0x100013318, symSize: 0x2C }
  - { offset: 0x2E34F, size: 0x8, addend: 0x0, symName: __ZNKSt3__112regex_traitsIcE6getlocB8ne180100Ev, symObjAddr: 0xF918, symBinAddr: 0x100013374, symSize: 0x38 }
  - { offset: 0x2E375, size: 0x8, addend: 0x0, symName: __ZNSt3__16vectorINS_12basic_stringIcNS_11char_traitsIcEENS_9allocatorIcEEEENS4_IS6_EEED1B8ne180100Ev, symObjAddr: 0xF950, symBinAddr: 0x1000133AC, symSize: 0x2C }
  - { offset: 0x2E39F, size: 0x8, addend: 0x0, symName: __ZNSt3__16vectorINS_4pairIccEENS_9allocatorIS2_EEED1B8ne180100Ev, symObjAddr: 0xF97C, symBinAddr: 0x1000133D8, symSize: 0x2C }
  - { offset: 0x2E3C9, size: 0x8, addend: 0x0, symName: __ZNSt3__16vectorINS_4pairINS_12basic_stringIcNS_11char_traitsIcEENS_9allocatorIcEEEES7_EENS5_IS8_EEED1B8ne180100Ev, symObjAddr: 0xF9A8, symBinAddr: 0x100013404, symSize: 0x2C }
  - { offset: 0x2E3F3, size: 0x8, addend: 0x0, symName: __ZNSt3__16vectorIcNS_9allocatorIcEEED1B8ne180100Ev, symObjAddr: 0xF9D4, symBinAddr: 0x100013430, symSize: 0x2C }
  - { offset: 0x2E41D, size: 0x8, addend: 0x0, symName: __ZNSt3__120__bracket_expressionIcNS_12regex_traitsIcEEED1Ev, symObjAddr: 0xFA00, symBinAddr: 0x10001345C, symSize: 0x2C }
  - { offset: 0x2E44A, size: 0x8, addend: 0x0, symName: __ZNSt3__120__bracket_expressionIcNS_12regex_traitsIcEEED0Ev, symObjAddr: 0xFA2C, symBinAddr: 0x100013488, symSize: 0x30 }
  - { offset: 0x2E477, size: 0x8, addend: 0x0, symName: __ZNKSt3__120__bracket_expressionIcNS_12regex_traitsIcEEE6__execERNS_7__stateIcEE, symObjAddr: 0xFA5C, symBinAddr: 0x1000134B8, symSize: 0x870 }
  - { offset: 0x2E66F, size: 0x8, addend: 0x0, symName: __ZNSt3__16vectorIcNS_9allocatorIcEEEC2B8ne180100Ev, symObjAddr: 0x102CC, symBinAddr: 0x100013D28, symSize: 0x4C }
  - { offset: 0x2E699, size: 0x8, addend: 0x0, symName: __ZNSt3__117__compressed_pairIPcNS_9allocatorIcEEEC1B8ne180100IDnNS_18__default_init_tagEEEOT_OT0_, symObjAddr: 0x10318, symBinAddr: 0x100013D74, symSize: 0x3C }
  - { offset: 0x2E6F1, size: 0x8, addend: 0x0, symName: __ZNSt3__117__compressed_pairIPcNS_9allocatorIcEEEC2B8ne180100IDnNS_18__default_init_tagEEEOT_OT0_, symObjAddr: 0x10354, symBinAddr: 0x100013DB0, symSize: 0x40 }
  - { offset: 0x2E749, size: 0x8, addend: 0x0, symName: __ZNSt3__122__compressed_pair_elemIPcLi0ELb0EEC2B8ne180100IDnvEEOT_, symObjAddr: 0x10394, symBinAddr: 0x100013DF0, symSize: 0x1C }
  - { offset: 0x2E78B, size: 0x8, addend: 0x0, symName: __ZNSt3__16vectorINS_4pairINS_12basic_stringIcNS_11char_traitsIcEENS_9allocatorIcEEEES7_EENS5_IS8_EEEC2B8ne180100Ev, symObjAddr: 0x103B0, symBinAddr: 0x100013E0C, symSize: 0x4C }
  - { offset: 0x2E7B5, size: 0x8, addend: 0x0, symName: __ZNSt3__117__compressed_pairIPNS_4pairINS_12basic_stringIcNS_11char_traitsIcEENS_9allocatorIcEEEES7_EENS5_IS8_EEEC1B8ne180100IDnNS_18__default_init_tagEEEOT_OT0_, symObjAddr: 0x103FC, symBinAddr: 0x100013E58, symSize: 0x3C }
  - { offset: 0x2E80D, size: 0x8, addend: 0x0, symName: __ZNSt3__117__compressed_pairIPNS_4pairINS_12basic_stringIcNS_11char_traitsIcEENS_9allocatorIcEEEES7_EENS5_IS8_EEEC2B8ne180100IDnNS_18__default_init_tagEEEOT_OT0_, symObjAddr: 0x10438, symBinAddr: 0x100013E94, symSize: 0x40 }
  - { offset: 0x2E865, size: 0x8, addend: 0x0, symName: __ZNSt3__122__compressed_pair_elemIPNS_4pairINS_12basic_stringIcNS_11char_traitsIcEENS_9allocatorIcEEEES7_EELi0ELb0EEC2B8ne180100IDnvEEOT_, symObjAddr: 0x10478, symBinAddr: 0x100013ED4, symSize: 0x1C }
  - { offset: 0x2E8A7, size: 0x8, addend: 0x0, symName: __ZNSt3__122__compressed_pair_elemINS_9allocatorINS_4pairINS_12basic_stringIcNS_11char_traitsIcEENS1_IcEEEES7_EEEELi1ELb1EEC2B8ne180100ENS_18__default_init_tagE, symObjAddr: 0x10494, symBinAddr: 0x100013EF0, symSize: 0x2C }
  - { offset: 0x2E8DB, size: 0x8, addend: 0x0, symName: __ZNSt3__19allocatorINS_4pairINS_12basic_stringIcNS_11char_traitsIcEENS0_IcEEEES6_EEEC2B8ne180100Ev, symObjAddr: 0x104C0, symBinAddr: 0x100013F1C, symSize: 0x2C }
  - { offset: 0x2E905, size: 0x8, addend: 0x0, symName: __ZNSt3__116__non_trivial_ifILb1ENS_9allocatorINS_4pairINS_12basic_stringIcNS_11char_traitsIcEENS1_IcEEEES7_EEEEEC2B8ne180100Ev, symObjAddr: 0x104EC, symBinAddr: 0x100013F48, symSize: 0x14 }
  - { offset: 0x2E92F, size: 0x8, addend: 0x0, symName: __ZNSt3__16vectorINS_4pairIccEENS_9allocatorIS2_EEEC2B8ne180100Ev, symObjAddr: 0x10500, symBinAddr: 0x100013F5C, symSize: 0x4C }
  - { offset: 0x2E959, size: 0x8, addend: 0x0, symName: __ZNSt3__117__compressed_pairIPNS_4pairIccEENS_9allocatorIS2_EEEC1B8ne180100IDnNS_18__default_init_tagEEEOT_OT0_, symObjAddr: 0x1054C, symBinAddr: 0x100013FA8, symSize: 0x3C }
  - { offset: 0x2E9B1, size: 0x8, addend: 0x0, symName: __ZNSt3__117__compressed_pairIPNS_4pairIccEENS_9allocatorIS2_EEEC2B8ne180100IDnNS_18__default_init_tagEEEOT_OT0_, symObjAddr: 0x10588, symBinAddr: 0x100013FE4, symSize: 0x40 }
  - { offset: 0x2EA09, size: 0x8, addend: 0x0, symName: __ZNSt3__122__compressed_pair_elemIPNS_4pairIccEELi0ELb0EEC2B8ne180100IDnvEEOT_, symObjAddr: 0x105C8, symBinAddr: 0x100014024, symSize: 0x1C }
  - { offset: 0x2EA4B, size: 0x8, addend: 0x0, symName: __ZNSt3__122__compressed_pair_elemINS_9allocatorINS_4pairIccEEEELi1ELb1EEC2B8ne180100ENS_18__default_init_tagE, symObjAddr: 0x105E4, symBinAddr: 0x100014040, symSize: 0x2C }
  - { offset: 0x2EA7F, size: 0x8, addend: 0x0, symName: __ZNSt3__19allocatorINS_4pairIccEEEC2B8ne180100Ev, symObjAddr: 0x10610, symBinAddr: 0x10001406C, symSize: 0x2C }
  - { offset: 0x2EAA9, size: 0x8, addend: 0x0, symName: __ZNSt3__116__non_trivial_ifILb1ENS_9allocatorINS_4pairIccEEEEEC2B8ne180100Ev, symObjAddr: 0x1063C, symBinAddr: 0x100014098, symSize: 0x14 }
  - { offset: 0x2EAD3, size: 0x8, addend: 0x0, symName: __ZNSt3__16vectorINS_12basic_stringIcNS_11char_traitsIcEENS_9allocatorIcEEEENS4_IS6_EEEC2B8ne180100Ev, symObjAddr: 0x10650, symBinAddr: 0x1000140AC, symSize: 0x4C }
  - { offset: 0x2EAFD, size: 0x8, addend: 0x0, symName: __ZNSt3__117__compressed_pairIPNS_12basic_stringIcNS_11char_traitsIcEENS_9allocatorIcEEEENS4_IS6_EEEC1B8ne180100IDnNS_18__default_init_tagEEEOT_OT0_, symObjAddr: 0x1069C, symBinAddr: 0x1000140F8, symSize: 0x3C }
  - { offset: 0x2EB55, size: 0x8, addend: 0x0, symName: __ZNSt3__117__compressed_pairIPNS_12basic_stringIcNS_11char_traitsIcEENS_9allocatorIcEEEENS4_IS6_EEEC2B8ne180100IDnNS_18__default_init_tagEEEOT_OT0_, symObjAddr: 0x106D8, symBinAddr: 0x100014134, symSize: 0x40 }
  - { offset: 0x2EBAD, size: 0x8, addend: 0x0, symName: __ZNSt3__122__compressed_pair_elemIPNS_12basic_stringIcNS_11char_traitsIcEENS_9allocatorIcEEEELi0ELb0EEC2B8ne180100IDnvEEOT_, symObjAddr: 0x10718, symBinAddr: 0x100014174, symSize: 0x1C }
  - { offset: 0x2EBEF, size: 0x8, addend: 0x0, symName: __ZNSt3__122__compressed_pair_elemINS_9allocatorINS_12basic_stringIcNS_11char_traitsIcEENS1_IcEEEEEELi1ELb1EEC2B8ne180100ENS_18__default_init_tagE, symObjAddr: 0x10734, symBinAddr: 0x100014190, symSize: 0x2C }
  - { offset: 0x2EC23, size: 0x8, addend: 0x0, symName: __ZNSt3__19allocatorINS_12basic_stringIcNS_11char_traitsIcEENS0_IcEEEEEC2B8ne180100Ev, symObjAddr: 0x10760, symBinAddr: 0x1000141BC, symSize: 0x2C }
  - { offset: 0x2EC4D, size: 0x8, addend: 0x0, symName: __ZNSt3__116__non_trivial_ifILb1ENS_9allocatorINS_12basic_stringIcNS_11char_traitsIcEENS1_IcEEEEEEEC2B8ne180100Ev, symObjAddr: 0x1078C, symBinAddr: 0x1000141E8, symSize: 0x14 }
  - { offset: 0x2EC77, size: 0x8, addend: 0x0, symName: __ZNKSt3__112basic_stringIcNS_11char_traitsIcEENS_9allocatorIcEEE4sizeB8ne180100Ev, symObjAddr: 0x10844, symBinAddr: 0x1000142A0, symSize: 0x54 }
  - { offset: 0x2EC9D, size: 0x8, addend: 0x0, symName: __ZNKSt3__112basic_stringIcNS_11char_traitsIcEENS_9allocatorIcEEE9__is_longB8ne180100Ev, symObjAddr: 0x10898, symBinAddr: 0x1000142F4, symSize: 0x34 }
  - { offset: 0x2ECC3, size: 0x8, addend: 0x0, symName: __ZNKSt3__112basic_stringIcNS_11char_traitsIcEENS_9allocatorIcEEE15__get_long_sizeB8ne180100Ev, symObjAddr: 0x108CC, symBinAddr: 0x100014328, symSize: 0x28 }
  - { offset: 0x2ECE9, size: 0x8, addend: 0x0, symName: __ZNKSt3__112basic_stringIcNS_11char_traitsIcEENS_9allocatorIcEEE16__get_short_sizeB8ne180100Ev, symObjAddr: 0x108F4, symBinAddr: 0x100014350, symSize: 0x34 }
  - { offset: 0x2ED0F, size: 0x8, addend: 0x0, symName: __ZNKSt3__117__compressed_pairINS_12basic_stringIcNS_11char_traitsIcEENS_9allocatorIcEEE5__repES5_E5firstB8ne180100Ev, symObjAddr: 0x10928, symBinAddr: 0x100014384, symSize: 0x24 }
  - { offset: 0x2ED35, size: 0x8, addend: 0x0, symName: __ZNKSt3__122__compressed_pair_elemINS_12basic_stringIcNS_11char_traitsIcEENS_9allocatorIcEEE5__repELi0ELb0EE5__getB8ne180100Ev, symObjAddr: 0x1094C, symBinAddr: 0x1000143A8, symSize: 0x14 }
  - { offset: 0x2ED5B, size: 0x8, addend: 0x0, symName: __ZNSt3__16vectorINS_12basic_stringIcNS_11char_traitsIcEENS_9allocatorIcEEEENS4_IS6_EEED2B8ne180100Ev, symObjAddr: 0x10960, symBinAddr: 0x1000143BC, symSize: 0x44 }
  - { offset: 0x2ED85, size: 0x8, addend: 0x0, symName: __ZNSt3__16vectorINS_12basic_stringIcNS_11char_traitsIcEENS_9allocatorIcEEEENS4_IS6_EEE16__destroy_vectorC1B8ne180100ERS8_, symObjAddr: 0x109A4, symBinAddr: 0x100014400, symSize: 0x34 }
  - { offset: 0x2EDBE, size: 0x8, addend: 0x0, symName: __ZNSt3__16vectorINS_12basic_stringIcNS_11char_traitsIcEENS_9allocatorIcEEEENS4_IS6_EEE16__destroy_vectorclB8ne180100Ev, symObjAddr: 0x109D8, symBinAddr: 0x100014434, symSize: 0x88 }
  - { offset: 0x2EDE4, size: 0x8, addend: 0x0, symName: __ZNSt3__16vectorINS_12basic_stringIcNS_11char_traitsIcEENS_9allocatorIcEEEENS4_IS6_EEE16__destroy_vectorC2B8ne180100ERS8_, symObjAddr: 0x10A60, symBinAddr: 0x1000144BC, symSize: 0x20 }
  - { offset: 0x2EE1D, size: 0x8, addend: 0x0, symName: __ZNSt3__16vectorINS_12basic_stringIcNS_11char_traitsIcEENS_9allocatorIcEEEENS4_IS6_EEE7__clearB8ne180100Ev, symObjAddr: 0x10A80, symBinAddr: 0x1000144DC, symSize: 0x28 }
  - { offset: 0x2EE43, size: 0x8, addend: 0x0, symName: __ZNKSt3__16vectorINS_12basic_stringIcNS_11char_traitsIcEENS_9allocatorIcEEEENS4_IS6_EEE17__annotate_deleteB8ne180100Ev, symObjAddr: 0x10AA8, symBinAddr: 0x100014504, symSize: 0x10 }
  - { offset: 0x2EE69, size: 0x8, addend: 0x0, symName: __ZNSt3__116allocator_traitsINS_9allocatorINS_12basic_stringIcNS_11char_traitsIcEENS1_IcEEEEEEE10deallocateB8ne180100ERS7_PS6_m, symObjAddr: 0x10AB8, symBinAddr: 0x100014514, symSize: 0x34 }
  - { offset: 0x2EEAB, size: 0x8, addend: 0x0, symName: __ZNSt3__16vectorINS_12basic_stringIcNS_11char_traitsIcEENS_9allocatorIcEEEENS4_IS6_EEE7__allocB8ne180100Ev, symObjAddr: 0x10AEC, symBinAddr: 0x100014548, symSize: 0x28 }
  - { offset: 0x2EED1, size: 0x8, addend: 0x0, symName: __ZNKSt3__16vectorINS_12basic_stringIcNS_11char_traitsIcEENS_9allocatorIcEEEENS4_IS6_EEE8capacityB8ne180100Ev, symObjAddr: 0x10B14, symBinAddr: 0x100014570, symSize: 0x40 }
  - { offset: 0x2EEF7, size: 0x8, addend: 0x0, symName: __ZNSt3__16vectorINS_12basic_stringIcNS_11char_traitsIcEENS_9allocatorIcEEEENS4_IS6_EEE22__base_destruct_at_endB8ne180100EPS6_, symObjAddr: 0x10B54, symBinAddr: 0x1000145B0, symSize: 0x88 }
  - { offset: 0x2EF3B, size: 0x8, addend: 0x0, symName: __ZNSt3__116allocator_traitsINS_9allocatorINS_12basic_stringIcNS_11char_traitsIcEENS1_IcEEEEEEE7destroyB8ne180100IS6_vEEvRS7_PT_, symObjAddr: 0x10BDC, symBinAddr: 0x100014638, symSize: 0x2C }
  - { offset: 0x2EF78, size: 0x8, addend: 0x0, symName: __ZNSt3__19allocatorINS_12basic_stringIcNS_11char_traitsIcEENS0_IcEEEEE7destroyB8ne180100EPS5_, symObjAddr: 0x10C1C, symBinAddr: 0x100014678, symSize: 0x28 }
  - { offset: 0x2EFAC, size: 0x8, addend: 0x0, symName: __ZNSt3__19allocatorINS_12basic_stringIcNS_11char_traitsIcEENS0_IcEEEEE10deallocateB8ne180100EPS5_m, symObjAddr: 0x10C44, symBinAddr: 0x1000146A0, symSize: 0x44 }
  - { offset: 0x2EFEE, size: 0x8, addend: 0x0, symName: __ZNSt3__117__compressed_pairIPNS_12basic_stringIcNS_11char_traitsIcEENS_9allocatorIcEEEENS4_IS6_EEE6secondB8ne180100Ev, symObjAddr: 0x10C88, symBinAddr: 0x1000146E4, symSize: 0x24 }
  - { offset: 0x2F014, size: 0x8, addend: 0x0, symName: __ZNSt3__122__compressed_pair_elemINS_9allocatorINS_12basic_stringIcNS_11char_traitsIcEENS1_IcEEEEEELi1ELb1EE5__getB8ne180100Ev, symObjAddr: 0x10CAC, symBinAddr: 0x100014708, symSize: 0x14 }
  - { offset: 0x2F03A, size: 0x8, addend: 0x0, symName: __ZNKSt3__16vectorINS_12basic_stringIcNS_11char_traitsIcEENS_9allocatorIcEEEENS4_IS6_EEE9__end_capB8ne180100Ev, symObjAddr: 0x10CC0, symBinAddr: 0x10001471C, symSize: 0x28 }
  - { offset: 0x2F060, size: 0x8, addend: 0x0, symName: __ZNKSt3__117__compressed_pairIPNS_12basic_stringIcNS_11char_traitsIcEENS_9allocatorIcEEEENS4_IS6_EEE5firstB8ne180100Ev, symObjAddr: 0x10CE8, symBinAddr: 0x100014744, symSize: 0x24 }
  - { offset: 0x2F086, size: 0x8, addend: 0x0, symName: __ZNKSt3__122__compressed_pair_elemIPNS_12basic_stringIcNS_11char_traitsIcEENS_9allocatorIcEEEELi0ELb0EE5__getB8ne180100Ev, symObjAddr: 0x10D0C, symBinAddr: 0x100014768, symSize: 0x14 }
  - { offset: 0x2F0AC, size: 0x8, addend: 0x0, symName: __ZNSt3__16vectorINS_4pairIccEENS_9allocatorIS2_EEED2B8ne180100Ev, symObjAddr: 0x10D20, symBinAddr: 0x10001477C, symSize: 0x44 }
  - { offset: 0x2F0D6, size: 0x8, addend: 0x0, symName: __ZNSt3__16vectorINS_4pairIccEENS_9allocatorIS2_EEE16__destroy_vectorC1B8ne180100ERS5_, symObjAddr: 0x10D64, symBinAddr: 0x1000147C0, symSize: 0x34 }
  - { offset: 0x2F10F, size: 0x8, addend: 0x0, symName: __ZNSt3__16vectorINS_4pairIccEENS_9allocatorIS2_EEE16__destroy_vectorclB8ne180100Ev, symObjAddr: 0x10D98, symBinAddr: 0x1000147F4, symSize: 0x88 }
  - { offset: 0x2F135, size: 0x8, addend: 0x0, symName: __ZNSt3__16vectorINS_4pairIccEENS_9allocatorIS2_EEE16__destroy_vectorC2B8ne180100ERS5_, symObjAddr: 0x10E20, symBinAddr: 0x10001487C, symSize: 0x20 }
  - { offset: 0x2F16E, size: 0x8, addend: 0x0, symName: __ZNSt3__16vectorINS_4pairIccEENS_9allocatorIS2_EEE7__clearB8ne180100Ev, symObjAddr: 0x10E40, symBinAddr: 0x10001489C, symSize: 0x28 }
  - { offset: 0x2F194, size: 0x8, addend: 0x0, symName: __ZNKSt3__16vectorINS_4pairIccEENS_9allocatorIS2_EEE17__annotate_deleteB8ne180100Ev, symObjAddr: 0x10E68, symBinAddr: 0x1000148C4, symSize: 0x10 }
  - { offset: 0x2F1BA, size: 0x8, addend: 0x0, symName: __ZNSt3__116allocator_traitsINS_9allocatorINS_4pairIccEEEEE10deallocateB8ne180100ERS4_PS3_m, symObjAddr: 0x10E78, symBinAddr: 0x1000148D4, symSize: 0x34 }
  - { offset: 0x2F1FC, size: 0x8, addend: 0x0, symName: __ZNSt3__16vectorINS_4pairIccEENS_9allocatorIS2_EEE7__allocB8ne180100Ev, symObjAddr: 0x10EAC, symBinAddr: 0x100014908, symSize: 0x28 }
  - { offset: 0x2F222, size: 0x8, addend: 0x0, symName: __ZNKSt3__16vectorINS_4pairIccEENS_9allocatorIS2_EEE8capacityB8ne180100Ev, symObjAddr: 0x10ED4, symBinAddr: 0x100014930, symSize: 0x40 }
  - { offset: 0x2F248, size: 0x8, addend: 0x0, symName: __ZNSt3__16vectorINS_4pairIccEENS_9allocatorIS2_EEE22__base_destruct_at_endB8ne180100EPS2_, symObjAddr: 0x10F14, symBinAddr: 0x100014970, symSize: 0x88 }
  - { offset: 0x2F28C, size: 0x8, addend: 0x0, symName: __ZNSt3__116allocator_traitsINS_9allocatorINS_4pairIccEEEEE7destroyB8ne180100IS3_vEEvRS4_PT_, symObjAddr: 0x10F9C, symBinAddr: 0x1000149F8, symSize: 0x2C }
  - { offset: 0x2F2C9, size: 0x8, addend: 0x0, symName: __ZNSt3__19allocatorINS_4pairIccEEE7destroyB8ne180100EPS2_, symObjAddr: 0x10FDC, symBinAddr: 0x100014A38, symSize: 0x14 }
  - { offset: 0x2F2FD, size: 0x8, addend: 0x0, symName: __ZNSt3__19allocatorINS_4pairIccEEE10deallocateB8ne180100EPS2_m, symObjAddr: 0x10FF0, symBinAddr: 0x100014A4C, symSize: 0x40 }
  - { offset: 0x2F33F, size: 0x8, addend: 0x0, symName: __ZNSt3__117__compressed_pairIPNS_4pairIccEENS_9allocatorIS2_EEE6secondB8ne180100Ev, symObjAddr: 0x11030, symBinAddr: 0x100014A8C, symSize: 0x24 }
  - { offset: 0x2F365, size: 0x8, addend: 0x0, symName: __ZNSt3__122__compressed_pair_elemINS_9allocatorINS_4pairIccEEEELi1ELb1EE5__getB8ne180100Ev, symObjAddr: 0x11054, symBinAddr: 0x100014AB0, symSize: 0x14 }
  - { offset: 0x2F38B, size: 0x8, addend: 0x0, symName: __ZNKSt3__16vectorINS_4pairIccEENS_9allocatorIS2_EEE9__end_capB8ne180100Ev, symObjAddr: 0x11068, symBinAddr: 0x100014AC4, symSize: 0x28 }
  - { offset: 0x2F3B1, size: 0x8, addend: 0x0, symName: __ZNKSt3__117__compressed_pairIPNS_4pairIccEENS_9allocatorIS2_EEE5firstB8ne180100Ev, symObjAddr: 0x11090, symBinAddr: 0x100014AEC, symSize: 0x24 }
  - { offset: 0x2F3D7, size: 0x8, addend: 0x0, symName: __ZNKSt3__122__compressed_pair_elemIPNS_4pairIccEELi0ELb0EE5__getB8ne180100Ev, symObjAddr: 0x110B4, symBinAddr: 0x100014B10, symSize: 0x14 }
  - { offset: 0x2F3FD, size: 0x8, addend: 0x0, symName: __ZNSt3__16vectorINS_4pairINS_12basic_stringIcNS_11char_traitsIcEENS_9allocatorIcEEEES7_EENS5_IS8_EEED2B8ne180100Ev, symObjAddr: 0x110C8, symBinAddr: 0x100014B24, symSize: 0x44 }
  - { offset: 0x2F427, size: 0x8, addend: 0x0, symName: __ZNSt3__16vectorINS_4pairINS_12basic_stringIcNS_11char_traitsIcEENS_9allocatorIcEEEES7_EENS5_IS8_EEE16__destroy_vectorC1B8ne180100ERSA_, symObjAddr: 0x1110C, symBinAddr: 0x100014B68, symSize: 0x34 }
  - { offset: 0x2F460, size: 0x8, addend: 0x0, symName: __ZNSt3__16vectorINS_4pairINS_12basic_stringIcNS_11char_traitsIcEENS_9allocatorIcEEEES7_EENS5_IS8_EEE16__destroy_vectorclB8ne180100Ev, symObjAddr: 0x11140, symBinAddr: 0x100014B9C, symSize: 0x88 }
  - { offset: 0x2F486, size: 0x8, addend: 0x0, symName: __ZNSt3__16vectorINS_4pairINS_12basic_stringIcNS_11char_traitsIcEENS_9allocatorIcEEEES7_EENS5_IS8_EEE16__destroy_vectorC2B8ne180100ERSA_, symObjAddr: 0x111C8, symBinAddr: 0x100014C24, symSize: 0x20 }
  - { offset: 0x2F4BF, size: 0x8, addend: 0x0, symName: __ZNSt3__16vectorINS_4pairINS_12basic_stringIcNS_11char_traitsIcEENS_9allocatorIcEEEES7_EENS5_IS8_EEE7__clearB8ne180100Ev, symObjAddr: 0x111E8, symBinAddr: 0x100014C44, symSize: 0x28 }
  - { offset: 0x2F4E5, size: 0x8, addend: 0x0, symName: __ZNKSt3__16vectorINS_4pairINS_12basic_stringIcNS_11char_traitsIcEENS_9allocatorIcEEEES7_EENS5_IS8_EEE17__annotate_deleteB8ne180100Ev, symObjAddr: 0x11210, symBinAddr: 0x100014C6C, symSize: 0x10 }
  - { offset: 0x2F50B, size: 0x8, addend: 0x0, symName: __ZNSt3__116allocator_traitsINS_9allocatorINS_4pairINS_12basic_stringIcNS_11char_traitsIcEENS1_IcEEEES7_EEEEE10deallocateB8ne180100ERS9_PS8_m, symObjAddr: 0x11220, symBinAddr: 0x100014C7C, symSize: 0x34 }
  - { offset: 0x2F54D, size: 0x8, addend: 0x0, symName: __ZNSt3__16vectorINS_4pairINS_12basic_stringIcNS_11char_traitsIcEENS_9allocatorIcEEEES7_EENS5_IS8_EEE7__allocB8ne180100Ev, symObjAddr: 0x11254, symBinAddr: 0x100014CB0, symSize: 0x28 }
  - { offset: 0x2F573, size: 0x8, addend: 0x0, symName: __ZNKSt3__16vectorINS_4pairINS_12basic_stringIcNS_11char_traitsIcEENS_9allocatorIcEEEES7_EENS5_IS8_EEE8capacityB8ne180100Ev, symObjAddr: 0x1127C, symBinAddr: 0x100014CD8, symSize: 0x40 }
  - { offset: 0x2F599, size: 0x8, addend: 0x0, symName: __ZNSt3__16vectorINS_4pairINS_12basic_stringIcNS_11char_traitsIcEENS_9allocatorIcEEEES7_EENS5_IS8_EEE22__base_destruct_at_endB8ne180100EPS8_, symObjAddr: 0x112BC, symBinAddr: 0x100014D18, symSize: 0x88 }
  - { offset: 0x2F5DD, size: 0x8, addend: 0x0, symName: __ZNSt3__116allocator_traitsINS_9allocatorINS_4pairINS_12basic_stringIcNS_11char_traitsIcEENS1_IcEEEES7_EEEEE7destroyB8ne180100IS8_vEEvRS9_PT_, symObjAddr: 0x11344, symBinAddr: 0x100014DA0, symSize: 0x2C }
  - { offset: 0x2F61A, size: 0x8, addend: 0x0, symName: __ZNSt3__19allocatorINS_4pairINS_12basic_stringIcNS_11char_traitsIcEENS0_IcEEEES6_EEE7destroyB8ne180100EPS7_, symObjAddr: 0x11384, symBinAddr: 0x100014DE0, symSize: 0x28 }
  - { offset: 0x2F64E, size: 0x8, addend: 0x0, symName: __ZNSt3__14pairINS_12basic_stringIcNS_11char_traitsIcEENS_9allocatorIcEEEES6_ED1Ev, symObjAddr: 0x113AC, symBinAddr: 0x100014E08, symSize: 0x2C }
  - { offset: 0x2F67A, size: 0x8, addend: 0x0, symName: __ZNSt3__14pairINS_12basic_stringIcNS_11char_traitsIcEENS_9allocatorIcEEEES6_ED2Ev, symObjAddr: 0x113D8, symBinAddr: 0x100014E34, symSize: 0x38 }
  - { offset: 0x2F6A6, size: 0x8, addend: 0x0, symName: __ZNSt3__19allocatorINS_4pairINS_12basic_stringIcNS_11char_traitsIcEENS0_IcEEEES6_EEE10deallocateB8ne180100EPS7_m, symObjAddr: 0x11410, symBinAddr: 0x100014E6C, symSize: 0x44 }
  - { offset: 0x2F6E8, size: 0x8, addend: 0x0, symName: __ZNSt3__117__compressed_pairIPNS_4pairINS_12basic_stringIcNS_11char_traitsIcEENS_9allocatorIcEEEES7_EENS5_IS8_EEE6secondB8ne180100Ev, symObjAddr: 0x11454, symBinAddr: 0x100014EB0, symSize: 0x24 }
  - { offset: 0x2F70E, size: 0x8, addend: 0x0, symName: __ZNSt3__122__compressed_pair_elemINS_9allocatorINS_4pairINS_12basic_stringIcNS_11char_traitsIcEENS1_IcEEEES7_EEEELi1ELb1EE5__getB8ne180100Ev, symObjAddr: 0x11478, symBinAddr: 0x100014ED4, symSize: 0x14 }
  - { offset: 0x2F734, size: 0x8, addend: 0x0, symName: __ZNKSt3__16vectorINS_4pairINS_12basic_stringIcNS_11char_traitsIcEENS_9allocatorIcEEEES7_EENS5_IS8_EEE9__end_capB8ne180100Ev, symObjAddr: 0x1148C, symBinAddr: 0x100014EE8, symSize: 0x28 }
  - { offset: 0x2F75A, size: 0x8, addend: 0x0, symName: __ZNKSt3__117__compressed_pairIPNS_4pairINS_12basic_stringIcNS_11char_traitsIcEENS_9allocatorIcEEEES7_EENS5_IS8_EEE5firstB8ne180100Ev, symObjAddr: 0x114B4, symBinAddr: 0x100014F10, symSize: 0x24 }
  - { offset: 0x2F780, size: 0x8, addend: 0x0, symName: __ZNKSt3__122__compressed_pair_elemIPNS_4pairINS_12basic_stringIcNS_11char_traitsIcEENS_9allocatorIcEEEES7_EELi0ELb0EE5__getB8ne180100Ev, symObjAddr: 0x114D8, symBinAddr: 0x100014F34, symSize: 0x14 }
  - { offset: 0x2F7A6, size: 0x8, addend: 0x0, symName: __ZNSt3__16vectorIcNS_9allocatorIcEEED2B8ne180100Ev, symObjAddr: 0x114EC, symBinAddr: 0x100014F48, symSize: 0x44 }
  - { offset: 0x2F7D0, size: 0x8, addend: 0x0, symName: __ZNSt3__16vectorIcNS_9allocatorIcEEE16__destroy_vectorC1B8ne180100ERS3_, symObjAddr: 0x11530, symBinAddr: 0x100014F8C, symSize: 0x34 }
  - { offset: 0x2F809, size: 0x8, addend: 0x0, symName: __ZNSt3__16vectorIcNS_9allocatorIcEEE16__destroy_vectorclB8ne180100Ev, symObjAddr: 0x11564, symBinAddr: 0x100014FC0, symSize: 0x88 }
  - { offset: 0x2F82F, size: 0x8, addend: 0x0, symName: __ZNSt3__16vectorIcNS_9allocatorIcEEE16__destroy_vectorC2B8ne180100ERS3_, symObjAddr: 0x115EC, symBinAddr: 0x100015048, symSize: 0x20 }
  - { offset: 0x2F868, size: 0x8, addend: 0x0, symName: __ZNSt3__16vectorIcNS_9allocatorIcEEE7__clearB8ne180100Ev, symObjAddr: 0x1160C, symBinAddr: 0x100015068, symSize: 0x28 }
  - { offset: 0x2F88E, size: 0x8, addend: 0x0, symName: __ZNKSt3__16vectorIcNS_9allocatorIcEEE17__annotate_deleteB8ne180100Ev, symObjAddr: 0x11634, symBinAddr: 0x100015090, symSize: 0x10 }
  - { offset: 0x2F8B4, size: 0x8, addend: 0x0, symName: __ZNSt3__116allocator_traitsINS_9allocatorIcEEE10deallocateB8ne180100ERS2_Pcm, symObjAddr: 0x11644, symBinAddr: 0x1000150A0, symSize: 0x34 }
  - { offset: 0x2F8F6, size: 0x8, addend: 0x0, symName: __ZNSt3__16vectorIcNS_9allocatorIcEEE7__allocB8ne180100Ev, symObjAddr: 0x11678, symBinAddr: 0x1000150D4, symSize: 0x28 }
  - { offset: 0x2F91C, size: 0x8, addend: 0x0, symName: __ZNKSt3__16vectorIcNS_9allocatorIcEEE8capacityB8ne180100Ev, symObjAddr: 0x116A0, symBinAddr: 0x1000150FC, symSize: 0x38 }
  - { offset: 0x2F942, size: 0x8, addend: 0x0, symName: __ZNSt3__16vectorIcNS_9allocatorIcEEE22__base_destruct_at_endB8ne180100EPc, symObjAddr: 0x116D8, symBinAddr: 0x100015134, symSize: 0x88 }
  - { offset: 0x2F986, size: 0x8, addend: 0x0, symName: __ZNSt3__116allocator_traitsINS_9allocatorIcEEE7destroyB8ne180100IcvEEvRS2_PT_, symObjAddr: 0x11760, symBinAddr: 0x1000151BC, symSize: 0x2C }
  - { offset: 0x2F9C3, size: 0x8, addend: 0x0, symName: __ZNSt3__19allocatorIcE7destroyB8ne180100EPc, symObjAddr: 0x117A0, symBinAddr: 0x1000151FC, symSize: 0x14 }
  - { offset: 0x2F9F7, size: 0x8, addend: 0x0, symName: __ZNSt3__19allocatorIcE10deallocateB8ne180100EPcm, symObjAddr: 0x117B4, symBinAddr: 0x100015210, symSize: 0x40 }
  - { offset: 0x2FA39, size: 0x8, addend: 0x0, symName: __ZNSt3__117__compressed_pairIPcNS_9allocatorIcEEE6secondB8ne180100Ev, symObjAddr: 0x117F4, symBinAddr: 0x100015250, symSize: 0x24 }
  - { offset: 0x2FA5F, size: 0x8, addend: 0x0, symName: __ZNSt3__122__compressed_pair_elemINS_9allocatorIcEELi1ELb1EE5__getB8ne180100Ev, symObjAddr: 0x11818, symBinAddr: 0x100015274, symSize: 0x14 }
  - { offset: 0x2FA85, size: 0x8, addend: 0x0, symName: __ZNKSt3__16vectorIcNS_9allocatorIcEEE9__end_capB8ne180100Ev, symObjAddr: 0x1182C, symBinAddr: 0x100015288, symSize: 0x28 }
  - { offset: 0x2FAAB, size: 0x8, addend: 0x0, symName: __ZNKSt3__117__compressed_pairIPcNS_9allocatorIcEEE5firstB8ne180100Ev, symObjAddr: 0x11854, symBinAddr: 0x1000152B0, symSize: 0x24 }
  - { offset: 0x2FAD1, size: 0x8, addend: 0x0, symName: __ZNKSt3__122__compressed_pair_elemIPcLi0ELb0EE5__getB8ne180100Ev, symObjAddr: 0x11878, symBinAddr: 0x1000152D4, symSize: 0x14 }
  - { offset: 0x2FAF7, size: 0x8, addend: 0x0, symName: __ZNSt3__120__bracket_expressionIcNS_12regex_traitsIcEEED2Ev, symObjAddr: 0x1188C, symBinAddr: 0x1000152E8, symSize: 0x84 }
  - { offset: 0x2FB24, size: 0x8, addend: 0x0, symName: __ZNSt3__14pairIccEC1B8ne180100ILb1ETnNS_9enable_ifIXclsr13_CheckArgsDepIXT_EEE17__enable_implicitIRKcS5_EEEiE4typeELi0EEES5_S5_, symObjAddr: 0x11910, symBinAddr: 0x10001536C, symSize: 0x3C }
  - { offset: 0x2FB7A, size: 0x8, addend: 0x0, symName: __ZNKSt3__112regex_traitsIcE18lookup_collatenameB8ne180100IPcEENS_12basic_stringIcNS_11char_traitsIcEENS_9allocatorIcEEEET_SA_, symObjAddr: 0x1194C, symBinAddr: 0x1000153A8, symSize: 0x40 }
  - { offset: 0x2FBC7, size: 0x8, addend: 0x0, symName: __ZNKSt3__112basic_stringIcNS_11char_traitsIcEENS_9allocatorIcEEE5emptyB8ne180100Ev, symObjAddr: 0x1198C, symBinAddr: 0x1000153E8, symSize: 0x2C }
  - { offset: 0x2FBED, size: 0x8, addend: 0x0, symName: __ZNKSt3__16vectorINS_4pairIccEENS_9allocatorIS2_EEE4sizeB8ne180100Ev, symObjAddr: 0x119B8, symBinAddr: 0x100015414, symSize: 0x28 }
  - { offset: 0x2FC13, size: 0x8, addend: 0x0, symName: __ZNKSt3__16vectorINS_4pairIccEENS_9allocatorIS2_EEEixB8ne180100Em, symObjAddr: 0x11A40, symBinAddr: 0x10001549C, symSize: 0x24 }
  - { offset: 0x2FC4A, size: 0x8, addend: 0x0, symName: __ZNKSt3__16vectorINS_4pairINS_12basic_stringIcNS_11char_traitsIcEENS_9allocatorIcEEEES7_EENS5_IS8_EEE5emptyB8ne180100Ev, symObjAddr: 0x11A64, symBinAddr: 0x1000154C0, symSize: 0x24 }
  - { offset: 0x2FC9E, size: 0x8, addend: 0x0, symName: __ZNKSt3__112regex_traitsIcE9transformIPcEENS_12basic_stringIcNS_11char_traitsIcEENS_9allocatorIcEEEET_SA_, symObjAddr: 0x11A88, symBinAddr: 0x1000154E4, symSize: 0xF0 }
  - { offset: 0x2FD2D, size: 0x8, addend: 0x0, symName: __ZNKSt3__16vectorINS_4pairINS_12basic_stringIcNS_11char_traitsIcEENS_9allocatorIcEEEES7_EENS5_IS8_EEE4sizeB8ne180100Ev, symObjAddr: 0x11B78, symBinAddr: 0x1000155D4, symSize: 0x28 }
  - { offset: 0x2FD53, size: 0x8, addend: 0x0, symName: __ZNKSt3__16vectorINS_4pairINS_12basic_stringIcNS_11char_traitsIcEENS_9allocatorIcEEEES7_EENS5_IS8_EEEixB8ne180100Em, symObjAddr: 0x11BD0, symBinAddr: 0x10001562C, symSize: 0x2C }
  - { offset: 0x2FD8A, size: 0x8, addend: 0x0, symName: __ZNKSt3__16vectorINS_12basic_stringIcNS_11char_traitsIcEENS_9allocatorIcEEEENS4_IS6_EEE5emptyB8ne180100Ev, symObjAddr: 0x11BFC, symBinAddr: 0x100015658, symSize: 0x24 }
  - { offset: 0x2FDB0, size: 0x8, addend: 0x0, symName: __ZNKSt3__112regex_traitsIcE17transform_primaryB8ne180100IPcEENS_12basic_stringIcNS_11char_traitsIcEENS_9allocatorIcEEEET_SA_, symObjAddr: 0x11C20, symBinAddr: 0x10001567C, symSize: 0x40 }
  - { offset: 0x2FDFD, size: 0x8, addend: 0x0, symName: __ZNKSt3__16vectorINS_12basic_stringIcNS_11char_traitsIcEENS_9allocatorIcEEEENS4_IS6_EEE4sizeB8ne180100Ev, symObjAddr: 0x11C60, symBinAddr: 0x1000156BC, symSize: 0x28 }
  - { offset: 0x2FE23, size: 0x8, addend: 0x0, symName: __ZNKSt3__16vectorINS_12basic_stringIcNS_11char_traitsIcEENS_9allocatorIcEEEENS4_IS6_EEEixB8ne180100Em, symObjAddr: 0x11DBC, symBinAddr: 0x100015818, symSize: 0x2C }
  - { offset: 0x2FE5A, size: 0x8, addend: 0x0, symName: __ZNKSt3__16vectorIcNS_9allocatorIcEEE4sizeB8ne180100Ev, symObjAddr: 0x11DE8, symBinAddr: 0x100015844, symSize: 0x20 }
  - { offset: 0x2FE80, size: 0x8, addend: 0x0, symName: __ZNKSt3__16vectorIcNS_9allocatorIcEEEixB8ne180100Em, symObjAddr: 0x11E08, symBinAddr: 0x100015864, symSize: 0x24 }
  - { offset: 0x2FEB7, size: 0x8, addend: 0x0, symName: __ZNKSt3__16vectorIcNS_9allocatorIcEEE5emptyB8ne180100Ev, symObjAddr: 0x11E2C, symBinAddr: 0x100015888, symSize: 0x24 }
  - { offset: 0x2FEDD, size: 0x8, addend: 0x0, symName: __ZNKSt3__16vectorIcNS_9allocatorIcEEE5beginB8ne180100Ev, symObjAddr: 0x11EF8, symBinAddr: 0x100015954, symSize: 0x30 }
  - { offset: 0x2FF05, size: 0x8, addend: 0x0, symName: __ZNKSt3__16vectorIcNS_9allocatorIcEEE3endB8ne180100Ev, symObjAddr: 0x11F28, symBinAddr: 0x100015984, symSize: 0x30 }
  - { offset: 0x2FF2D, size: 0x8, addend: 0x0, symName: __ZNSt3__112basic_stringIcNS_11char_traitsIcEENS_9allocatorIcEEEC1B8ne180100Emc, symObjAddr: 0x11F58, symBinAddr: 0x1000159B4, symSize: 0x3C }
  - { offset: 0x2FF75, size: 0x8, addend: 0x0, symName: __ZNSt3__14pairIccEC2B8ne180100ILb1ETnNS_9enable_ifIXclsr13_CheckArgsDepIXT_EEE17__enable_implicitIRKcS5_EEEiE4typeELi0EEES5_S5_, symObjAddr: 0x11F94, symBinAddr: 0x1000159F0, symSize: 0x34 }
  - { offset: 0x2FFCB, size: 0x8, addend: 0x0, symName: __ZNKSt3__112regex_traitsIcE20__lookup_collatenameIPcEENS_12basic_stringIcNS_11char_traitsIcEENS_9allocatorIcEEEET_SA_c, symObjAddr: 0x11FC8, symBinAddr: 0x100015A24, symSize: 0x214 }
  - { offset: 0x30078, size: 0x8, addend: 0x0, symName: __ZNSt3__112basic_stringIcNS_11char_traitsIcEENS_9allocatorIcEEEC1B8ne180100IPcTnNS_9enable_ifIXsr29__has_input_iterator_categoryIT_EE5valueEiE4typeELi0EEES9_S9_, symObjAddr: 0x121DC, symBinAddr: 0x100015C38, symSize: 0x3C }
  - { offset: 0x300CF, size: 0x8, addend: 0x0, symName: __ZNSt3__112basic_stringIcNS_11char_traitsIcEENS_9allocatorIcEEEC1B8ne180100Ev, symObjAddr: 0x12218, symBinAddr: 0x100015C74, symSize: 0x2C }
  - { offset: 0x300F9, size: 0x8, addend: 0x0, symName: __ZNKSt3__112basic_stringIcNS_11char_traitsIcEENS_9allocatorIcEEE5c_strB8ne180100Ev, symObjAddr: 0x12244, symBinAddr: 0x100015CA0, symSize: 0x24 }
  - { offset: 0x3011F, size: 0x8, addend: 0x0, symName: __ZNSt3__112basic_stringIcNS_11char_traitsIcEENS_9allocatorIcEEEaSB8ne180100EOS5_, symObjAddr: 0x12268, symBinAddr: 0x100015CC4, symSize: 0x34 }
  - { offset: 0x30154, size: 0x8, addend: 0x0, symName: __ZNKSt3__112basic_stringIcNS_11char_traitsIcEENS_9allocatorIcEEE4dataB8ne180100Ev, symObjAddr: 0x1229C, symBinAddr: 0x100015CF8, symSize: 0x28 }
  - { offset: 0x3017A, size: 0x8, addend: 0x0, symName: __ZNSt3__112basic_stringIcNS_11char_traitsIcEENS_9allocatorIcEEE5clearB8ne180100Ev, symObjAddr: 0x122C4, symBinAddr: 0x100015D20, symSize: 0x94 }
  - { offset: 0x301B1, size: 0x8, addend: 0x0, symName: __ZNSt3__112basic_stringIcNS_11char_traitsIcEENS_9allocatorIcEEEC2B8ne180100IPcTnNS_9enable_ifIXsr29__has_input_iterator_categoryIT_EE5valueEiE4typeELi0EEES9_S9_, symObjAddr: 0x12358, symBinAddr: 0x100015DB4, symSize: 0x4C }
  - { offset: 0x30208, size: 0x8, addend: 0x0, symName: __ZNSt3__112basic_stringIcNS_11char_traitsIcEENS_9allocatorIcEEE6__initIPcTnNS_9enable_ifIXsr31__has_forward_iterator_categoryIT_EE5valueEiE4typeELi0EEEvS9_S9_, symObjAddr: 0x123A4, symBinAddr: 0x100015E00, symSize: 0x54 }
  - { offset: 0x3026A, size: 0x8, addend: 0x0, symName: __ZNSt3__112basic_stringIcNS_11char_traitsIcEENS_9allocatorIcEEE16__init_with_sizeB8ne180100IPcS7_EEvT_T0_m, symObjAddr: 0x12424, symBinAddr: 0x100015E80, symSize: 0x148 }
  - { offset: 0x302FB, size: 0x8, addend: 0x0, symName: __ZNKSt3__112basic_stringIcNS_11char_traitsIcEENS_9allocatorIcEEE8max_sizeB8ne180100Ev, symObjAddr: 0x1258C, symBinAddr: 0x100015FE8, symSize: 0xA8 }
  - { offset: 0x3034D, size: 0x8, addend: 0x0, symName: __ZNKSt3__112basic_stringIcNS_11char_traitsIcEENS_9allocatorIcEEE20__throw_length_errorB8ne180100Ev, symObjAddr: 0x12634, symBinAddr: 0x100016090, symSize: 0x1C }
  - { offset: 0x30373, size: 0x8, addend: 0x0, symName: __ZNSt3__112basic_stringIcNS_11char_traitsIcEENS_9allocatorIcEEE13__fits_in_ssoB8ne180100Em, symObjAddr: 0x12650, symBinAddr: 0x1000160AC, symSize: 0x1C }
  - { offset: 0x30397, size: 0x8, addend: 0x0, symName: __ZNSt3__112basic_stringIcNS_11char_traitsIcEENS_9allocatorIcEEE16__set_short_sizeB8ne180100Em, symObjAddr: 0x1266C, symBinAddr: 0x1000160C8, symSize: 0x78 }
  - { offset: 0x303CC, size: 0x8, addend: 0x0, symName: __ZNSt3__112basic_stringIcNS_11char_traitsIcEENS_9allocatorIcEEE19__get_short_pointerB8ne180100Ev, symObjAddr: 0x126E4, symBinAddr: 0x100016140, symSize: 0x28 }
  - { offset: 0x303F2, size: 0x8, addend: 0x0, symName: __ZNSt3__112basic_stringIcNS_11char_traitsIcEENS_9allocatorIcEEE7__allocB8ne180100Ev, symObjAddr: 0x1274C, symBinAddr: 0x1000161A8, symSize: 0x24 }
  - { offset: 0x30418, size: 0x8, addend: 0x0, symName: __ZNSt3__112basic_stringIcNS_11char_traitsIcEENS_9allocatorIcEEE11__recommendB8ne180100Em, symObjAddr: 0x12770, symBinAddr: 0x1000161CC, symSize: 0x7C }
  - { offset: 0x3044B, size: 0x8, addend: 0x0, symName: __ZNSt3__112basic_stringIcNS_11char_traitsIcEENS_9allocatorIcEEE16__begin_lifetimeB8ne180100EPcm, symObjAddr: 0x127EC, symBinAddr: 0x100016248, symSize: 0x14 }
  - { offset: 0x3047E, size: 0x8, addend: 0x0, symName: __ZNSt3__112basic_stringIcNS_11char_traitsIcEENS_9allocatorIcEEE18__set_long_pointerB8ne180100EPc, symObjAddr: 0x12800, symBinAddr: 0x10001625C, symSize: 0x38 }
  - { offset: 0x304B3, size: 0x8, addend: 0x0, symName: __ZNSt3__112basic_stringIcNS_11char_traitsIcEENS_9allocatorIcEEE14__set_long_capB8ne180100Em, symObjAddr: 0x12838, symBinAddr: 0x100016294, symSize: 0x70 }
  - { offset: 0x304E8, size: 0x8, addend: 0x0, symName: __ZNSt3__112basic_stringIcNS_11char_traitsIcEENS_9allocatorIcEEE15__set_long_sizeB8ne180100Em, symObjAddr: 0x128A8, symBinAddr: 0x100016304, symSize: 0x38 }
  - { offset: 0x3051D, size: 0x8, addend: 0x0, symName: __ZNSt3__111char_traitsIcE6assignB8ne180100ERcRKc, symObjAddr: 0x128E0, symBinAddr: 0x10001633C, symSize: 0x24 }
  - { offset: 0x3054E, size: 0x8, addend: 0x0, symName: __ZNKSt3__112basic_stringIcNS_11char_traitsIcEENS_9allocatorIcEEE14__annotate_newB8ne180100Em, symObjAddr: 0x12904, symBinAddr: 0x100016360, symSize: 0x14 }
  - { offset: 0x3058E, size: 0x8, addend: 0x0, symName: __ZNSt3__116allocator_traitsINS_9allocatorIcEEE8max_sizeB8ne180100IS2_vEEmRKS2_, symObjAddr: 0x12918, symBinAddr: 0x100016374, symSize: 0x24 }
  - { offset: 0x305BC, size: 0x8, addend: 0x0, symName: __ZNKSt3__112basic_stringIcNS_11char_traitsIcEENS_9allocatorIcEEE7__allocB8ne180100Ev, symObjAddr: 0x1293C, symBinAddr: 0x100016398, symSize: 0x24 }
  - { offset: 0x305E2, size: 0x8, addend: 0x0, symName: __ZNSt3__114numeric_limitsImE3maxB8ne180100Ev, symObjAddr: 0x12960, symBinAddr: 0x1000163BC, symSize: 0x14 }
  - { offset: 0x305F6, size: 0x8, addend: 0x0, symName: __ZNKSt3__19allocatorIcE8max_sizeB8ne180100Ev, symObjAddr: 0x12974, symBinAddr: 0x1000163D0, symSize: 0x14 }
  - { offset: 0x3061C, size: 0x8, addend: 0x0, symName: __ZNKSt3__117__compressed_pairINS_12basic_stringIcNS_11char_traitsIcEENS_9allocatorIcEEE5__repES5_E6secondB8ne180100Ev, symObjAddr: 0x12988, symBinAddr: 0x1000163E4, symSize: 0x24 }
  - { offset: 0x30642, size: 0x8, addend: 0x0, symName: __ZNKSt3__122__compressed_pair_elemINS_9allocatorIcEELi1ELb1EE5__getB8ne180100Ev, symObjAddr: 0x129AC, symBinAddr: 0x100016408, symSize: 0x14 }
  - { offset: 0x30668, size: 0x8, addend: 0x0, symName: __ZNSt3__123__libcpp_numeric_limitsImLb1EE3maxB8ne180100Ev, symObjAddr: 0x129C0, symBinAddr: 0x10001641C, symSize: 0x8 }
  - { offset: 0x3067C, size: 0x8, addend: 0x0, symName: __ZNSt3__117__compressed_pairINS_12basic_stringIcNS_11char_traitsIcEENS_9allocatorIcEEE5__repES5_E5firstB8ne180100Ev, symObjAddr: 0x129C8, symBinAddr: 0x100016424, symSize: 0x24 }
  - { offset: 0x306A2, size: 0x8, addend: 0x0, symName: __ZNSt3__122__compressed_pair_elemINS_12basic_stringIcNS_11char_traitsIcEENS_9allocatorIcEEE5__repELi0ELb0EE5__getB8ne180100Ev, symObjAddr: 0x129EC, symBinAddr: 0x100016448, symSize: 0x14 }
  - { offset: 0x306C8, size: 0x8, addend: 0x0, symName: __ZNSt3__114pointer_traitsIPcE10pointer_toB8ne180100ERc, symObjAddr: 0x12A00, symBinAddr: 0x10001645C, symSize: 0x14 }
  - { offset: 0x306EB, size: 0x8, addend: 0x0, symName: __ZNSt3__19allocatorIcE8allocateB8ne180100Em, symObjAddr: 0x12A14, symBinAddr: 0x100016470, symSize: 0x54 }
  - { offset: 0x3071F, size: 0x8, addend: 0x0, symName: __ZNSt3__117__compressed_pairINS_12basic_stringIcNS_11char_traitsIcEENS_9allocatorIcEEE5__repES5_E6secondB8ne180100Ev, symObjAddr: 0x12A68, symBinAddr: 0x1000164C4, symSize: 0x24 }
  - { offset: 0x30745, size: 0x8, addend: 0x0, symName: __ZNSt3__112basic_stringIcNS_11char_traitsIcEENS_9allocatorIcEEE10__align_itB8ne180100ILm8EEEmm, symObjAddr: 0x12A8C, symBinAddr: 0x1000164E8, symSize: 0x1C }
  - { offset: 0x30773, size: 0x8, addend: 0x0, symName: __ZNSt3__112basic_stringIcNS_11char_traitsIcEENS_9allocatorIcEEEC2B8ne180100Ev, symObjAddr: 0x12AA8, symBinAddr: 0x100016504, symSize: 0x48 }
  - { offset: 0x3079D, size: 0x8, addend: 0x0, symName: __ZNSt3__117__compressed_pairINS_12basic_stringIcNS_11char_traitsIcEENS_9allocatorIcEEE5__repES5_EC1B8ne180100INS_16__value_init_tagENS_18__default_init_tagEEEOT_OT0_, symObjAddr: 0x12AF0, symBinAddr: 0x10001654C, symSize: 0x3C }
  - { offset: 0x307F5, size: 0x8, addend: 0x0, symName: __ZNSt3__117__compressed_pairINS_12basic_stringIcNS_11char_traitsIcEENS_9allocatorIcEEE5__repES5_EC2B8ne180100INS_16__value_init_tagENS_18__default_init_tagEEEOT_OT0_, symObjAddr: 0x12B2C, symBinAddr: 0x100016588, symSize: 0x3C }
  - { offset: 0x3084D, size: 0x8, addend: 0x0, symName: __ZNSt3__122__compressed_pair_elemINS_12basic_stringIcNS_11char_traitsIcEENS_9allocatorIcEEE5__repELi0ELb0EEC2B8ne180100ENS_16__value_init_tagE, symObjAddr: 0x12B68, symBinAddr: 0x1000165C4, symSize: 0x20 }
  - { offset: 0x30881, size: 0x8, addend: 0x0, symName: __ZNSt3__112basic_stringIcNS_11char_traitsIcEENS_9allocatorIcEEE13__move_assignB8ne180100ERS5_NS_17integral_constantIbLb1EEE, symObjAddr: 0x12B88, symBinAddr: 0x1000165E4, symSize: 0x174 }
  - { offset: 0x308E1, size: 0x8, addend: 0x0, symName: __ZNKSt3__112basic_stringIcNS_11char_traitsIcEENS_9allocatorIcEEE17__annotate_deleteB8ne180100Ev, symObjAddr: 0x12CFC, symBinAddr: 0x100016758, symSize: 0x10 }
  - { offset: 0x30907, size: 0x8, addend: 0x0, symName: __ZNSt3__112basic_stringIcNS_11char_traitsIcEENS_9allocatorIcEEE18__get_long_pointerB8ne180100Ev, symObjAddr: 0x12D0C, symBinAddr: 0x100016768, symSize: 0x28 }
  - { offset: 0x3092D, size: 0x8, addend: 0x0, symName: __ZNKSt3__112basic_stringIcNS_11char_traitsIcEENS_9allocatorIcEEE14__get_long_capB8ne180100Ev, symObjAddr: 0x12D34, symBinAddr: 0x100016790, symSize: 0x30 }
  - { offset: 0x30953, size: 0x8, addend: 0x0, symName: __ZNSt3__112basic_stringIcNS_11char_traitsIcEENS_9allocatorIcEEE19__move_assign_allocB8ne180100ERS5_, symObjAddr: 0x12D64, symBinAddr: 0x1000167C0, symSize: 0x2C }
  - { offset: 0x30988, size: 0x8, addend: 0x0, symName: __ZNKSt3__112basic_stringIcNS_11char_traitsIcEENS_9allocatorIcEEE17__annotate_shrinkB8ne180100Em, symObjAddr: 0x12D90, symBinAddr: 0x1000167EC, symSize: 0x14 }
  - { offset: 0x309BD, size: 0x8, addend: 0x0, symName: __ZNSt3__112basic_stringIcNS_11char_traitsIcEENS_9allocatorIcEEE19__move_assign_allocB8ne180100ERS5_NS_17integral_constantIbLb1EEE, symObjAddr: 0x12DA4, symBinAddr: 0x100016800, symSize: 0x38 }
  - { offset: 0x309FD, size: 0x8, addend: 0x0, symName: __ZNKSt3__112basic_stringIcNS_11char_traitsIcEENS_9allocatorIcEEE13__get_pointerB8ne180100Ev, symObjAddr: 0x12DDC, symBinAddr: 0x100016838, symSize: 0x54 }
  - { offset: 0x30A23, size: 0x8, addend: 0x0, symName: __ZNKSt3__112basic_stringIcNS_11char_traitsIcEENS_9allocatorIcEEE18__get_long_pointerB8ne180100Ev, symObjAddr: 0x12E30, symBinAddr: 0x10001688C, symSize: 0x28 }
  - { offset: 0x30A49, size: 0x8, addend: 0x0, symName: __ZNKSt3__112basic_stringIcNS_11char_traitsIcEENS_9allocatorIcEEE19__get_short_pointerB8ne180100Ev, symObjAddr: 0x12E58, symBinAddr: 0x1000168B4, symSize: 0x28 }
  - { offset: 0x30A6F, size: 0x8, addend: 0x0, symName: __ZNSt3__114pointer_traitsIPKcE10pointer_toB8ne180100ERS1_, symObjAddr: 0x12E80, symBinAddr: 0x1000168DC, symSize: 0x14 }
  - { offset: 0x30A92, size: 0x8, addend: 0x0, symName: __ZNKSt3__112basic_stringIcNS_11char_traitsIcEENS_9allocatorIcEEE7compareB8ne180100ERKS5_, symObjAddr: 0x12EC8, symBinAddr: 0x100016924, symSize: 0x4C }
  - { offset: 0x30AC9, size: 0x8, addend: 0x0, symName: __ZNKSt3__112basic_stringIcNS_11char_traitsIcEENS_9allocatorIcEEE7compareINS_17basic_string_viewIcS2_EETnNS_9enable_ifIXsr33__can_be_converted_to_string_viewIcS2_T_EE5valueEiE4typeELi0EEEiRKSA_, symObjAddr: 0x12F14, symBinAddr: 0x100016970, symSize: 0x11C }
  - { offset: 0x30B4A, size: 0x8, addend: 0x0, symName: __ZNKSt3__112basic_stringIcNS_11char_traitsIcEENS_9allocatorIcEEEcvNS_17basic_string_viewIcS2_EEB8ne180100Ev, symObjAddr: 0x13030, symBinAddr: 0x100016A8C, symSize: 0x50 }
  - { offset: 0x30B70, size: 0x8, addend: 0x0, symName: __ZNKSt3__117basic_string_viewIcNS_11char_traitsIcEEE4sizeB8ne180100Ev, symObjAddr: 0x13080, symBinAddr: 0x100016ADC, symSize: 0x18 }
  - { offset: 0x30B96, size: 0x8, addend: 0x0, symName: __ZNSt3__111char_traitsIcE7compareB8ne180100EPKcS3_m, symObjAddr: 0x13098, symBinAddr: 0x100016AF4, symSize: 0x34 }
  - { offset: 0x30BD5, size: 0x8, addend: 0x0, symName: __ZNKSt3__117basic_string_viewIcNS_11char_traitsIcEEE4dataB8ne180100Ev, symObjAddr: 0x130CC, symBinAddr: 0x100016B28, symSize: 0x18 }
  - { offset: 0x30BFB, size: 0x8, addend: 0x0, symName: __ZNSt3__117basic_string_viewIcNS_11char_traitsIcEEEC1B8ne180100EPKcm, symObjAddr: 0x130E4, symBinAddr: 0x100016B40, symSize: 0x3C }
  - { offset: 0x30C43, size: 0x8, addend: 0x0, symName: __ZNSt3__117basic_string_viewIcNS_11char_traitsIcEEEC2B8ne180100EPKcm, symObjAddr: 0x13120, symBinAddr: 0x100016B7C, symSize: 0x2C }
  - { offset: 0x30C8B, size: 0x8, addend: 0x0, symName: __ZNKSt3__112regex_traitsIcE19__transform_primaryIPcEENS_12basic_stringIcNS_11char_traitsIcEENS_9allocatorIcEEEET_SA_c, symObjAddr: 0x1314C, symBinAddr: 0x100016BA8, symSize: 0x194 }
  - { offset: 0x30D36, size: 0x8, addend: 0x0, symName: __ZNSt3__112basic_stringIcNS_11char_traitsIcEENS_9allocatorIcEEEixB8ne180100Em, symObjAddr: 0x132E0, symBinAddr: 0x100016D3C, symSize: 0x48 }
  - { offset: 0x30D6B, size: 0x8, addend: 0x0, symName: __ZNSt3__112basic_stringIcNS_11char_traitsIcEENS_9allocatorIcEEE13__get_pointerB8ne180100Ev, symObjAddr: 0x13328, symBinAddr: 0x100016D84, symSize: 0x54 }
  - { offset: 0x30D91, size: 0x8, addend: 0x0, symName: __ZNKSt3__111__wrap_iterIPKcE4baseB8ne180100Ev, symObjAddr: 0x133C0, symBinAddr: 0x100016E1C, symSize: 0x18 }
  - { offset: 0x30DB7, size: 0x8, addend: 0x0, symName: __ZNSt3__118__unwrap_iter_implINS_11__wrap_iterIPKcEELb1EE8__rewrapB8ne180100ES4_S3_, symObjAddr: 0x134C0, symBinAddr: 0x100016F1C, symSize: 0x54 }
  - { offset: 0x30DE8, size: 0x8, addend: 0x0, symName: __ZNKSt3__111__wrap_iterIPKcEplB8ne180100El, symObjAddr: 0x13514, symBinAddr: 0x100016F70, symSize: 0x3C }
  - { offset: 0x30E2A, size: 0x8, addend: 0x0, symName: __ZNSt3__111__wrap_iterIPKcEpLB8ne180100El, symObjAddr: 0x13574, symBinAddr: 0x100016FD0, symSize: 0x28 }
  - { offset: 0x30E6A, size: 0x8, addend: 0x0, symName: __ZNSt3__119__to_address_helperINS_11__wrap_iterIPKcEEvE6__callB8ne180100ERKS4_, symObjAddr: 0x1359C, symBinAddr: 0x100016FF8, symSize: 0x30 }
  - { offset: 0x30E8D, size: 0x8, addend: 0x0, symName: __ZNSt3__114pointer_traitsINS_11__wrap_iterIPKcEEE10to_addressB8ne180100ES4_, symObjAddr: 0x135CC, symBinAddr: 0x100017028, symSize: 0x2C }
  - { offset: 0x30EB0, size: 0x8, addend: 0x0, symName: __ZNSt3__118__unwrap_iter_implINS_11__wrap_iterIPKcEELb1EE8__unwrapB8ne180100ES4_, symObjAddr: 0x13638, symBinAddr: 0x100017094, symSize: 0x28 }
  - { offset: 0x30ED3, size: 0x8, addend: 0x0, symName: __ZNKSt3__16vectorIcNS_9allocatorIcEEE11__make_iterB8ne180100EPKc, symObjAddr: 0x13660, symBinAddr: 0x1000170BC, symSize: 0x30 }
  - { offset: 0x30F08, size: 0x8, addend: 0x0, symName: __ZNSt3__111__wrap_iterIPKcEC1B8ne180100ES2_, symObjAddr: 0x13690, symBinAddr: 0x1000170EC, symSize: 0x34 }
  - { offset: 0x30F40, size: 0x8, addend: 0x0, symName: __ZNSt3__111__wrap_iterIPKcEC2B8ne180100ES2_, symObjAddr: 0x136C4, symBinAddr: 0x100017120, symSize: 0x20 }
  - { offset: 0x30F78, size: 0x8, addend: 0x0, symName: __ZNSt3__112basic_stringIcNS_11char_traitsIcEENS_9allocatorIcEEEC2B8ne180100Emc, symObjAddr: 0x136E4, symBinAddr: 0x100017140, symSize: 0x4C }
  - { offset: 0x30FC0, size: 0x8, addend: 0x0, symName: __ZNSt3__16vectorIcNS_9allocatorIcEEE9push_backB8ne180100EOc, symObjAddr: 0x13730, symBinAddr: 0x10001718C, symSize: 0x8C }
  - { offset: 0x31006, size: 0x8, addend: 0x0, symName: __ZNSt3__16vectorIcNS_9allocatorIcEEE9push_backB8ne180100ERKc, symObjAddr: 0x137BC, symBinAddr: 0x100017218, symSize: 0x8C }
  - { offset: 0x3104C, size: 0x8, addend: 0x0, symName: __ZNSt3__16vectorIcNS_9allocatorIcEEE9__end_capB8ne180100Ev, symObjAddr: 0x13848, symBinAddr: 0x1000172A4, symSize: 0x28 }
  - { offset: 0x31078, size: 0x8, addend: 0x0, symName: __ZNSt3__16vectorIcNS_9allocatorIcEEE22__construct_one_at_endB8ne180100IJcEEEvDpOT_, symObjAddr: 0x13870, symBinAddr: 0x1000172CC, symSize: 0x90 }
  - { offset: 0x310C7, size: 0x8, addend: 0x0, symName: __ZNSt3__16vectorIcNS_9allocatorIcEEE21__push_back_slow_pathIcEEPcOT_, symObjAddr: 0x13900, symBinAddr: 0x10001735C, symSize: 0xE8 }
  - { offset: 0x31123, size: 0x8, addend: 0x0, symName: __ZNSt3__117__compressed_pairIPcNS_9allocatorIcEEE5firstB8ne180100Ev, symObjAddr: 0x139E8, symBinAddr: 0x100017444, symSize: 0x24 }
  - { offset: 0x31149, size: 0x8, addend: 0x0, symName: __ZNSt3__122__compressed_pair_elemIPcLi0ELb0EE5__getB8ne180100Ev, symObjAddr: 0x13A0C, symBinAddr: 0x100017468, symSize: 0x14 }
  - { offset: 0x3118B, size: 0x8, addend: 0x0, symName: __ZNSt3__16vectorIcNS_9allocatorIcEEE21_ConstructTransactionC1B8ne180100ERS3_m, symObjAddr: 0x13A20, symBinAddr: 0x10001747C, symSize: 0x3C }
  - { offset: 0x311D3, size: 0x8, addend: 0x0, symName: __ZNSt3__116allocator_traitsINS_9allocatorIcEEE9constructB8ne180100IcJcEvEEvRS2_PT_DpOT0_, symObjAddr: 0x13A5C, symBinAddr: 0x1000174B8, symSize: 0x34 }
  - { offset: 0x3122A, size: 0x8, addend: 0x0, symName: __ZNSt3__16vectorIcNS_9allocatorIcEEE21_ConstructTransactionD1B8ne180100Ev, symObjAddr: 0x13A90, symBinAddr: 0x1000174EC, symSize: 0x2C }
  - { offset: 0x31254, size: 0x8, addend: 0x0, symName: __ZNSt3__16vectorIcNS_9allocatorIcEEE21_ConstructTransactionC2B8ne180100ERS3_m, symObjAddr: 0x13ABC, symBinAddr: 0x100017518, symSize: 0x44 }
  - { offset: 0x3129C, size: 0x8, addend: 0x0, symName: __ZNSt3__19allocatorIcE9constructB8ne180100IcJcEEEvPT_DpOT0_, symObjAddr: 0x13B00, symBinAddr: 0x10001755C, symSize: 0x28 }
  - { offset: 0x312F2, size: 0x8, addend: 0x0, symName: __ZNSt3__16vectorIcNS_9allocatorIcEEE21_ConstructTransactionD2B8ne180100Ev, symObjAddr: 0x13B28, symBinAddr: 0x100017584, symSize: 0x20 }
  - { offset: 0x3131C, size: 0x8, addend: 0x0, symName: __ZNKSt3__16vectorIcNS_9allocatorIcEEE11__recommendB8ne180100Em, symObjAddr: 0x13B48, symBinAddr: 0x1000175A4, symSize: 0xAC }
  - { offset: 0x31371, size: 0x8, addend: 0x0, symName: __ZNSt3__114__split_bufferIcRNS_9allocatorIcEEEC1EmmS3_, symObjAddr: 0x13BF4, symBinAddr: 0x100017650, symSize: 0x44 }
  - { offset: 0x313C7, size: 0x8, addend: 0x0, symName: __ZNSt3__114__split_bufferIcRNS_9allocatorIcEEED1Ev, symObjAddr: 0x13D48, symBinAddr: 0x1000177A4, symSize: 0x2C }
  - { offset: 0x313F3, size: 0x8, addend: 0x0, symName: __ZNKSt3__16vectorIcNS_9allocatorIcEEE8max_sizeEv, symObjAddr: 0x13D74, symBinAddr: 0x1000177D0, symSize: 0x60 }
  - { offset: 0x3141B, size: 0x8, addend: 0x0, symName: __ZNKSt3__16vectorIcNS_9allocatorIcEEE20__throw_length_errorB8ne180100Ev, symObjAddr: 0x13DD4, symBinAddr: 0x100017830, symSize: 0x1C }
  - { offset: 0x31441, size: 0x8, addend: 0x0, symName: __ZNKSt3__16vectorIcNS_9allocatorIcEEE7__allocB8ne180100Ev, symObjAddr: 0x13DF0, symBinAddr: 0x10001784C, symSize: 0x28 }
  - { offset: 0x31467, size: 0x8, addend: 0x0, symName: __ZNKSt3__117__compressed_pairIPcNS_9allocatorIcEEE6secondB8ne180100Ev, symObjAddr: 0x13E18, symBinAddr: 0x100017874, symSize: 0x24 }
  - { offset: 0x3148D, size: 0x8, addend: 0x0, symName: __ZNSt3__114__split_bufferIcRNS_9allocatorIcEEEC2EmmS3_, symObjAddr: 0x13E3C, symBinAddr: 0x100017898, symSize: 0xCC }
  - { offset: 0x31500, size: 0x8, addend: 0x0, symName: __ZNSt3__117__compressed_pairIPcRNS_9allocatorIcEEEC1B8ne180100IDnS4_EEOT_OT0_, symObjAddr: 0x13F08, symBinAddr: 0x100017964, symSize: 0x3C }
  - { offset: 0x31558, size: 0x8, addend: 0x0, symName: __ZNSt3__114__split_bufferIcRNS_9allocatorIcEEE7__allocB8ne180100Ev, symObjAddr: 0x13F44, symBinAddr: 0x1000179A0, symSize: 0x28 }
  - { offset: 0x3157E, size: 0x8, addend: 0x0, symName: __ZNSt3__114__split_bufferIcRNS_9allocatorIcEEE9__end_capB8ne180100Ev, symObjAddr: 0x13F6C, symBinAddr: 0x1000179C8, symSize: 0x28 }
  - { offset: 0x315A4, size: 0x8, addend: 0x0, symName: __ZNSt3__117__compressed_pairIPcRNS_9allocatorIcEEEC2B8ne180100IDnS4_EEOT_OT0_, symObjAddr: 0x13F94, symBinAddr: 0x1000179F0, symSize: 0x48 }
  - { offset: 0x315FC, size: 0x8, addend: 0x0, symName: __ZNSt3__122__compressed_pair_elemIRNS_9allocatorIcEELi1ELb0EEC2B8ne180100IS3_vEEOT_, symObjAddr: 0x13FDC, symBinAddr: 0x100017A38, symSize: 0x20 }
  - { offset: 0x3163E, size: 0x8, addend: 0x0, symName: __ZNSt3__117__compressed_pairIPcRNS_9allocatorIcEEE6secondB8ne180100Ev, symObjAddr: 0x13FFC, symBinAddr: 0x100017A58, symSize: 0x28 }
  - { offset: 0x31664, size: 0x8, addend: 0x0, symName: __ZNSt3__122__compressed_pair_elemIRNS_9allocatorIcEELi1ELb0EE5__getB8ne180100Ev, symObjAddr: 0x14024, symBinAddr: 0x100017A80, symSize: 0x18 }
  - { offset: 0x3168A, size: 0x8, addend: 0x0, symName: __ZNSt3__117__compressed_pairIPcRNS_9allocatorIcEEE5firstB8ne180100Ev, symObjAddr: 0x1403C, symBinAddr: 0x100017A98, symSize: 0x24 }
  - { offset: 0x316B0, size: 0x8, addend: 0x0, symName: __ZNSt3__116reverse_iteratorIPcEC1B8ne180100ES1_, symObjAddr: 0x140D8, symBinAddr: 0x100017B34, symSize: 0x34 }
  - { offset: 0x316E8, size: 0x8, addend: 0x0, symName: __ZNKSt3__116reverse_iteratorIPcE4baseB8ne180100Ev, symObjAddr: 0x1410C, symBinAddr: 0x100017B68, symSize: 0x18 }
  - { offset: 0x3170E, size: 0x8, addend: 0x0, symName: __ZNKSt3__16vectorIcNS_9allocatorIcEEE14__annotate_newB8ne180100Em, symObjAddr: 0x14160, symBinAddr: 0x100017BBC, symSize: 0x14 }
  - { offset: 0x3176B, size: 0x8, addend: 0x0, symName: __ZNKSt3__111__move_loopINS_17_ClassicAlgPolicyEEclB8ne180100INS_16reverse_iteratorIPcEES6_S6_EENS_4pairIT_T1_EES8_T0_S9_, symObjAddr: 0x14464, symBinAddr: 0x100017EC0, symSize: 0xA0 }
  - { offset: 0x317DC, size: 0x8, addend: 0x0, symName: __ZNSt3__18_IterOpsINS_17_ClassicAlgPolicyEE11__iter_moveB8ne180100IRNS_16reverse_iteratorIPcEETnNS_9enable_ifIXsr12is_referenceIDTdeclsr3stdE7declvalIRT_EEEEE5valueEiE4typeELi0EEEDTclsr3stdE4movedeclsr3stdE7declvalISA_EEEEOS9_, symObjAddr: 0x14694, symBinAddr: 0x1000180F0, symSize: 0x28 }
  - { offset: 0x3180E, size: 0x8, addend: 0x0, symName: __ZNKSt3__116reverse_iteratorIPcEdeB8ne180100Ev, symObjAddr: 0x146BC, symBinAddr: 0x100018118, symSize: 0x28 }
  - { offset: 0x31842, size: 0x8, addend: 0x0, symName: __ZNSt3__116reverse_iteratorIPcEppB8ne180100Ev, symObjAddr: 0x146E4, symBinAddr: 0x100018140, symSize: 0x20 }
  - { offset: 0x31868, size: 0x8, addend: 0x0, symName: __ZNSt3__18_IterOpsINS_17_ClassicAlgPolicyEE25__validate_iter_referenceB8ne180100IRNS_16reverse_iteratorIPcEEEEvv, symObjAddr: 0x14704, symBinAddr: 0x100018160, symSize: 0x4 }
  - { offset: 0x31886, size: 0x8, addend: 0x0, symName: __ZNSt3__118__unwrap_iter_implINS_16reverse_iteratorIPcEELb0EE8__unwrapB8ne180100ES3_, symObjAddr: 0x14708, symBinAddr: 0x100018164, symSize: 0x24 }
  - { offset: 0x318AF, size: 0x8, addend: 0x0, symName: __ZNSt3__14pairINS_16reverse_iteratorIPcEES3_EC1B8ne180100IS3_S3_TnNS_9enable_ifIXclsr10_CheckArgsE17__enable_implicitIT_T0_EEEiE4typeELi0EEEOS7_OS8_, symObjAddr: 0x1472C, symBinAddr: 0x100018188, symSize: 0x3C }
  - { offset: 0x3190D, size: 0x8, addend: 0x0, symName: __ZNSt3__14pairINS_16reverse_iteratorIPcEES3_EC2B8ne180100IS3_S3_TnNS_9enable_ifIXclsr10_CheckArgsE17__enable_implicitIT_T0_EEEiE4typeELi0EEEOS7_OS8_, symObjAddr: 0x14768, symBinAddr: 0x1000181C4, symSize: 0x34 }
  - { offset: 0x3196B, size: 0x8, addend: 0x0, symName: __ZNSt3__118__unwrap_iter_implINS_16reverse_iteratorIPcEELb0EE8__rewrapB8ne180100ES3_S3_, symObjAddr: 0x1479C, symBinAddr: 0x1000181F8, symSize: 0x2C }
  - { offset: 0x31998, size: 0x8, addend: 0x0, symName: __ZNSt3__116reverse_iteratorIPcEC2B8ne180100ES1_, symObjAddr: 0x147C8, symBinAddr: 0x100018224, symSize: 0x28 }
  - { offset: 0x319D0, size: 0x8, addend: 0x0, symName: __ZNSt3__114__split_bufferIcRNS_9allocatorIcEEED2Ev, symObjAddr: 0x147F0, symBinAddr: 0x10001824C, symSize: 0x84 }
  - { offset: 0x319FC, size: 0x8, addend: 0x0, symName: __ZNSt3__114__split_bufferIcRNS_9allocatorIcEEE5clearB8ne180100Ev, symObjAddr: 0x14874, symBinAddr: 0x1000182D0, symSize: 0x28 }
  - { offset: 0x31A22, size: 0x8, addend: 0x0, symName: __ZNKSt3__114__split_bufferIcRNS_9allocatorIcEEE8capacityB8ne180100Ev, symObjAddr: 0x1489C, symBinAddr: 0x1000182F8, symSize: 0x38 }
  - { offset: 0x31A48, size: 0x8, addend: 0x0, symName: __ZNSt3__114__split_bufferIcRNS_9allocatorIcEEE17__destruct_at_endB8ne180100EPc, symObjAddr: 0x148D4, symBinAddr: 0x100018330, symSize: 0x2C }
  - { offset: 0x31A7C, size: 0x8, addend: 0x0, symName: __ZNSt3__114__split_bufferIcRNS_9allocatorIcEEE17__destruct_at_endB8ne180100EPcNS_17integral_constantIbLb0EEE, symObjAddr: 0x14900, symBinAddr: 0x10001835C, symSize: 0x7C }
  - { offset: 0x31ABC, size: 0x8, addend: 0x0, symName: __ZNKSt3__114__split_bufferIcRNS_9allocatorIcEEE9__end_capB8ne180100Ev, symObjAddr: 0x1497C, symBinAddr: 0x1000183D8, symSize: 0x28 }
  - { offset: 0x31AE2, size: 0x8, addend: 0x0, symName: __ZNKSt3__117__compressed_pairIPcRNS_9allocatorIcEEE5firstB8ne180100Ev, symObjAddr: 0x149A4, symBinAddr: 0x100018400, symSize: 0x24 }
  - { offset: 0x31B08, size: 0x8, addend: 0x0, symName: __ZNSt3__16vectorIcNS_9allocatorIcEEE22__construct_one_at_endB8ne180100IJRKcEEEvDpOT_, symObjAddr: 0x149C8, symBinAddr: 0x100018424, symSize: 0x90 }
  - { offset: 0x31B57, size: 0x8, addend: 0x0, symName: __ZNSt3__16vectorIcNS_9allocatorIcEEE21__push_back_slow_pathIRKcEEPcOT_, symObjAddr: 0x14A58, symBinAddr: 0x1000184B4, symSize: 0xE8 }
  - { offset: 0x31BB3, size: 0x8, addend: 0x0, symName: __ZNSt3__116allocator_traitsINS_9allocatorIcEEE9constructB8ne180100IcJRKcEvEEvRS2_PT_DpOT0_, symObjAddr: 0x14B40, symBinAddr: 0x10001859C, symSize: 0x34 }
  - { offset: 0x31C0A, size: 0x8, addend: 0x0, symName: __ZNSt3__19allocatorIcE9constructB8ne180100IcJRKcEEEvPT_DpOT0_, symObjAddr: 0x14B74, symBinAddr: 0x1000185D0, symSize: 0x28 }
  - { offset: 0x31C60, size: 0x8, addend: 0x0, symName: __ZNKSt3__112regex_traitsIcE5valueB8ne180100Eci, symObjAddr: 0x14B9C, symBinAddr: 0x1000185F8, symSize: 0x34 }
  - { offset: 0x31CA4, size: 0x8, addend: 0x0, symName: __ZNKSt3__112regex_traitsIcE20__regex_traits_valueB8ne180100Eci, symObjAddr: 0x14BD0, symBinAddr: 0x10001862C, symSize: 0x30 }
  - { offset: 0x31CE8, size: 0x8, addend: 0x0, symName: __ZNSt3__112regex_traitsIcE20__regex_traits_valueEhi, symObjAddr: 0x14C00, symBinAddr: 0x10001865C, symSize: 0xD8 }
  - { offset: 0x31D1D, size: 0x8, addend: 0x0, symName: __ZNSt3__111basic_regexIcNS_12regex_traitsIcEEE19__parse_follow_listIPKcEET_S7_S7_PNS_20__bracket_expressionIcS2_EE, symObjAddr: 0x14D90, symBinAddr: 0x1000187EC, symSize: 0x8C }
  - { offset: 0x31D96, size: 0x8, addend: 0x0, symName: __ZNSt3__111basic_regexIcNS_12regex_traitsIcEEE23__parse_expression_termIPKcEET_S7_S7_PNS_20__bracket_expressionIcS2_EE, symObjAddr: 0x14E1C, symBinAddr: 0x100018878, symSize: 0x6A0 }
  - { offset: 0x31E3D, size: 0x8, addend: 0x0, symName: __ZNSt3__111basic_regexIcNS_12regex_traitsIcEEE25__parse_equivalence_classIPKcEET_S7_S7_PNS_20__bracket_expressionIcS2_EE, symObjAddr: 0x154BC, symBinAddr: 0x100018F18, symSize: 0x22C }
  - { offset: 0x31ED7, size: 0x8, addend: 0x0, symName: __ZNSt3__111basic_regexIcNS_12regex_traitsIcEEE23__parse_character_classIPKcEET_S7_S7_PNS_20__bracket_expressionIcS2_EE, symObjAddr: 0x156E8, symBinAddr: 0x100019144, symSize: 0xE4 }
  - { offset: 0x31F6C, size: 0x8, addend: 0x0, symName: __ZNSt3__111basic_regexIcNS_12regex_traitsIcEEE24__parse_collating_symbolIPKcEET_S7_S7_RNS_12basic_stringIcNS_11char_traitsIcEENS_9allocatorIcEEEE, symObjAddr: 0x157CC, symBinAddr: 0x100019228, symSize: 0xD4 }
  - { offset: 0x31FE6, size: 0x8, addend: 0x0, symName: __ZNSt3__111basic_regexIcNS_12regex_traitsIcEEE20__parse_class_escapeIPKcEET_S7_S7_RNS_12basic_stringIcNS_11char_traitsIcEENS_9allocatorIcEEEEPNS_20__bracket_expressionIcS2_EE, symObjAddr: 0x158A0, symBinAddr: 0x1000192FC, symSize: 0x234 }
  - { offset: 0x32051, size: 0x8, addend: 0x0, symName: __ZNSt3__111basic_regexIcNS_12regex_traitsIcEEE18__parse_awk_escapeIPKcEET_S7_S7_PNS_12basic_stringIcNS_11char_traitsIcEENS_9allocatorIcEEEE, symObjAddr: 0x15AD4, symBinAddr: 0x100019530, symSize: 0x488 }
  - { offset: 0x320CA, size: 0x8, addend: 0x0, symName: __ZNSt3__120__bracket_expressionIcNS_12regex_traitsIcEEE11__add_rangeB8ne180100ENS_12basic_stringIcNS_11char_traitsIcEENS_9allocatorIcEEEES9_, symObjAddr: 0x15F5C, symBinAddr: 0x1000199B8, symSize: 0x4BC }
  - { offset: 0x32185, size: 0x8, addend: 0x0, symName: __ZNSt3__112basic_stringIcNS_11char_traitsIcEENS_9allocatorIcEEEC1B8ne180100EOS5_, symObjAddr: 0x16418, symBinAddr: 0x100019E74, symSize: 0x34 }
  - { offset: 0x321BE, size: 0x8, addend: 0x0, symName: __ZNSt3__120__bracket_expressionIcNS_12regex_traitsIcEEE13__add_digraphB8ne180100Ecc, symObjAddr: 0x1644C, symBinAddr: 0x100019EA8, symSize: 0x13C }
  - { offset: 0x32202, size: 0x8, addend: 0x0, symName: __ZNKSt3__112regex_traitsIcE18lookup_collatenameB8ne180100IPKcEENS_12basic_stringIcNS_11char_traitsIcEENS_9allocatorIcEEEET_SB_, symObjAddr: 0x165C4, symBinAddr: 0x10001A020, symSize: 0x40 }
  - { offset: 0x3224F, size: 0x8, addend: 0x0, symName: __ZNKSt3__112regex_traitsIcE17transform_primaryB8ne180100INS_11__wrap_iterIPcEEEENS_12basic_stringIcNS_11char_traitsIcEENS_9allocatorIcEEEET_SC_, symObjAddr: 0x16664, symBinAddr: 0x10001A0C0, symSize: 0x50 }
  - { offset: 0x3229C, size: 0x8, addend: 0x0, symName: __ZNSt3__112basic_stringIcNS_11char_traitsIcEENS_9allocatorIcEEE5beginB8ne180100Ev, symObjAddr: 0x166B4, symBinAddr: 0x10001A110, symSize: 0x4C }
  - { offset: 0x322C2, size: 0x8, addend: 0x0, symName: __ZNSt3__112basic_stringIcNS_11char_traitsIcEENS_9allocatorIcEEE3endB8ne180100Ev, symObjAddr: 0x16700, symBinAddr: 0x10001A15C, symSize: 0x54 }
  - { offset: 0x322E8, size: 0x8, addend: 0x0, symName: __ZNSt3__120__bracket_expressionIcNS_12regex_traitsIcEEE17__add_equivalenceB8ne180100ERKNS_12basic_stringIcNS_11char_traitsIcEENS_9allocatorIcEEEE, symObjAddr: 0x16754, symBinAddr: 0x10001A1B0, symSize: 0x30 }
  - { offset: 0x32323, size: 0x8, addend: 0x0, symName: __ZNSt3__14pairIPKcS2_EC1B8ne180100IRS2_S5_TnNS_9enable_ifIXclsr10_CheckArgsE17__enable_implicitIT_T0_EEEiE4typeELi0EEEOS7_OS8_, symObjAddr: 0x16AB8, symBinAddr: 0x10001A514, symSize: 0x3C }
  - { offset: 0x32381, size: 0x8, addend: 0x0, symName: __ZNSt3__14pairIPKcS2_EC2B8ne180100IRS2_S5_TnNS_9enable_ifIXclsr10_CheckArgsE17__enable_implicitIT_T0_EEEiE4typeELi0EEEOS7_OS8_, symObjAddr: 0x16AF4, symBinAddr: 0x10001A550, symSize: 0x34 }
  - { offset: 0x323DF, size: 0x8, addend: 0x0, symName: __ZNSt3__18_IterOpsINS_17_ClassicAlgPolicyEE12__advance_toB8ne180100IPKcEEvRT_S6_, symObjAddr: 0x16B28, symBinAddr: 0x10001A584, symSize: 0x20 }
  - { offset: 0x32424, size: 0x8, addend: 0x0, symName: __ZNKSt3__110__equal_toclB8ne180100IccEEbRKT_RKT0_, symObjAddr: 0x16C0C, symBinAddr: 0x10001A668, symSize: 0x30 }
  - { offset: 0x32483, size: 0x8, addend: 0x0, symName: __ZNKSt3__110__identityclB8ne180100IRKcEEOT_S5_, symObjAddr: 0x16C3C, symBinAddr: 0x10001A698, symSize: 0x18 }
  - { offset: 0x324C0, size: 0x8, addend: 0x0, symName: __ZNKSt3__110__identityclB8ne180100IRcEEOT_S4_, symObjAddr: 0x16C54, symBinAddr: 0x10001A6B0, symSize: 0x18 }
  - { offset: 0x32503, size: 0x8, addend: 0x0, symName: __ZNSt3__14pairIPKcS2_EC1B8ne180100IRS2_S2_TnNS_9enable_ifIXclsr10_CheckArgsE17__enable_implicitIT_T0_EEEiE4typeELi0EEEOS7_OS8_, symObjAddr: 0x16C6C, symBinAddr: 0x10001A6C8, symSize: 0x3C }
  - { offset: 0x32561, size: 0x8, addend: 0x0, symName: __ZNSt3__14pairIPKcS2_EC2B8ne180100IRS2_S2_TnNS_9enable_ifIXclsr10_CheckArgsE17__enable_implicitIT_T0_EEEiE4typeELi0EEEOS7_OS8_, symObjAddr: 0x16CA8, symBinAddr: 0x10001A704, symSize: 0x34 }
  - { offset: 0x325BF, size: 0x8, addend: 0x0, symName: __ZNKSt3__112regex_traitsIcE20__lookup_collatenameIPKcEENS_12basic_stringIcNS_11char_traitsIcEENS_9allocatorIcEEEET_SB_c, symObjAddr: 0x16CDC, symBinAddr: 0x10001A738, symSize: 0x214 }
  - { offset: 0x3266C, size: 0x8, addend: 0x0, symName: __ZNSt3__112basic_stringIcNS_11char_traitsIcEENS_9allocatorIcEEEC1B8ne180100IPKcTnNS_9enable_ifIXsr29__has_input_iterator_categoryIT_EE5valueEiE4typeELi0EEESA_SA_, symObjAddr: 0x16EF0, symBinAddr: 0x10001A94C, symSize: 0x3C }
  - { offset: 0x326C3, size: 0x8, addend: 0x0, symName: __ZNSt3__112basic_stringIcNS_11char_traitsIcEENS_9allocatorIcEEEC2B8ne180100IPKcTnNS_9enable_ifIXsr29__has_input_iterator_categoryIT_EE5valueEiE4typeELi0EEESA_SA_, symObjAddr: 0x16F2C, symBinAddr: 0x10001A988, symSize: 0x4C }
  - { offset: 0x3271A, size: 0x8, addend: 0x0, symName: __ZNSt3__112basic_stringIcNS_11char_traitsIcEENS_9allocatorIcEEE6__initIPKcTnNS_9enable_ifIXsr31__has_forward_iterator_categoryIT_EE5valueEiE4typeELi0EEEvSA_SA_, symObjAddr: 0x16F78, symBinAddr: 0x10001A9D4, symSize: 0x54 }
  - { offset: 0x3277C, size: 0x8, addend: 0x0, symName: __ZNSt3__112basic_stringIcNS_11char_traitsIcEENS_9allocatorIcEEE16__init_with_sizeB8ne180100IPKcS8_EEvT_T0_m, symObjAddr: 0x16FF8, symBinAddr: 0x10001AA54, symSize: 0x148 }
  - { offset: 0x3280D, size: 0x8, addend: 0x0, symName: __ZNKSt3__112regex_traitsIcE19__transform_primaryINS_11__wrap_iterIPcEEEENS_12basic_stringIcNS_11char_traitsIcEENS_9allocatorIcEEEET_SC_c, symObjAddr: 0x17160, symBinAddr: 0x10001ABBC, symSize: 0x1A4 }
  - { offset: 0x328B8, size: 0x8, addend: 0x0, symName: __ZNSt3__112basic_stringIcNS_11char_traitsIcEENS_9allocatorIcEEEC1B8ne180100INS_11__wrap_iterIPcEETnNS_9enable_ifIXsr29__has_input_iterator_categoryIT_EE5valueEiE4typeELi0EEESB_SB_, symObjAddr: 0x17304, symBinAddr: 0x10001AD60, symSize: 0x3C }
  - { offset: 0x3290F, size: 0x8, addend: 0x0, symName: __ZNSt3__112basic_stringIcNS_11char_traitsIcEENS_9allocatorIcEEEC2B8ne180100INS_11__wrap_iterIPcEETnNS_9enable_ifIXsr29__has_input_iterator_categoryIT_EE5valueEiE4typeELi0EEESB_SB_, symObjAddr: 0x17340, symBinAddr: 0x10001AD9C, symSize: 0x5C }
  - { offset: 0x32966, size: 0x8, addend: 0x0, symName: __ZNSt3__112basic_stringIcNS_11char_traitsIcEENS_9allocatorIcEEE6__initINS_11__wrap_iterIPcEETnNS_9enable_ifIXsr31__has_forward_iterator_categoryIT_EE5valueEiE4typeELi0EEEvSB_SB_, symObjAddr: 0x1739C, symBinAddr: 0x10001ADF8, symSize: 0x74 }
  - { offset: 0x329C8, size: 0x8, addend: 0x0, symName: __ZNSt3__112basic_stringIcNS_11char_traitsIcEENS_9allocatorIcEEE16__init_with_sizeB8ne180100INS_11__wrap_iterIPcEES9_EEvT_T0_m, symObjAddr: 0x1744C, symBinAddr: 0x10001AEA8, symSize: 0x154 }
  - { offset: 0x32A59, size: 0x8, addend: 0x0, symName: __ZNKSt3__111__wrap_iterIPcE4baseB8ne180100Ev, symObjAddr: 0x17610, symBinAddr: 0x10001B06C, symSize: 0x18 }
  - { offset: 0x32A7F, size: 0x8, addend: 0x0, symName: __ZNKSt3__111__wrap_iterIPcEdeB8ne180100Ev, symObjAddr: 0x17658, symBinAddr: 0x10001B0B4, symSize: 0x18 }
  - { offset: 0x32AA5, size: 0x8, addend: 0x0, symName: __ZNSt3__111__wrap_iterIPcEppB8ne180100Ev, symObjAddr: 0x17670, symBinAddr: 0x10001B0CC, symSize: 0x20 }
  - { offset: 0x32ACB, size: 0x8, addend: 0x0, symName: __ZNSt3__112basic_stringIcNS_11char_traitsIcEENS_9allocatorIcEEE15__make_iteratorB8ne180100EPc, symObjAddr: 0x176D4, symBinAddr: 0x10001B130, symSize: 0x30 }
  - { offset: 0x32B00, size: 0x8, addend: 0x0, symName: __ZNSt3__111__wrap_iterIPcEC1B8ne180100ES1_, symObjAddr: 0x17704, symBinAddr: 0x10001B160, symSize: 0x34 }
  - { offset: 0x32B38, size: 0x8, addend: 0x0, symName: __ZNSt3__111__wrap_iterIPcEC2B8ne180100ES1_, symObjAddr: 0x17738, symBinAddr: 0x10001B194, symSize: 0x20 }
  - { offset: 0x32B70, size: 0x8, addend: 0x0, symName: __ZNSt3__16vectorINS_12basic_stringIcNS_11char_traitsIcEENS_9allocatorIcEEEENS4_IS6_EEE9push_backB8ne180100ERKS6_, symObjAddr: 0x17758, symBinAddr: 0x10001B1B4, symSize: 0x8C }
  - { offset: 0x32BB6, size: 0x8, addend: 0x0, symName: __ZNSt3__16vectorINS_12basic_stringIcNS_11char_traitsIcEENS_9allocatorIcEEEENS4_IS6_EEE9__end_capB8ne180100Ev, symObjAddr: 0x177E4, symBinAddr: 0x10001B240, symSize: 0x28 }
  - { offset: 0x32BDC, size: 0x8, addend: 0x0, symName: __ZNSt3__16vectorINS_12basic_stringIcNS_11char_traitsIcEENS_9allocatorIcEEEENS4_IS6_EEE22__construct_one_at_endB8ne180100IJRKS6_EEEvDpOT_, symObjAddr: 0x1780C, symBinAddr: 0x10001B268, symSize: 0x90 }
  - { offset: 0x32C2B, size: 0x8, addend: 0x0, symName: __ZNSt3__16vectorINS_12basic_stringIcNS_11char_traitsIcEENS_9allocatorIcEEEENS4_IS6_EEE21__push_back_slow_pathIRKS6_EEPS6_OT_, symObjAddr: 0x1789C, symBinAddr: 0x10001B2F8, symSize: 0xE8 }
  - { offset: 0x32C87, size: 0x8, addend: 0x0, symName: __ZNSt3__117__compressed_pairIPNS_12basic_stringIcNS_11char_traitsIcEENS_9allocatorIcEEEENS4_IS6_EEE5firstB8ne180100Ev, symObjAddr: 0x17984, symBinAddr: 0x10001B3E0, symSize: 0x24 }
  - { offset: 0x32CAD, size: 0x8, addend: 0x0, symName: __ZNSt3__122__compressed_pair_elemIPNS_12basic_stringIcNS_11char_traitsIcEENS_9allocatorIcEEEELi0ELb0EE5__getB8ne180100Ev, symObjAddr: 0x179A8, symBinAddr: 0x10001B404, symSize: 0x14 }
  - { offset: 0x32CEF, size: 0x8, addend: 0x0, symName: __ZNSt3__16vectorINS_12basic_stringIcNS_11char_traitsIcEENS_9allocatorIcEEEENS4_IS6_EEE21_ConstructTransactionC1B8ne180100ERS8_m, symObjAddr: 0x179BC, symBinAddr: 0x10001B418, symSize: 0x3C }
  - { offset: 0x32D37, size: 0x8, addend: 0x0, symName: __ZNSt3__116allocator_traitsINS_9allocatorINS_12basic_stringIcNS_11char_traitsIcEENS1_IcEEEEEEE9constructB8ne180100IS6_JRKS6_EvEEvRS7_PT_DpOT0_, symObjAddr: 0x179F8, symBinAddr: 0x10001B454, symSize: 0x34 }
  - { offset: 0x32D8E, size: 0x8, addend: 0x0, symName: __ZNSt3__16vectorINS_12basic_stringIcNS_11char_traitsIcEENS_9allocatorIcEEEENS4_IS6_EEE21_ConstructTransactionD1B8ne180100Ev, symObjAddr: 0x17A2C, symBinAddr: 0x10001B488, symSize: 0x2C }
  - { offset: 0x32DB8, size: 0x8, addend: 0x0, symName: __ZNSt3__16vectorINS_12basic_stringIcNS_11char_traitsIcEENS_9allocatorIcEEEENS4_IS6_EEE21_ConstructTransactionC2B8ne180100ERS8_m, symObjAddr: 0x17A58, symBinAddr: 0x10001B4B4, symSize: 0x4C }
  - { offset: 0x32E00, size: 0x8, addend: 0x0, symName: __ZNSt3__19allocatorINS_12basic_stringIcNS_11char_traitsIcEENS0_IcEEEEE9constructB8ne180100IS5_JRKS5_EEEvPT_DpOT0_, symObjAddr: 0x17AA4, symBinAddr: 0x10001B500, symSize: 0x30 }
  - { offset: 0x32E56, size: 0x8, addend: 0x0, symName: __ZNSt3__16vectorINS_12basic_stringIcNS_11char_traitsIcEENS_9allocatorIcEEEENS4_IS6_EEE21_ConstructTransactionD2B8ne180100Ev, symObjAddr: 0x17AD4, symBinAddr: 0x10001B530, symSize: 0x20 }
  - { offset: 0x32E80, size: 0x8, addend: 0x0, symName: __ZNKSt3__16vectorINS_12basic_stringIcNS_11char_traitsIcEENS_9allocatorIcEEEENS4_IS6_EEE11__recommendB8ne180100Em, symObjAddr: 0x17AF4, symBinAddr: 0x10001B550, symSize: 0xAC }
  - { offset: 0x32ED5, size: 0x8, addend: 0x0, symName: __ZNSt3__114__split_bufferINS_12basic_stringIcNS_11char_traitsIcEENS_9allocatorIcEEEERNS4_IS6_EEEC1EmmS8_, symObjAddr: 0x17BA0, symBinAddr: 0x10001B5FC, symSize: 0x44 }
  - { offset: 0x32F2B, size: 0x8, addend: 0x0, symName: __ZNSt3__114__split_bufferINS_12basic_stringIcNS_11char_traitsIcEENS_9allocatorIcEEEERNS4_IS6_EEED1Ev, symObjAddr: 0x17CF4, symBinAddr: 0x10001B750, symSize: 0x2C }
  - { offset: 0x32F57, size: 0x8, addend: 0x0, symName: __ZNKSt3__16vectorINS_12basic_stringIcNS_11char_traitsIcEENS_9allocatorIcEEEENS4_IS6_EEE8max_sizeEv, symObjAddr: 0x17D20, symBinAddr: 0x10001B77C, symSize: 0x60 }
  - { offset: 0x32F7F, size: 0x8, addend: 0x0, symName: __ZNKSt3__16vectorINS_12basic_stringIcNS_11char_traitsIcEENS_9allocatorIcEEEENS4_IS6_EEE20__throw_length_errorB8ne180100Ev, symObjAddr: 0x17D80, symBinAddr: 0x10001B7DC, symSize: 0x1C }
  - { offset: 0x32FB0, size: 0x8, addend: 0x0, symName: __ZNSt3__116allocator_traitsINS_9allocatorINS_12basic_stringIcNS_11char_traitsIcEENS1_IcEEEEEEE8max_sizeB8ne180100IS7_vEEmRKS7_, symObjAddr: 0x17D9C, symBinAddr: 0x10001B7F8, symSize: 0x24 }
  - { offset: 0x32FDE, size: 0x8, addend: 0x0, symName: __ZNKSt3__16vectorINS_12basic_stringIcNS_11char_traitsIcEENS_9allocatorIcEEEENS4_IS6_EEE7__allocB8ne180100Ev, symObjAddr: 0x17DC0, symBinAddr: 0x10001B81C, symSize: 0x28 }
  - { offset: 0x33004, size: 0x8, addend: 0x0, symName: __ZNKSt3__19allocatorINS_12basic_stringIcNS_11char_traitsIcEENS0_IcEEEEE8max_sizeB8ne180100Ev, symObjAddr: 0x17DE8, symBinAddr: 0x10001B844, symSize: 0x18 }
  - { offset: 0x3302A, size: 0x8, addend: 0x0, symName: __ZNKSt3__117__compressed_pairIPNS_12basic_stringIcNS_11char_traitsIcEENS_9allocatorIcEEEENS4_IS6_EEE6secondB8ne180100Ev, symObjAddr: 0x17E00, symBinAddr: 0x10001B85C, symSize: 0x24 }
  - { offset: 0x33050, size: 0x8, addend: 0x0, symName: __ZNKSt3__122__compressed_pair_elemINS_9allocatorINS_12basic_stringIcNS_11char_traitsIcEENS1_IcEEEEEELi1ELb1EE5__getB8ne180100Ev, symObjAddr: 0x17E24, symBinAddr: 0x10001B880, symSize: 0x14 }
  - { offset: 0x33076, size: 0x8, addend: 0x0, symName: __ZNSt3__114__split_bufferINS_12basic_stringIcNS_11char_traitsIcEENS_9allocatorIcEEEERNS4_IS6_EEEC2EmmS8_, symObjAddr: 0x17E38, symBinAddr: 0x10001B894, symSize: 0xD8 }
  - { offset: 0x330E9, size: 0x8, addend: 0x0, symName: __ZNSt3__117__compressed_pairIPNS_12basic_stringIcNS_11char_traitsIcEENS_9allocatorIcEEEERNS4_IS6_EEEC1B8ne180100IDnS9_EEOT_OT0_, symObjAddr: 0x17F10, symBinAddr: 0x10001B96C, symSize: 0x3C }
  - { offset: 0x33141, size: 0x8, addend: 0x0, symName: __ZNSt3__114__split_bufferINS_12basic_stringIcNS_11char_traitsIcEENS_9allocatorIcEEEERNS4_IS6_EEE7__allocB8ne180100Ev, symObjAddr: 0x17F8C, symBinAddr: 0x10001B9E8, symSize: 0x28 }
  - { offset: 0x33167, size: 0x8, addend: 0x0, symName: __ZNSt3__114__split_bufferINS_12basic_stringIcNS_11char_traitsIcEENS_9allocatorIcEEEERNS4_IS6_EEE9__end_capB8ne180100Ev, symObjAddr: 0x17FB4, symBinAddr: 0x10001BA10, symSize: 0x28 }
  - { offset: 0x3318D, size: 0x8, addend: 0x0, symName: __ZNSt3__117__compressed_pairIPNS_12basic_stringIcNS_11char_traitsIcEENS_9allocatorIcEEEERNS4_IS6_EEEC2B8ne180100IDnS9_EEOT_OT0_, symObjAddr: 0x17FDC, symBinAddr: 0x10001BA38, symSize: 0x48 }
  - { offset: 0x331E5, size: 0x8, addend: 0x0, symName: __ZNSt3__122__compressed_pair_elemIRNS_9allocatorINS_12basic_stringIcNS_11char_traitsIcEENS1_IcEEEEEELi1ELb0EEC2B8ne180100IS8_vEEOT_, symObjAddr: 0x18024, symBinAddr: 0x10001BA80, symSize: 0x20 }
  - { offset: 0x33227, size: 0x8, addend: 0x0, symName: __ZNSt3__19allocatorINS_12basic_stringIcNS_11char_traitsIcEENS0_IcEEEEE8allocateB8ne180100Em, symObjAddr: 0x18044, symBinAddr: 0x10001BAA0, symSize: 0x58 }
  - { offset: 0x3325B, size: 0x8, addend: 0x0, symName: __ZNSt3__117__compressed_pairIPNS_12basic_stringIcNS_11char_traitsIcEENS_9allocatorIcEEEERNS4_IS6_EEE6secondB8ne180100Ev, symObjAddr: 0x1809C, symBinAddr: 0x10001BAF8, symSize: 0x28 }
  - { offset: 0x33281, size: 0x8, addend: 0x0, symName: __ZNSt3__122__compressed_pair_elemIRNS_9allocatorINS_12basic_stringIcNS_11char_traitsIcEENS1_IcEEEEEELi1ELb0EE5__getB8ne180100Ev, symObjAddr: 0x180C4, symBinAddr: 0x10001BB20, symSize: 0x18 }
  - { offset: 0x332A7, size: 0x8, addend: 0x0, symName: __ZNSt3__117__compressed_pairIPNS_12basic_stringIcNS_11char_traitsIcEENS_9allocatorIcEEEERNS4_IS6_EEE5firstB8ne180100Ev, symObjAddr: 0x180DC, symBinAddr: 0x10001BB38, symSize: 0x24 }
  - { offset: 0x332CD, size: 0x8, addend: 0x0, symName: __ZNSt3__116reverse_iteratorIPNS_12basic_stringIcNS_11char_traitsIcEENS_9allocatorIcEEEEEC1B8ne180100ES7_, symObjAddr: 0x1822C, symBinAddr: 0x10001BC88, symSize: 0x34 }
  - { offset: 0x33305, size: 0x8, addend: 0x0, symName: __ZNKSt3__116reverse_iteratorIPNS_12basic_stringIcNS_11char_traitsIcEENS_9allocatorIcEEEEE4baseB8ne180100Ev, symObjAddr: 0x18260, symBinAddr: 0x10001BCBC, symSize: 0x18 }
  - { offset: 0x3332B, size: 0x8, addend: 0x0, symName: __ZNKSt3__16vectorINS_12basic_stringIcNS_11char_traitsIcEENS_9allocatorIcEEEENS4_IS6_EEE14__annotate_newB8ne180100Em, symObjAddr: 0x182B4, symBinAddr: 0x10001BD10, symSize: 0x14 }
  - { offset: 0x33360, size: 0x8, addend: 0x0, symName: __ZNSt3__129_AllocatorDestroyRangeReverseINS_9allocatorINS_12basic_stringIcNS_11char_traitsIcEENS1_IcEEEEEENS_16reverse_iteratorIPS6_EEEC1B8ne180100ERS7_RSA_SD_, symObjAddr: 0x18314, symBinAddr: 0x10001BD70, symSize: 0x44 }
  - { offset: 0x333BD, size: 0x8, addend: 0x0, symName: __ZNSt3__116allocator_traitsINS_9allocatorINS_12basic_stringIcNS_11char_traitsIcEENS1_IcEEEEEEE9constructB8ne180100IS6_JS6_EvEEvRS7_PT_DpOT0_, symObjAddr: 0x1839C, symBinAddr: 0x10001BDF8, symSize: 0x34 }
  - { offset: 0x33414, size: 0x8, addend: 0x0, symName: __ZNKSt3__116reverse_iteratorIPNS_12basic_stringIcNS_11char_traitsIcEENS_9allocatorIcEEEEEdeB8ne180100Ev, symObjAddr: 0x183F4, symBinAddr: 0x10001BE50, symSize: 0x28 }
  - { offset: 0x33448, size: 0x8, addend: 0x0, symName: __ZNSt3__116reverse_iteratorIPNS_12basic_stringIcNS_11char_traitsIcEENS_9allocatorIcEEEEEppB8ne180100Ev, symObjAddr: 0x1841C, symBinAddr: 0x10001BE78, symSize: 0x20 }
  - { offset: 0x3346E, size: 0x8, addend: 0x0, symName: __ZNSt3__128__exception_guard_exceptionsINS_29_AllocatorDestroyRangeReverseINS_9allocatorINS_12basic_stringIcNS_11char_traitsIcEENS2_IcEEEEEENS_16reverse_iteratorIPS7_EEEEE10__completeB8ne180100Ev, symObjAddr: 0x1843C, symBinAddr: 0x10001BE98, symSize: 0x1C }
  - { offset: 0x33494, size: 0x8, addend: 0x0, symName: __ZNSt3__128__exception_guard_exceptionsINS_29_AllocatorDestroyRangeReverseINS_9allocatorINS_12basic_stringIcNS_11char_traitsIcEENS2_IcEEEEEENS_16reverse_iteratorIPS7_EEEEED1B8ne180100Ev, symObjAddr: 0x18458, symBinAddr: 0x10001BEB4, symSize: 0x2C }
  - { offset: 0x334BE, size: 0x8, addend: 0x0, symName: __ZNSt3__128__exception_guard_exceptionsINS_29_AllocatorDestroyRangeReverseINS_9allocatorINS_12basic_stringIcNS_11char_traitsIcEENS2_IcEEEEEENS_16reverse_iteratorIPS7_EEEEEC1B8ne180100ESC_, symObjAddr: 0x18484, symBinAddr: 0x10001BEE0, symSize: 0x34 }
  - { offset: 0x334F7, size: 0x8, addend: 0x0, symName: __ZNSt3__128__exception_guard_exceptionsINS_29_AllocatorDestroyRangeReverseINS_9allocatorINS_12basic_stringIcNS_11char_traitsIcEENS2_IcEEEEEENS_16reverse_iteratorIPS7_EEEEEC2B8ne180100ESC_, symObjAddr: 0x184B8, symBinAddr: 0x10001BF14, symSize: 0x30 }
  - { offset: 0x33530, size: 0x8, addend: 0x0, symName: __ZNSt3__129_AllocatorDestroyRangeReverseINS_9allocatorINS_12basic_stringIcNS_11char_traitsIcEENS1_IcEEEEEENS_16reverse_iteratorIPS6_EEEC2B8ne180100ERS7_RSA_SD_, symObjAddr: 0x184E8, symBinAddr: 0x10001BF44, symSize: 0x38 }
  - { offset: 0x33587, size: 0x8, addend: 0x0, symName: __ZNSt3__19allocatorINS_12basic_stringIcNS_11char_traitsIcEENS0_IcEEEEE9constructB8ne180100IS5_JS5_EEEvPT_DpOT0_, symObjAddr: 0x18520, symBinAddr: 0x10001BF7C, symSize: 0x30 }
  - { offset: 0x335E3, size: 0x8, addend: 0x0, symName: __ZNSt3__119__to_address_helperINS_16reverse_iteratorIPNS_12basic_stringIcNS_11char_traitsIcEENS_9allocatorIcEEEEEEvE6__callB8ne180100ERKS9_, symObjAddr: 0x18550, symBinAddr: 0x10001BFAC, symSize: 0x38 }
  - { offset: 0x33606, size: 0x8, addend: 0x0, symName: __ZNKSt3__116reverse_iteratorIPNS_12basic_stringIcNS_11char_traitsIcEENS_9allocatorIcEEEEEptB8ne180100Ev, symObjAddr: 0x18588, symBinAddr: 0x10001BFE4, symSize: 0x24 }
  - { offset: 0x3362C, size: 0x8, addend: 0x0, symName: __ZNSt3__128__exception_guard_exceptionsINS_29_AllocatorDestroyRangeReverseINS_9allocatorINS_12basic_stringIcNS_11char_traitsIcEENS2_IcEEEEEENS_16reverse_iteratorIPS7_EEEEED2B8ne180100Ev, symObjAddr: 0x185AC, symBinAddr: 0x10001C008, symSize: 0x50 }
  - { offset: 0x33656, size: 0x8, addend: 0x0, symName: __ZNKSt3__129_AllocatorDestroyRangeReverseINS_9allocatorINS_12basic_stringIcNS_11char_traitsIcEENS1_IcEEEEEENS_16reverse_iteratorIPS6_EEEclB8ne180100Ev, symObjAddr: 0x185FC, symBinAddr: 0x10001C058, symSize: 0xB0 }
  - { offset: 0x3367D, size: 0x8, addend: 0x0, symName: __ZNSt3__116reverse_iteratorINS0_IPNS_12basic_stringIcNS_11char_traitsIcEENS_9allocatorIcEEEEEEEC1B8ne180100ES8_, symObjAddr: 0x1871C, symBinAddr: 0x10001C178, symSize: 0x3C }
  - { offset: 0x336B5, size: 0x8, addend: 0x0, symName: __ZNSt3__116reverse_iteratorINS0_IPNS_12basic_stringIcNS_11char_traitsIcEENS_9allocatorIcEEEEEEEppB8ne180100Ev, symObjAddr: 0x187D8, symBinAddr: 0x10001C234, symSize: 0x30 }
  - { offset: 0x336DB, size: 0x8, addend: 0x0, symName: __ZNKSt3__116reverse_iteratorINS0_IPNS_12basic_stringIcNS_11char_traitsIcEENS_9allocatorIcEEEEEEE4baseB8ne180100Ev, symObjAddr: 0x18808, symBinAddr: 0x10001C264, symSize: 0x24 }
  - { offset: 0x33707, size: 0x8, addend: 0x0, symName: __ZNSt3__119__to_address_helperINS_16reverse_iteratorINS1_IPNS_12basic_stringIcNS_11char_traitsIcEENS_9allocatorIcEEEEEEEEvE6__callB8ne180100ERKSA_, symObjAddr: 0x1882C, symBinAddr: 0x10001C288, symSize: 0x38 }
  - { offset: 0x3372A, size: 0x8, addend: 0x0, symName: __ZNKSt3__116reverse_iteratorINS0_IPNS_12basic_stringIcNS_11char_traitsIcEENS_9allocatorIcEEEEEEEptB8ne180100Ev, symObjAddr: 0x18864, symBinAddr: 0x10001C2C0, symSize: 0x24 }
  - { offset: 0x33750, size: 0x8, addend: 0x0, symName: __ZNKSt3__116reverse_iteratorINS0_IPNS_12basic_stringIcNS_11char_traitsIcEENS_9allocatorIcEEEEEEEdeB8ne180100Ev, symObjAddr: 0x18888, symBinAddr: 0x10001C2E4, symSize: 0x34 }
  - { offset: 0x33784, size: 0x8, addend: 0x0, symName: __ZNSt3__116reverse_iteratorIPNS_12basic_stringIcNS_11char_traitsIcEENS_9allocatorIcEEEEEmmB8ne180100Ev, symObjAddr: 0x188BC, symBinAddr: 0x10001C318, symSize: 0x20 }
  - { offset: 0x337AA, size: 0x8, addend: 0x0, symName: __ZNSt3__116reverse_iteratorINS0_IPNS_12basic_stringIcNS_11char_traitsIcEENS_9allocatorIcEEEEEEEC2B8ne180100ES8_, symObjAddr: 0x188DC, symBinAddr: 0x10001C338, symSize: 0x2C }
  - { offset: 0x337E2, size: 0x8, addend: 0x0, symName: __ZNSt3__116reverse_iteratorIPNS_12basic_stringIcNS_11char_traitsIcEENS_9allocatorIcEEEEEC2B8ne180100ES7_, symObjAddr: 0x18908, symBinAddr: 0x10001C364, symSize: 0x28 }
  - { offset: 0x3381A, size: 0x8, addend: 0x0, symName: __ZNSt3__114__split_bufferINS_12basic_stringIcNS_11char_traitsIcEENS_9allocatorIcEEEERNS4_IS6_EEED2Ev, symObjAddr: 0x18930, symBinAddr: 0x10001C38C, symSize: 0x84 }
  - { offset: 0x33846, size: 0x8, addend: 0x0, symName: __ZNSt3__114__split_bufferINS_12basic_stringIcNS_11char_traitsIcEENS_9allocatorIcEEEERNS4_IS6_EEE5clearB8ne180100Ev, symObjAddr: 0x189B4, symBinAddr: 0x10001C410, symSize: 0x28 }
  - { offset: 0x3386C, size: 0x8, addend: 0x0, symName: __ZNKSt3__114__split_bufferINS_12basic_stringIcNS_11char_traitsIcEENS_9allocatorIcEEEERNS4_IS6_EEE8capacityB8ne180100Ev, symObjAddr: 0x189DC, symBinAddr: 0x10001C438, symSize: 0x40 }
  - { offset: 0x33892, size: 0x8, addend: 0x0, symName: __ZNSt3__114__split_bufferINS_12basic_stringIcNS_11char_traitsIcEENS_9allocatorIcEEEERNS4_IS6_EEE17__destruct_at_endB8ne180100EPS6_, symObjAddr: 0x18A1C, symBinAddr: 0x10001C478, symSize: 0x2C }
  - { offset: 0x338C6, size: 0x8, addend: 0x0, symName: __ZNSt3__114__split_bufferINS_12basic_stringIcNS_11char_traitsIcEENS_9allocatorIcEEEERNS4_IS6_EEE17__destruct_at_endB8ne180100EPS6_NS_17integral_constantIbLb0EEE, symObjAddr: 0x18A48, symBinAddr: 0x10001C4A4, symSize: 0x7C }
  - { offset: 0x33906, size: 0x8, addend: 0x0, symName: __ZNKSt3__114__split_bufferINS_12basic_stringIcNS_11char_traitsIcEENS_9allocatorIcEEEERNS4_IS6_EEE9__end_capB8ne180100Ev, symObjAddr: 0x18AC4, symBinAddr: 0x10001C520, symSize: 0x28 }
  - { offset: 0x3392C, size: 0x8, addend: 0x0, symName: __ZNKSt3__117__compressed_pairIPNS_12basic_stringIcNS_11char_traitsIcEENS_9allocatorIcEEEERNS4_IS6_EEE5firstB8ne180100Ev, symObjAddr: 0x18AEC, symBinAddr: 0x10001C548, symSize: 0x24 }
  - { offset: 0x33952, size: 0x8, addend: 0x0, symName: __ZNKSt3__112regex_traitsIcE16lookup_classnameB8ne180100IPKcEEjT_S5_b, symObjAddr: 0x18B10, symBinAddr: 0x10001C56C, symSize: 0x44 }
  - { offset: 0x339AE, size: 0x8, addend: 0x0, symName: __ZNKSt3__112regex_traitsIcE18__lookup_classnameIPKcEEjT_S5_bc, symObjAddr: 0x18BB4, symBinAddr: 0x10001C610, symSize: 0xEC }
  - { offset: 0x33A24, size: 0x8, addend: 0x0, symName: __ZNKSt3__15ctypeIcE7tolowerB8ne180100EPcPKc, symObjAddr: 0x18CA0, symBinAddr: 0x10001C6FC, symSize: 0x3C }
  - { offset: 0x33A68, size: 0x8, addend: 0x0, symName: __ZNSt3__120__bracket_expressionIcNS_12regex_traitsIcEEE15__add_neg_classB8ne180100Ej, symObjAddr: 0x18CDC, symBinAddr: 0x10001C738, symSize: 0x28 }
  - { offset: 0x33A9D, size: 0x8, addend: 0x0, symName: __ZNSt3__120__bracket_expressionIcNS_12regex_traitsIcEEE14__add_neg_charB8ne180100Ec, symObjAddr: 0x18D04, symBinAddr: 0x10001C760, symSize: 0xBC }
  - { offset: 0x33AD2, size: 0x8, addend: 0x0, symName: __ZNSt3__16vectorINS_4pairINS_12basic_stringIcNS_11char_traitsIcEENS_9allocatorIcEEEES7_EENS5_IS8_EEE9push_backB8ne180100EOS8_, symObjAddr: 0x18DC0, symBinAddr: 0x10001C81C, symSize: 0x8C }
  - { offset: 0x33B18, size: 0x8, addend: 0x0, symName: __ZNKSt3__112regex_traitsIcE9transformINS_11__wrap_iterIPcEEEENS_12basic_stringIcNS_11char_traitsIcEENS_9allocatorIcEEEET_SC_, symObjAddr: 0x18E8C, symBinAddr: 0x10001C8E8, symSize: 0x100 }
  - { offset: 0x33BA7, size: 0x8, addend: 0x0, symName: __ZNSt3__16vectorINS_4pairINS_12basic_stringIcNS_11char_traitsIcEENS_9allocatorIcEEEES7_EENS5_IS8_EEE9__end_capB8ne180100Ev, symObjAddr: 0x18FEC, symBinAddr: 0x10001CA48, symSize: 0x28 }
  - { offset: 0x33BCD, size: 0x8, addend: 0x0, symName: __ZNSt3__16vectorINS_4pairINS_12basic_stringIcNS_11char_traitsIcEENS_9allocatorIcEEEES7_EENS5_IS8_EEE22__construct_one_at_endB8ne180100IJS8_EEEvDpOT_, symObjAddr: 0x19014, symBinAddr: 0x10001CA70, symSize: 0x90 }
  - { offset: 0x33C1C, size: 0x8, addend: 0x0, symName: __ZNSt3__16vectorINS_4pairINS_12basic_stringIcNS_11char_traitsIcEENS_9allocatorIcEEEES7_EENS5_IS8_EEE21__push_back_slow_pathIS8_EEPS8_OT_, symObjAddr: 0x190A4, symBinAddr: 0x10001CB00, symSize: 0xE8 }
  - { offset: 0x33C78, size: 0x8, addend: 0x0, symName: __ZNSt3__117__compressed_pairIPNS_4pairINS_12basic_stringIcNS_11char_traitsIcEENS_9allocatorIcEEEES7_EENS5_IS8_EEE5firstB8ne180100Ev, symObjAddr: 0x1918C, symBinAddr: 0x10001CBE8, symSize: 0x24 }
  - { offset: 0x33C9E, size: 0x8, addend: 0x0, symName: __ZNSt3__122__compressed_pair_elemIPNS_4pairINS_12basic_stringIcNS_11char_traitsIcEENS_9allocatorIcEEEES7_EELi0ELb0EE5__getB8ne180100Ev, symObjAddr: 0x191B0, symBinAddr: 0x10001CC0C, symSize: 0x14 }
  - { offset: 0x33CE0, size: 0x8, addend: 0x0, symName: __ZNSt3__16vectorINS_4pairINS_12basic_stringIcNS_11char_traitsIcEENS_9allocatorIcEEEES7_EENS5_IS8_EEE21_ConstructTransactionC1B8ne180100ERSA_m, symObjAddr: 0x191C4, symBinAddr: 0x10001CC20, symSize: 0x3C }
  - { offset: 0x33D28, size: 0x8, addend: 0x0, symName: __ZNSt3__116allocator_traitsINS_9allocatorINS_4pairINS_12basic_stringIcNS_11char_traitsIcEENS1_IcEEEES7_EEEEE9constructB8ne180100IS8_JS8_EvEEvRS9_PT_DpOT0_, symObjAddr: 0x19200, symBinAddr: 0x10001CC5C, symSize: 0x34 }
  - { offset: 0x33D7F, size: 0x8, addend: 0x0, symName: __ZNSt3__16vectorINS_4pairINS_12basic_stringIcNS_11char_traitsIcEENS_9allocatorIcEEEES7_EENS5_IS8_EEE21_ConstructTransactionD1B8ne180100Ev, symObjAddr: 0x19234, symBinAddr: 0x10001CC90, symSize: 0x2C }
  - { offset: 0x33DA9, size: 0x8, addend: 0x0, symName: __ZNSt3__16vectorINS_4pairINS_12basic_stringIcNS_11char_traitsIcEENS_9allocatorIcEEEES7_EENS5_IS8_EEE21_ConstructTransactionC2B8ne180100ERSA_m, symObjAddr: 0x19260, symBinAddr: 0x10001CCBC, symSize: 0x4C }
  - { offset: 0x33DF1, size: 0x8, addend: 0x0, symName: __ZNSt3__19allocatorINS_4pairINS_12basic_stringIcNS_11char_traitsIcEENS0_IcEEEES6_EEE9constructB8ne180100IS7_JS7_EEEvPT_DpOT0_, symObjAddr: 0x192AC, symBinAddr: 0x10001CD08, symSize: 0x30 }
  - { offset: 0x33E47, size: 0x8, addend: 0x0, symName: __ZNSt3__14pairINS_12basic_stringIcNS_11char_traitsIcEENS_9allocatorIcEEEES6_EC1B8ne180100EOS7_, symObjAddr: 0x192DC, symBinAddr: 0x10001CD38, symSize: 0x34 }
  - { offset: 0x33E7B, size: 0x8, addend: 0x0, symName: __ZNSt3__14pairINS_12basic_stringIcNS_11char_traitsIcEENS_9allocatorIcEEEES6_EC2B8ne180100EOS7_, symObjAddr: 0x19310, symBinAddr: 0x10001CD6C, symSize: 0x48 }
  - { offset: 0x33EAF, size: 0x8, addend: 0x0, symName: __ZNSt3__16vectorINS_4pairINS_12basic_stringIcNS_11char_traitsIcEENS_9allocatorIcEEEES7_EENS5_IS8_EEE21_ConstructTransactionD2B8ne180100Ev, symObjAddr: 0x19358, symBinAddr: 0x10001CDB4, symSize: 0x20 }
  - { offset: 0x33ED9, size: 0x8, addend: 0x0, symName: __ZNKSt3__16vectorINS_4pairINS_12basic_stringIcNS_11char_traitsIcEENS_9allocatorIcEEEES7_EENS5_IS8_EEE11__recommendB8ne180100Em, symObjAddr: 0x19378, symBinAddr: 0x10001CDD4, symSize: 0xAC }
  - { offset: 0x33F2E, size: 0x8, addend: 0x0, symName: __ZNSt3__114__split_bufferINS_4pairINS_12basic_stringIcNS_11char_traitsIcEENS_9allocatorIcEEEES7_EERNS5_IS8_EEEC1EmmSA_, symObjAddr: 0x19424, symBinAddr: 0x10001CE80, symSize: 0x44 }
  - { offset: 0x33F84, size: 0x8, addend: 0x0, symName: __ZNSt3__114__split_bufferINS_4pairINS_12basic_stringIcNS_11char_traitsIcEENS_9allocatorIcEEEES7_EERNS5_IS8_EEED1Ev, symObjAddr: 0x19578, symBinAddr: 0x10001CFD4, symSize: 0x2C }
  - { offset: 0x33FB0, size: 0x8, addend: 0x0, symName: __ZNKSt3__16vectorINS_4pairINS_12basic_stringIcNS_11char_traitsIcEENS_9allocatorIcEEEES7_EENS5_IS8_EEE8max_sizeEv, symObjAddr: 0x195A4, symBinAddr: 0x10001D000, symSize: 0x60 }
  - { offset: 0x33FD8, size: 0x8, addend: 0x0, symName: __ZNKSt3__16vectorINS_4pairINS_12basic_stringIcNS_11char_traitsIcEENS_9allocatorIcEEEES7_EENS5_IS8_EEE20__throw_length_errorB8ne180100Ev, symObjAddr: 0x19604, symBinAddr: 0x10001D060, symSize: 0x1C }
  - { offset: 0x34009, size: 0x8, addend: 0x0, symName: __ZNSt3__116allocator_traitsINS_9allocatorINS_4pairINS_12basic_stringIcNS_11char_traitsIcEENS1_IcEEEES7_EEEEE8max_sizeB8ne180100IS9_vEEmRKS9_, symObjAddr: 0x19620, symBinAddr: 0x10001D07C, symSize: 0x24 }
  - { offset: 0x34037, size: 0x8, addend: 0x0, symName: __ZNKSt3__16vectorINS_4pairINS_12basic_stringIcNS_11char_traitsIcEENS_9allocatorIcEEEES7_EENS5_IS8_EEE7__allocB8ne180100Ev, symObjAddr: 0x19644, symBinAddr: 0x10001D0A0, symSize: 0x28 }
  - { offset: 0x3405D, size: 0x8, addend: 0x0, symName: __ZNKSt3__19allocatorINS_4pairINS_12basic_stringIcNS_11char_traitsIcEENS0_IcEEEES6_EEE8max_sizeB8ne180100Ev, symObjAddr: 0x1966C, symBinAddr: 0x10001D0C8, symSize: 0x18 }
  - { offset: 0x34083, size: 0x8, addend: 0x0, symName: __ZNKSt3__117__compressed_pairIPNS_4pairINS_12basic_stringIcNS_11char_traitsIcEENS_9allocatorIcEEEES7_EENS5_IS8_EEE6secondB8ne180100Ev, symObjAddr: 0x19684, symBinAddr: 0x10001D0E0, symSize: 0x24 }
  - { offset: 0x340A9, size: 0x8, addend: 0x0, symName: __ZNKSt3__122__compressed_pair_elemINS_9allocatorINS_4pairINS_12basic_stringIcNS_11char_traitsIcEENS1_IcEEEES7_EEEELi1ELb1EE5__getB8ne180100Ev, symObjAddr: 0x196A8, symBinAddr: 0x10001D104, symSize: 0x14 }
  - { offset: 0x340CF, size: 0x8, addend: 0x0, symName: __ZNSt3__114__split_bufferINS_4pairINS_12basic_stringIcNS_11char_traitsIcEENS_9allocatorIcEEEES7_EERNS5_IS8_EEEC2EmmSA_, symObjAddr: 0x196BC, symBinAddr: 0x10001D118, symSize: 0xD8 }
  - { offset: 0x34142, size: 0x8, addend: 0x0, symName: __ZNSt3__117__compressed_pairIPNS_4pairINS_12basic_stringIcNS_11char_traitsIcEENS_9allocatorIcEEEES7_EERNS5_IS8_EEEC1B8ne180100IDnSB_EEOT_OT0_, symObjAddr: 0x19794, symBinAddr: 0x10001D1F0, symSize: 0x3C }
  - { offset: 0x3419A, size: 0x8, addend: 0x0, symName: __ZNSt3__114__split_bufferINS_4pairINS_12basic_stringIcNS_11char_traitsIcEENS_9allocatorIcEEEES7_EERNS5_IS8_EEE7__allocB8ne180100Ev, symObjAddr: 0x19810, symBinAddr: 0x10001D26C, symSize: 0x28 }
  - { offset: 0x341C0, size: 0x8, addend: 0x0, symName: __ZNSt3__114__split_bufferINS_4pairINS_12basic_stringIcNS_11char_traitsIcEENS_9allocatorIcEEEES7_EERNS5_IS8_EEE9__end_capB8ne180100Ev, symObjAddr: 0x19838, symBinAddr: 0x10001D294, symSize: 0x28 }
  - { offset: 0x341E6, size: 0x8, addend: 0x0, symName: __ZNSt3__117__compressed_pairIPNS_4pairINS_12basic_stringIcNS_11char_traitsIcEENS_9allocatorIcEEEES7_EERNS5_IS8_EEEC2B8ne180100IDnSB_EEOT_OT0_, symObjAddr: 0x19860, symBinAddr: 0x10001D2BC, symSize: 0x48 }
  - { offset: 0x3423E, size: 0x8, addend: 0x0, symName: __ZNSt3__122__compressed_pair_elemIRNS_9allocatorINS_4pairINS_12basic_stringIcNS_11char_traitsIcEENS1_IcEEEES7_EEEELi1ELb0EEC2B8ne180100ISA_vEEOT_, symObjAddr: 0x198A8, symBinAddr: 0x10001D304, symSize: 0x20 }
  - { offset: 0x34280, size: 0x8, addend: 0x0, symName: __ZNSt3__19allocatorINS_4pairINS_12basic_stringIcNS_11char_traitsIcEENS0_IcEEEES6_EEE8allocateB8ne180100Em, symObjAddr: 0x198C8, symBinAddr: 0x10001D324, symSize: 0x58 }
  - { offset: 0x342B4, size: 0x8, addend: 0x0, symName: __ZNSt3__117__compressed_pairIPNS_4pairINS_12basic_stringIcNS_11char_traitsIcEENS_9allocatorIcEEEES7_EERNS5_IS8_EEE6secondB8ne180100Ev, symObjAddr: 0x19920, symBinAddr: 0x10001D37C, symSize: 0x28 }
  - { offset: 0x342DA, size: 0x8, addend: 0x0, symName: __ZNSt3__122__compressed_pair_elemIRNS_9allocatorINS_4pairINS_12basic_stringIcNS_11char_traitsIcEENS1_IcEEEES7_EEEELi1ELb0EE5__getB8ne180100Ev, symObjAddr: 0x19948, symBinAddr: 0x10001D3A4, symSize: 0x18 }
  - { offset: 0x34300, size: 0x8, addend: 0x0, symName: __ZNSt3__117__compressed_pairIPNS_4pairINS_12basic_stringIcNS_11char_traitsIcEENS_9allocatorIcEEEES7_EERNS5_IS8_EEE5firstB8ne180100Ev, symObjAddr: 0x19960, symBinAddr: 0x10001D3BC, symSize: 0x24 }
  - { offset: 0x34326, size: 0x8, addend: 0x0, symName: __ZNSt3__116reverse_iteratorIPNS_4pairINS_12basic_stringIcNS_11char_traitsIcEENS_9allocatorIcEEEES7_EEEC1B8ne180100ES9_, symObjAddr: 0x19AB0, symBinAddr: 0x10001D50C, symSize: 0x34 }
  - { offset: 0x3435E, size: 0x8, addend: 0x0, symName: __ZNKSt3__116reverse_iteratorIPNS_4pairINS_12basic_stringIcNS_11char_traitsIcEENS_9allocatorIcEEEES7_EEE4baseB8ne180100Ev, symObjAddr: 0x19AE4, symBinAddr: 0x10001D540, symSize: 0x18 }
  - { offset: 0x34384, size: 0x8, addend: 0x0, symName: __ZNKSt3__16vectorINS_4pairINS_12basic_stringIcNS_11char_traitsIcEENS_9allocatorIcEEEES7_EENS5_IS8_EEE14__annotate_newB8ne180100Em, symObjAddr: 0x19B38, symBinAddr: 0x10001D594, symSize: 0x14 }
  - { offset: 0x343B9, size: 0x8, addend: 0x0, symName: __ZNSt3__129_AllocatorDestroyRangeReverseINS_9allocatorINS_4pairINS_12basic_stringIcNS_11char_traitsIcEENS1_IcEEEES7_EEEENS_16reverse_iteratorIPS8_EEEC1B8ne180100ERS9_RSC_SF_, symObjAddr: 0x19B98, symBinAddr: 0x10001D5F4, symSize: 0x44 }
  - { offset: 0x34410, size: 0x8, addend: 0x0, symName: __ZNKSt3__116reverse_iteratorIPNS_4pairINS_12basic_stringIcNS_11char_traitsIcEENS_9allocatorIcEEEES7_EEEdeB8ne180100Ev, symObjAddr: 0x19C44, symBinAddr: 0x10001D6A0, symSize: 0x28 }
  - { offset: 0x34444, size: 0x8, addend: 0x0, symName: __ZNSt3__116reverse_iteratorIPNS_4pairINS_12basic_stringIcNS_11char_traitsIcEENS_9allocatorIcEEEES7_EEEppB8ne180100Ev, symObjAddr: 0x19C6C, symBinAddr: 0x10001D6C8, symSize: 0x20 }
  - { offset: 0x3446A, size: 0x8, addend: 0x0, symName: __ZNSt3__128__exception_guard_exceptionsINS_29_AllocatorDestroyRangeReverseINS_9allocatorINS_4pairINS_12basic_stringIcNS_11char_traitsIcEENS2_IcEEEES8_EEEENS_16reverse_iteratorIPS9_EEEEE10__completeB8ne180100Ev, symObjAddr: 0x19C8C, symBinAddr: 0x10001D6E8, symSize: 0x1C }
  - { offset: 0x34490, size: 0x8, addend: 0x0, symName: __ZNSt3__128__exception_guard_exceptionsINS_29_AllocatorDestroyRangeReverseINS_9allocatorINS_4pairINS_12basic_stringIcNS_11char_traitsIcEENS2_IcEEEES8_EEEENS_16reverse_iteratorIPS9_EEEEED1B8ne180100Ev, symObjAddr: 0x19CA8, symBinAddr: 0x10001D704, symSize: 0x2C }
  - { offset: 0x344BA, size: 0x8, addend: 0x0, symName: __ZNSt3__128__exception_guard_exceptionsINS_29_AllocatorDestroyRangeReverseINS_9allocatorINS_4pairINS_12basic_stringIcNS_11char_traitsIcEENS2_IcEEEES8_EEEENS_16reverse_iteratorIPS9_EEEEEC1B8ne180100ESE_, symObjAddr: 0x19CD4, symBinAddr: 0x10001D730, symSize: 0x34 }
  - { offset: 0x344F3, size: 0x8, addend: 0x0, symName: __ZNSt3__128__exception_guard_exceptionsINS_29_AllocatorDestroyRangeReverseINS_9allocatorINS_4pairINS_12basic_stringIcNS_11char_traitsIcEENS2_IcEEEES8_EEEENS_16reverse_iteratorIPS9_EEEEEC2B8ne180100ESE_, symObjAddr: 0x19D08, symBinAddr: 0x10001D764, symSize: 0x30 }
  - { offset: 0x3452C, size: 0x8, addend: 0x0, symName: __ZNSt3__129_AllocatorDestroyRangeReverseINS_9allocatorINS_4pairINS_12basic_stringIcNS_11char_traitsIcEENS1_IcEEEES7_EEEENS_16reverse_iteratorIPS8_EEEC2B8ne180100ERS9_RSC_SF_, symObjAddr: 0x19D38, symBinAddr: 0x10001D794, symSize: 0x38 }
  - { offset: 0x34589, size: 0x8, addend: 0x0, symName: __ZNSt3__119__to_address_helperINS_16reverse_iteratorIPNS_4pairINS_12basic_stringIcNS_11char_traitsIcEENS_9allocatorIcEEEES8_EEEEvE6__callB8ne180100ERKSB_, symObjAddr: 0x19D70, symBinAddr: 0x10001D7CC, symSize: 0x38 }
  - { offset: 0x345AC, size: 0x8, addend: 0x0, symName: __ZNKSt3__116reverse_iteratorIPNS_4pairINS_12basic_stringIcNS_11char_traitsIcEENS_9allocatorIcEEEES7_EEEptB8ne180100Ev, symObjAddr: 0x19DA8, symBinAddr: 0x10001D804, symSize: 0x24 }
  - { offset: 0x345D2, size: 0x8, addend: 0x0, symName: __ZNSt3__128__exception_guard_exceptionsINS_29_AllocatorDestroyRangeReverseINS_9allocatorINS_4pairINS_12basic_stringIcNS_11char_traitsIcEENS2_IcEEEES8_EEEENS_16reverse_iteratorIPS9_EEEEED2B8ne180100Ev, symObjAddr: 0x19DCC, symBinAddr: 0x10001D828, symSize: 0x50 }
  - { offset: 0x345FC, size: 0x8, addend: 0x0, symName: __ZNKSt3__129_AllocatorDestroyRangeReverseINS_9allocatorINS_4pairINS_12basic_stringIcNS_11char_traitsIcEENS1_IcEEEES7_EEEENS_16reverse_iteratorIPS8_EEEclB8ne180100Ev, symObjAddr: 0x19E1C, symBinAddr: 0x10001D878, symSize: 0xB0 }
  - { offset: 0x34623, size: 0x8, addend: 0x0, symName: __ZNSt3__116reverse_iteratorINS0_IPNS_4pairINS_12basic_stringIcNS_11char_traitsIcEENS_9allocatorIcEEEES7_EEEEEC1B8ne180100ESA_, symObjAddr: 0x19F3C, symBinAddr: 0x10001D998, symSize: 0x3C }
  - { offset: 0x3465B, size: 0x8, addend: 0x0, symName: __ZNSt3__116reverse_iteratorINS0_IPNS_4pairINS_12basic_stringIcNS_11char_traitsIcEENS_9allocatorIcEEEES7_EEEEEppB8ne180100Ev, symObjAddr: 0x19FF8, symBinAddr: 0x10001DA54, symSize: 0x30 }
  - { offset: 0x34681, size: 0x8, addend: 0x0, symName: __ZNKSt3__116reverse_iteratorINS0_IPNS_4pairINS_12basic_stringIcNS_11char_traitsIcEENS_9allocatorIcEEEES7_EEEEE4baseB8ne180100Ev, symObjAddr: 0x1A028, symBinAddr: 0x10001DA84, symSize: 0x24 }
  - { offset: 0x346AD, size: 0x8, addend: 0x0, symName: __ZNSt3__119__to_address_helperINS_16reverse_iteratorINS1_IPNS_4pairINS_12basic_stringIcNS_11char_traitsIcEENS_9allocatorIcEEEES8_EEEEEEvE6__callB8ne180100ERKSC_, symObjAddr: 0x1A04C, symBinAddr: 0x10001DAA8, symSize: 0x38 }
  - { offset: 0x346D0, size: 0x8, addend: 0x0, symName: __ZNKSt3__116reverse_iteratorINS0_IPNS_4pairINS_12basic_stringIcNS_11char_traitsIcEENS_9allocatorIcEEEES7_EEEEEptB8ne180100Ev, symObjAddr: 0x1A084, symBinAddr: 0x10001DAE0, symSize: 0x24 }
  - { offset: 0x346F6, size: 0x8, addend: 0x0, symName: __ZNKSt3__116reverse_iteratorINS0_IPNS_4pairINS_12basic_stringIcNS_11char_traitsIcEENS_9allocatorIcEEEES7_EEEEEdeB8ne180100Ev, symObjAddr: 0x1A0A8, symBinAddr: 0x10001DB04, symSize: 0x34 }
  - { offset: 0x3472A, size: 0x8, addend: 0x0, symName: __ZNSt3__116reverse_iteratorIPNS_4pairINS_12basic_stringIcNS_11char_traitsIcEENS_9allocatorIcEEEES7_EEEmmB8ne180100Ev, symObjAddr: 0x1A0DC, symBinAddr: 0x10001DB38, symSize: 0x20 }
  - { offset: 0x34750, size: 0x8, addend: 0x0, symName: __ZNSt3__116reverse_iteratorINS0_IPNS_4pairINS_12basic_stringIcNS_11char_traitsIcEENS_9allocatorIcEEEES7_EEEEEC2B8ne180100ESA_, symObjAddr: 0x1A0FC, symBinAddr: 0x10001DB58, symSize: 0x2C }
  - { offset: 0x34788, size: 0x8, addend: 0x0, symName: __ZNSt3__116reverse_iteratorIPNS_4pairINS_12basic_stringIcNS_11char_traitsIcEENS_9allocatorIcEEEES7_EEEC2B8ne180100ES9_, symObjAddr: 0x1A128, symBinAddr: 0x10001DB84, symSize: 0x28 }
  - { offset: 0x347C0, size: 0x8, addend: 0x0, symName: __ZNSt3__114__split_bufferINS_4pairINS_12basic_stringIcNS_11char_traitsIcEENS_9allocatorIcEEEES7_EERNS5_IS8_EEED2Ev, symObjAddr: 0x1A150, symBinAddr: 0x10001DBAC, symSize: 0x84 }
  - { offset: 0x347EC, size: 0x8, addend: 0x0, symName: __ZNSt3__114__split_bufferINS_4pairINS_12basic_stringIcNS_11char_traitsIcEENS_9allocatorIcEEEES7_EERNS5_IS8_EEE5clearB8ne180100Ev, symObjAddr: 0x1A1D4, symBinAddr: 0x10001DC30, symSize: 0x28 }
  - { offset: 0x34812, size: 0x8, addend: 0x0, symName: __ZNKSt3__114__split_bufferINS_4pairINS_12basic_stringIcNS_11char_traitsIcEENS_9allocatorIcEEEES7_EERNS5_IS8_EEE8capacityB8ne180100Ev, symObjAddr: 0x1A1FC, symBinAddr: 0x10001DC58, symSize: 0x40 }
  - { offset: 0x34838, size: 0x8, addend: 0x0, symName: __ZNSt3__114__split_bufferINS_4pairINS_12basic_stringIcNS_11char_traitsIcEENS_9allocatorIcEEEES7_EERNS5_IS8_EEE17__destruct_at_endB8ne180100EPS8_, symObjAddr: 0x1A23C, symBinAddr: 0x10001DC98, symSize: 0x2C }
  - { offset: 0x3486C, size: 0x8, addend: 0x0, symName: __ZNSt3__114__split_bufferINS_4pairINS_12basic_stringIcNS_11char_traitsIcEENS_9allocatorIcEEEES7_EERNS5_IS8_EEE17__destruct_at_endB8ne180100EPS8_NS_17integral_constantIbLb0EEE, symObjAddr: 0x1A268, symBinAddr: 0x10001DCC4, symSize: 0x7C }
  - { offset: 0x348AC, size: 0x8, addend: 0x0, symName: __ZNKSt3__114__split_bufferINS_4pairINS_12basic_stringIcNS_11char_traitsIcEENS_9allocatorIcEEEES7_EERNS5_IS8_EEE9__end_capB8ne180100Ev, symObjAddr: 0x1A2E4, symBinAddr: 0x10001DD40, symSize: 0x28 }
  - { offset: 0x348D2, size: 0x8, addend: 0x0, symName: __ZNKSt3__117__compressed_pairIPNS_4pairINS_12basic_stringIcNS_11char_traitsIcEENS_9allocatorIcEEEES7_EERNS5_IS8_EEE5firstB8ne180100Ev, symObjAddr: 0x1A30C, symBinAddr: 0x10001DD68, symSize: 0x24 }
  - { offset: 0x348F8, size: 0x8, addend: 0x0, symName: __ZNSt3__14pairINS_12basic_stringIcNS_11char_traitsIcEENS_9allocatorIcEEEES6_EC1B8ne180100IS6_S6_TnNS_9enable_ifIXclsr10_CheckArgsE17__enable_implicitIT_T0_EEEiE4typeELi0EEEOSA_OSB_, symObjAddr: 0x1A330, symBinAddr: 0x10001DD8C, symSize: 0x3C }
  - { offset: 0x34956, size: 0x8, addend: 0x0, symName: __ZNSt3__14pairINS_12basic_stringIcNS_11char_traitsIcEENS_9allocatorIcEEEES6_EC2B8ne180100IS6_S6_TnNS_9enable_ifIXclsr10_CheckArgsE17__enable_implicitIT_T0_EEEiE4typeELi0EEEOSA_OSB_, symObjAddr: 0x1A36C, symBinAddr: 0x10001DDC8, symSize: 0x48 }
  - { offset: 0x349B4, size: 0x8, addend: 0x0, symName: __ZNSt3__112basic_stringIcNS_11char_traitsIcEENS_9allocatorIcEEEC2B8ne180100EOS5_, symObjAddr: 0x1A3B4, symBinAddr: 0x10001DE10, symSize: 0xB8 }
  - { offset: 0x34A1F, size: 0x8, addend: 0x0, symName: __ZZNSt3__112basic_stringIcNS_11char_traitsIcEENS_9allocatorIcEEEC1B8ne180100EOS5_ENKUlRS5_E_clES7_, symObjAddr: 0x1A46C, symBinAddr: 0x10001DEC8, symSize: 0x40 }
  - { offset: 0x34A58, size: 0x8, addend: 0x0, symName: __ZNSt3__16vectorINS_4pairIccEENS_9allocatorIS2_EEE9push_backB8ne180100EOS2_, symObjAddr: 0x1A4AC, symBinAddr: 0x10001DF08, symSize: 0x8C }
  - { offset: 0x34A9E, size: 0x8, addend: 0x0, symName: __ZNSt3__16vectorINS_4pairIccEENS_9allocatorIS2_EEE9__end_capB8ne180100Ev, symObjAddr: 0x1A5A0, symBinAddr: 0x10001DFFC, symSize: 0x28 }
  - { offset: 0x34AC4, size: 0x8, addend: 0x0, symName: __ZNSt3__16vectorINS_4pairIccEENS_9allocatorIS2_EEE22__construct_one_at_endB8ne180100IJS2_EEEvDpOT_, symObjAddr: 0x1A5C8, symBinAddr: 0x10001E024, symSize: 0x90 }
  - { offset: 0x34B13, size: 0x8, addend: 0x0, symName: __ZNSt3__16vectorINS_4pairIccEENS_9allocatorIS2_EEE21__push_back_slow_pathIS2_EEPS2_OT_, symObjAddr: 0x1A658, symBinAddr: 0x10001E0B4, symSize: 0xE8 }
  - { offset: 0x34B6F, size: 0x8, addend: 0x0, symName: __ZNSt3__117__compressed_pairIPNS_4pairIccEENS_9allocatorIS2_EEE5firstB8ne180100Ev, symObjAddr: 0x1A740, symBinAddr: 0x10001E19C, symSize: 0x24 }
  - { offset: 0x34B95, size: 0x8, addend: 0x0, symName: __ZNSt3__122__compressed_pair_elemIPNS_4pairIccEELi0ELb0EE5__getB8ne180100Ev, symObjAddr: 0x1A764, symBinAddr: 0x10001E1C0, symSize: 0x14 }
  - { offset: 0x34BD7, size: 0x8, addend: 0x0, symName: __ZNSt3__16vectorINS_4pairIccEENS_9allocatorIS2_EEE21_ConstructTransactionC1B8ne180100ERS5_m, symObjAddr: 0x1A778, symBinAddr: 0x10001E1D4, symSize: 0x3C }
  - { offset: 0x34C1F, size: 0x8, addend: 0x0, symName: __ZNSt3__116allocator_traitsINS_9allocatorINS_4pairIccEEEEE9constructB8ne180100IS3_JS3_EvEEvRS4_PT_DpOT0_, symObjAddr: 0x1A7B4, symBinAddr: 0x10001E210, symSize: 0x34 }
  - { offset: 0x34C76, size: 0x8, addend: 0x0, symName: __ZNSt3__16vectorINS_4pairIccEENS_9allocatorIS2_EEE21_ConstructTransactionD1B8ne180100Ev, symObjAddr: 0x1A7E8, symBinAddr: 0x10001E244, symSize: 0x2C }
  - { offset: 0x34CA0, size: 0x8, addend: 0x0, symName: __ZNSt3__16vectorINS_4pairIccEENS_9allocatorIS2_EEE21_ConstructTransactionC2B8ne180100ERS5_m, symObjAddr: 0x1A814, symBinAddr: 0x10001E270, symSize: 0x44 }
  - { offset: 0x34CE8, size: 0x8, addend: 0x0, symName: __ZNSt3__19allocatorINS_4pairIccEEE9constructB8ne180100IS2_JS2_EEEvPT_DpOT0_, symObjAddr: 0x1A858, symBinAddr: 0x10001E2B4, symSize: 0x28 }
  - { offset: 0x34D3E, size: 0x8, addend: 0x0, symName: __ZNSt3__16vectorINS_4pairIccEENS_9allocatorIS2_EEE21_ConstructTransactionD2B8ne180100Ev, symObjAddr: 0x1A880, symBinAddr: 0x10001E2DC, symSize: 0x20 }
  - { offset: 0x34D68, size: 0x8, addend: 0x0, symName: __ZNKSt3__16vectorINS_4pairIccEENS_9allocatorIS2_EEE11__recommendB8ne180100Em, symObjAddr: 0x1A8A0, symBinAddr: 0x10001E2FC, symSize: 0xAC }
  - { offset: 0x34DBD, size: 0x8, addend: 0x0, symName: __ZNSt3__114__split_bufferINS_4pairIccEERNS_9allocatorIS2_EEEC1EmmS5_, symObjAddr: 0x1A94C, symBinAddr: 0x10001E3A8, symSize: 0x44 }
  - { offset: 0x34E13, size: 0x8, addend: 0x0, symName: __ZNSt3__114__split_bufferINS_4pairIccEERNS_9allocatorIS2_EEED1Ev, symObjAddr: 0x1AAA0, symBinAddr: 0x10001E4FC, symSize: 0x2C }
  - { offset: 0x34E3F, size: 0x8, addend: 0x0, symName: __ZNKSt3__16vectorINS_4pairIccEENS_9allocatorIS2_EEE8max_sizeEv, symObjAddr: 0x1AACC, symBinAddr: 0x10001E528, symSize: 0x60 }
  - { offset: 0x34E67, size: 0x8, addend: 0x0, symName: __ZNKSt3__16vectorINS_4pairIccEENS_9allocatorIS2_EEE20__throw_length_errorB8ne180100Ev, symObjAddr: 0x1AB2C, symBinAddr: 0x10001E588, symSize: 0x1C }
  - { offset: 0x34E98, size: 0x8, addend: 0x0, symName: __ZNSt3__116allocator_traitsINS_9allocatorINS_4pairIccEEEEE8max_sizeB8ne180100IS4_vEEmRKS4_, symObjAddr: 0x1AB48, symBinAddr: 0x10001E5A4, symSize: 0x24 }
  - { offset: 0x34EC6, size: 0x8, addend: 0x0, symName: __ZNKSt3__16vectorINS_4pairIccEENS_9allocatorIS2_EEE7__allocB8ne180100Ev, symObjAddr: 0x1AB6C, symBinAddr: 0x10001E5C8, symSize: 0x28 }
  - { offset: 0x34EEC, size: 0x8, addend: 0x0, symName: __ZNKSt3__19allocatorINS_4pairIccEEE8max_sizeB8ne180100Ev, symObjAddr: 0x1AB94, symBinAddr: 0x10001E5F0, symSize: 0x14 }
  - { offset: 0x34F12, size: 0x8, addend: 0x0, symName: __ZNKSt3__117__compressed_pairIPNS_4pairIccEENS_9allocatorIS2_EEE6secondB8ne180100Ev, symObjAddr: 0x1ABA8, symBinAddr: 0x10001E604, symSize: 0x24 }
  - { offset: 0x34F38, size: 0x8, addend: 0x0, symName: __ZNKSt3__122__compressed_pair_elemINS_9allocatorINS_4pairIccEEEELi1ELb1EE5__getB8ne180100Ev, symObjAddr: 0x1ABCC, symBinAddr: 0x10001E628, symSize: 0x14 }
  - { offset: 0x34F5E, size: 0x8, addend: 0x0, symName: __ZNSt3__114__split_bufferINS_4pairIccEERNS_9allocatorIS2_EEEC2EmmS5_, symObjAddr: 0x1ABE0, symBinAddr: 0x10001E63C, symSize: 0xCC }
  - { offset: 0x34FD1, size: 0x8, addend: 0x0, symName: __ZNSt3__117__compressed_pairIPNS_4pairIccEERNS_9allocatorIS2_EEEC1B8ne180100IDnS6_EEOT_OT0_, symObjAddr: 0x1ACAC, symBinAddr: 0x10001E708, symSize: 0x3C }
  - { offset: 0x35029, size: 0x8, addend: 0x0, symName: __ZNSt3__114__split_bufferINS_4pairIccEERNS_9allocatorIS2_EEE7__allocB8ne180100Ev, symObjAddr: 0x1AD28, symBinAddr: 0x10001E784, symSize: 0x28 }
  - { offset: 0x3504F, size: 0x8, addend: 0x0, symName: __ZNSt3__114__split_bufferINS_4pairIccEERNS_9allocatorIS2_EEE9__end_capB8ne180100Ev, symObjAddr: 0x1AD50, symBinAddr: 0x10001E7AC, symSize: 0x28 }
  - { offset: 0x35075, size: 0x8, addend: 0x0, symName: __ZNSt3__117__compressed_pairIPNS_4pairIccEERNS_9allocatorIS2_EEEC2B8ne180100IDnS6_EEOT_OT0_, symObjAddr: 0x1AD78, symBinAddr: 0x10001E7D4, symSize: 0x48 }
  - { offset: 0x350CD, size: 0x8, addend: 0x0, symName: __ZNSt3__122__compressed_pair_elemIRNS_9allocatorINS_4pairIccEEEELi1ELb0EEC2B8ne180100IS5_vEEOT_, symObjAddr: 0x1ADC0, symBinAddr: 0x10001E81C, symSize: 0x20 }
  - { offset: 0x3510F, size: 0x8, addend: 0x0, symName: __ZNSt3__19allocatorINS_4pairIccEEE8allocateB8ne180100Em, symObjAddr: 0x1ADE0, symBinAddr: 0x10001E83C, symSize: 0x54 }
  - { offset: 0x35143, size: 0x8, addend: 0x0, symName: __ZNSt3__117__compressed_pairIPNS_4pairIccEERNS_9allocatorIS2_EEE6secondB8ne180100Ev, symObjAddr: 0x1AE34, symBinAddr: 0x10001E890, symSize: 0x28 }
  - { offset: 0x35169, size: 0x8, addend: 0x0, symName: __ZNSt3__122__compressed_pair_elemIRNS_9allocatorINS_4pairIccEEEELi1ELb0EE5__getB8ne180100Ev, symObjAddr: 0x1AE5C, symBinAddr: 0x10001E8B8, symSize: 0x18 }
  - { offset: 0x3518F, size: 0x8, addend: 0x0, symName: __ZNSt3__117__compressed_pairIPNS_4pairIccEERNS_9allocatorIS2_EEE5firstB8ne180100Ev, symObjAddr: 0x1AE74, symBinAddr: 0x10001E8D0, symSize: 0x24 }
  - { offset: 0x351B5, size: 0x8, addend: 0x0, symName: __ZNSt3__116reverse_iteratorIPNS_4pairIccEEEC1B8ne180100ES3_, symObjAddr: 0x1AFC4, symBinAddr: 0x10001EA20, symSize: 0x34 }
  - { offset: 0x351ED, size: 0x8, addend: 0x0, symName: __ZNKSt3__116reverse_iteratorIPNS_4pairIccEEE4baseB8ne180100Ev, symObjAddr: 0x1AFF8, symBinAddr: 0x10001EA54, symSize: 0x18 }
  - { offset: 0x35213, size: 0x8, addend: 0x0, symName: __ZNKSt3__16vectorINS_4pairIccEENS_9allocatorIS2_EEE14__annotate_newB8ne180100Em, symObjAddr: 0x1B04C, symBinAddr: 0x10001EAA8, symSize: 0x14 }
  - { offset: 0x35248, size: 0x8, addend: 0x0, symName: __ZNSt3__129_AllocatorDestroyRangeReverseINS_9allocatorINS_4pairIccEEEENS_16reverse_iteratorIPS3_EEEC1B8ne180100ERS4_RS7_SA_, symObjAddr: 0x1B0AC, symBinAddr: 0x10001EB08, symSize: 0x44 }
  - { offset: 0x3529F, size: 0x8, addend: 0x0, symName: __ZNKSt3__116reverse_iteratorIPNS_4pairIccEEEdeB8ne180100Ev, symObjAddr: 0x1B158, symBinAddr: 0x10001EBB4, symSize: 0x28 }
  - { offset: 0x352D3, size: 0x8, addend: 0x0, symName: __ZNSt3__116reverse_iteratorIPNS_4pairIccEEEppB8ne180100Ev, symObjAddr: 0x1B180, symBinAddr: 0x10001EBDC, symSize: 0x20 }
  - { offset: 0x352F9, size: 0x8, addend: 0x0, symName: __ZNSt3__128__exception_guard_exceptionsINS_29_AllocatorDestroyRangeReverseINS_9allocatorINS_4pairIccEEEENS_16reverse_iteratorIPS4_EEEEE10__completeB8ne180100Ev, symObjAddr: 0x1B1A0, symBinAddr: 0x10001EBFC, symSize: 0x1C }
  - { offset: 0x3531F, size: 0x8, addend: 0x0, symName: __ZNSt3__128__exception_guard_exceptionsINS_29_AllocatorDestroyRangeReverseINS_9allocatorINS_4pairIccEEEENS_16reverse_iteratorIPS4_EEEEED1B8ne180100Ev, symObjAddr: 0x1B1BC, symBinAddr: 0x10001EC18, symSize: 0x2C }
  - { offset: 0x35349, size: 0x8, addend: 0x0, symName: __ZNSt3__128__exception_guard_exceptionsINS_29_AllocatorDestroyRangeReverseINS_9allocatorINS_4pairIccEEEENS_16reverse_iteratorIPS4_EEEEEC1B8ne180100ES9_, symObjAddr: 0x1B1E8, symBinAddr: 0x10001EC44, symSize: 0x34 }
  - { offset: 0x35382, size: 0x8, addend: 0x0, symName: __ZNSt3__128__exception_guard_exceptionsINS_29_AllocatorDestroyRangeReverseINS_9allocatorINS_4pairIccEEEENS_16reverse_iteratorIPS4_EEEEEC2B8ne180100ES9_, symObjAddr: 0x1B21C, symBinAddr: 0x10001EC78, symSize: 0x30 }
  - { offset: 0x353BB, size: 0x8, addend: 0x0, symName: __ZNSt3__129_AllocatorDestroyRangeReverseINS_9allocatorINS_4pairIccEEEENS_16reverse_iteratorIPS3_EEEC2B8ne180100ERS4_RS7_SA_, symObjAddr: 0x1B24C, symBinAddr: 0x10001ECA8, symSize: 0x38 }
  - { offset: 0x35418, size: 0x8, addend: 0x0, symName: __ZNSt3__119__to_address_helperINS_16reverse_iteratorIPNS_4pairIccEEEEvE6__callB8ne180100ERKS5_, symObjAddr: 0x1B284, symBinAddr: 0x10001ECE0, symSize: 0x38 }
  - { offset: 0x3543B, size: 0x8, addend: 0x0, symName: __ZNKSt3__116reverse_iteratorIPNS_4pairIccEEEptB8ne180100Ev, symObjAddr: 0x1B2BC, symBinAddr: 0x10001ED18, symSize: 0x24 }
  - { offset: 0x35461, size: 0x8, addend: 0x0, symName: __ZNSt3__128__exception_guard_exceptionsINS_29_AllocatorDestroyRangeReverseINS_9allocatorINS_4pairIccEEEENS_16reverse_iteratorIPS4_EEEEED2B8ne180100Ev, symObjAddr: 0x1B2E0, symBinAddr: 0x10001ED3C, symSize: 0x50 }
  - { offset: 0x3548B, size: 0x8, addend: 0x0, symName: __ZNKSt3__129_AllocatorDestroyRangeReverseINS_9allocatorINS_4pairIccEEEENS_16reverse_iteratorIPS3_EEEclB8ne180100Ev, symObjAddr: 0x1B330, symBinAddr: 0x10001ED8C, symSize: 0xB0 }
  - { offset: 0x354B2, size: 0x8, addend: 0x0, symName: __ZNSt3__116reverse_iteratorINS0_IPNS_4pairIccEEEEEC1B8ne180100ES4_, symObjAddr: 0x1B450, symBinAddr: 0x10001EEAC, symSize: 0x3C }
  - { offset: 0x354EA, size: 0x8, addend: 0x0, symName: __ZNSt3__116reverse_iteratorINS0_IPNS_4pairIccEEEEEppB8ne180100Ev, symObjAddr: 0x1B50C, symBinAddr: 0x10001EF68, symSize: 0x30 }
  - { offset: 0x35510, size: 0x8, addend: 0x0, symName: __ZNKSt3__116reverse_iteratorINS0_IPNS_4pairIccEEEEE4baseB8ne180100Ev, symObjAddr: 0x1B53C, symBinAddr: 0x10001EF98, symSize: 0x24 }
  - { offset: 0x3553C, size: 0x8, addend: 0x0, symName: __ZNSt3__119__to_address_helperINS_16reverse_iteratorINS1_IPNS_4pairIccEEEEEEvE6__callB8ne180100ERKS6_, symObjAddr: 0x1B560, symBinAddr: 0x10001EFBC, symSize: 0x38 }
  - { offset: 0x3555F, size: 0x8, addend: 0x0, symName: __ZNKSt3__116reverse_iteratorINS0_IPNS_4pairIccEEEEEptB8ne180100Ev, symObjAddr: 0x1B598, symBinAddr: 0x10001EFF4, symSize: 0x24 }
  - { offset: 0x35585, size: 0x8, addend: 0x0, symName: __ZNKSt3__116reverse_iteratorINS0_IPNS_4pairIccEEEEEdeB8ne180100Ev, symObjAddr: 0x1B5BC, symBinAddr: 0x10001F018, symSize: 0x34 }
  - { offset: 0x355B9, size: 0x8, addend: 0x0, symName: __ZNSt3__116reverse_iteratorIPNS_4pairIccEEEmmB8ne180100Ev, symObjAddr: 0x1B5F0, symBinAddr: 0x10001F04C, symSize: 0x20 }
  - { offset: 0x355DF, size: 0x8, addend: 0x0, symName: __ZNSt3__116reverse_iteratorINS0_IPNS_4pairIccEEEEEC2B8ne180100ES4_, symObjAddr: 0x1B610, symBinAddr: 0x10001F06C, symSize: 0x2C }
  - { offset: 0x35617, size: 0x8, addend: 0x0, symName: __ZNSt3__116reverse_iteratorIPNS_4pairIccEEEC2B8ne180100ES3_, symObjAddr: 0x1B63C, symBinAddr: 0x10001F098, symSize: 0x28 }
  - { offset: 0x3564F, size: 0x8, addend: 0x0, symName: __ZNSt3__114__split_bufferINS_4pairIccEERNS_9allocatorIS2_EEED2Ev, symObjAddr: 0x1B664, symBinAddr: 0x10001F0C0, symSize: 0x84 }
  - { offset: 0x3567B, size: 0x8, addend: 0x0, symName: __ZNSt3__114__split_bufferINS_4pairIccEERNS_9allocatorIS2_EEE5clearB8ne180100Ev, symObjAddr: 0x1B6E8, symBinAddr: 0x10001F144, symSize: 0x28 }
  - { offset: 0x356A1, size: 0x8, addend: 0x0, symName: __ZNKSt3__114__split_bufferINS_4pairIccEERNS_9allocatorIS2_EEE8capacityB8ne180100Ev, symObjAddr: 0x1B710, symBinAddr: 0x10001F16C, symSize: 0x40 }
  - { offset: 0x356C7, size: 0x8, addend: 0x0, symName: __ZNSt3__114__split_bufferINS_4pairIccEERNS_9allocatorIS2_EEE17__destruct_at_endB8ne180100EPS2_, symObjAddr: 0x1B750, symBinAddr: 0x10001F1AC, symSize: 0x2C }
  - { offset: 0x356FB, size: 0x8, addend: 0x0, symName: __ZNSt3__114__split_bufferINS_4pairIccEERNS_9allocatorIS2_EEE17__destruct_at_endB8ne180100EPS2_NS_17integral_constantIbLb0EEE, symObjAddr: 0x1B77C, symBinAddr: 0x10001F1D8, symSize: 0x7C }
  - { offset: 0x3573B, size: 0x8, addend: 0x0, symName: __ZNKSt3__114__split_bufferINS_4pairIccEERNS_9allocatorIS2_EEE9__end_capB8ne180100Ev, symObjAddr: 0x1B7F8, symBinAddr: 0x10001F254, symSize: 0x28 }
  - { offset: 0x35761, size: 0x8, addend: 0x0, symName: __ZNKSt3__117__compressed_pairIPNS_4pairIccEERNS_9allocatorIS2_EEE5firstB8ne180100Ev, symObjAddr: 0x1B820, symBinAddr: 0x10001F27C, symSize: 0x24 }
  - { offset: 0x35787, size: 0x8, addend: 0x0, symName: __ZNSt3__14pairIccEC1B8ne180100IccTnNS_9enable_ifIXclsr10_CheckArgsE17__enable_implicitIT_T0_EEEiE4typeELi0EEEOS4_OS5_, symObjAddr: 0x1B844, symBinAddr: 0x10001F2A0, symSize: 0x3C }
  - { offset: 0x357E5, size: 0x8, addend: 0x0, symName: __ZNSt3__14pairIccEC2B8ne180100IccTnNS_9enable_ifIXclsr10_CheckArgsE17__enable_implicitIT_T0_EEEiE4typeELi0EEEOS4_OS5_, symObjAddr: 0x1B880, symBinAddr: 0x10001F2DC, symSize: 0x34 }
  - { offset: 0x35843, size: 0x8, addend: 0x0, symName: __ZNSt3__14pairIccEC1B8ne180100IRcS3_TnNS_9enable_ifIXclsr10_CheckArgsE17__enable_implicitIT_T0_EEEiE4typeELi0EEEOS5_OS6_, symObjAddr: 0x1B8B4, symBinAddr: 0x10001F310, symSize: 0x3C }
  - { offset: 0x358A1, size: 0x8, addend: 0x0, symName: __ZNSt3__14pairIccEC2B8ne180100IRcS3_TnNS_9enable_ifIXclsr10_CheckArgsE17__enable_implicitIT_T0_EEEiE4typeELi0EEEOS5_OS6_, symObjAddr: 0x1B8F0, symBinAddr: 0x10001F34C, symSize: 0x34 }
  - { offset: 0x35916, size: 0x8, addend: 0x0, symName: __ZNSt3__128__begin_marked_subexpressionIcEC1B8ne180100EjPNS_6__nodeIcEE, symObjAddr: 0x1B924, symBinAddr: 0x10001F380, symSize: 0x3C }
  - { offset: 0x3595E, size: 0x8, addend: 0x0, symName: __ZNSt3__128__begin_marked_subexpressionIcEC2B8ne180100EjPNS_6__nodeIcEE, symObjAddr: 0x1B960, symBinAddr: 0x10001F3BC, symSize: 0x50 }
  - { offset: 0x359A6, size: 0x8, addend: 0x0, symName: __ZNSt3__128__begin_marked_subexpressionIcED1Ev, symObjAddr: 0x1B9B0, symBinAddr: 0x10001F40C, symSize: 0x2C }
  - { offset: 0x359D3, size: 0x8, addend: 0x0, symName: __ZNSt3__128__begin_marked_subexpressionIcED0Ev, symObjAddr: 0x1B9DC, symBinAddr: 0x10001F438, symSize: 0x30 }
  - { offset: 0x35A00, size: 0x8, addend: 0x0, symName: __ZNKSt3__128__begin_marked_subexpressionIcE6__execERNS_7__stateIcEE, symObjAddr: 0x1BA0C, symBinAddr: 0x10001F468, symSize: 0x78 }
  - { offset: 0x35A35, size: 0x8, addend: 0x0, symName: __ZNSt3__128__begin_marked_subexpressionIcED2Ev, symObjAddr: 0x1BA84, symBinAddr: 0x10001F4E0, symSize: 0x2C }
  - { offset: 0x35A79, size: 0x8, addend: 0x0, symName: __ZNSt3__126__end_marked_subexpressionIcEC1B8ne180100EjPNS_6__nodeIcEE, symObjAddr: 0x1BAB0, symBinAddr: 0x10001F50C, symSize: 0x3C }
  - { offset: 0x35AC1, size: 0x8, addend: 0x0, symName: __ZNSt3__126__end_marked_subexpressionIcEC2B8ne180100EjPNS_6__nodeIcEE, symObjAddr: 0x1BAEC, symBinAddr: 0x10001F548, symSize: 0x50 }
  - { offset: 0x35B09, size: 0x8, addend: 0x0, symName: __ZNSt3__126__end_marked_subexpressionIcED1Ev, symObjAddr: 0x1BB3C, symBinAddr: 0x10001F598, symSize: 0x2C }
  - { offset: 0x35B36, size: 0x8, addend: 0x0, symName: __ZNSt3__126__end_marked_subexpressionIcED0Ev, symObjAddr: 0x1BB68, symBinAddr: 0x10001F5C4, symSize: 0x30 }
  - { offset: 0x35B63, size: 0x8, addend: 0x0, symName: __ZNKSt3__126__end_marked_subexpressionIcE6__execERNS_7__stateIcEE, symObjAddr: 0x1BB98, symBinAddr: 0x10001F5F4, symSize: 0xA0 }
  - { offset: 0x35B98, size: 0x8, addend: 0x0, symName: __ZNSt3__126__end_marked_subexpressionIcED2Ev, symObjAddr: 0x1BC38, symBinAddr: 0x10001F694, symSize: 0x2C }
  - { offset: 0x35BC5, size: 0x8, addend: 0x0, symName: __ZNSt3__111basic_regexIcNS_12regex_traitsIcEEE27__push_nongreedy_inf_repeatB8ne180100EmPNS_16__owns_one_stateIcEEjj, symObjAddr: 0x1BC64, symBinAddr: 0x10001F6C0, symSize: 0x6C }
  - { offset: 0x35C27, size: 0x8, addend: 0x0, symName: __ZNSt3__111basic_regexIcNS_12regex_traitsIcEEE24__push_greedy_inf_repeatB8ne180100EmPNS_16__owns_one_stateIcEEjj, symObjAddr: 0x1BCD0, symBinAddr: 0x10001F72C, symSize: 0x6C }
  - { offset: 0x35C89, size: 0x8, addend: 0x0, symName: __ZNSt3__111basic_regexIcNS_12regex_traitsIcEEE11__push_loopEmmPNS_16__owns_one_stateIcEEmmb, symObjAddr: 0x1BD3C, symBinAddr: 0x10001F798, symSize: 0x250 }
  - { offset: 0x35D30, size: 0x8, addend: 0x0, symName: __ZNSt3__111basic_regexIcNS_12regex_traitsIcEEE17__parse_DUP_COUNTIPKcEET_S7_S7_Ri, symObjAddr: 0x1BF8C, symBinAddr: 0x10001F9E8, symSize: 0x14C }
  - { offset: 0x35DA9, size: 0x8, addend: 0x0, symName: __ZNKSt3__110unique_ptrINS_13__empty_stateIcEENS_14default_deleteIS2_EEE3getB8ne180100Ev, symObjAddr: 0x1C198, symBinAddr: 0x10001FBF4, symSize: 0x28 }
  - { offset: 0x35E03, size: 0x8, addend: 0x0, symName: __ZNSt3__16__loopIcEC1B8ne180100EjPNS_6__nodeIcEEPNS_16__owns_one_stateIcEEjjbmm, symObjAddr: 0x1C1C0, symBinAddr: 0x10001FC1C, symSize: 0x7C }
  - { offset: 0x35F58, size: 0x8, addend: 0x0, symName: __ZNSt3__110unique_ptrINS_6__loopIcEENS_14default_deleteIS2_EEEC1B8ne180100ILb1EvEEPS2_, symObjAddr: 0x1C23C, symBinAddr: 0x10001FC98, symSize: 0x34 }
  - { offset: 0x35F9B, size: 0x8, addend: 0x0, symName: __ZNKSt3__110unique_ptrINS_6__loopIcEENS_14default_deleteIS2_EEE3getB8ne180100Ev, symObjAddr: 0x1C270, symBinAddr: 0x10001FCCC, symSize: 0x28 }
  - { offset: 0x35FD8, size: 0x8, addend: 0x0, symName: __ZNSt3__117__repeat_one_loopIcEC1B8ne180100EPNS_6__nodeIcEE, symObjAddr: 0x1C298, symBinAddr: 0x10001FCF4, symSize: 0x34 }
  - { offset: 0x36011, size: 0x8, addend: 0x0, symName: __ZNKSt3__110unique_ptrINS_6__loopIcEENS_14default_deleteIS2_EEEptB8ne180100Ev, symObjAddr: 0x1C2CC, symBinAddr: 0x10001FD28, symSize: 0x28 }
  - { offset: 0x36037, size: 0x8, addend: 0x0, symName: __ZNSt3__117__owns_two_statesIcE6secondB8ne180100Ev, symObjAddr: 0x1C2F4, symBinAddr: 0x10001FD50, symSize: 0x18 }
  - { offset: 0x3605D, size: 0x8, addend: 0x0, symName: __ZNSt3__110unique_ptrINS_6__loopIcEENS_14default_deleteIS2_EEE7releaseB8ne180100Ev, symObjAddr: 0x1C30C, symBinAddr: 0x10001FD68, symSize: 0x44 }
  - { offset: 0x36092, size: 0x8, addend: 0x0, symName: __ZNSt3__110unique_ptrINS_6__loopIcEENS_14default_deleteIS2_EEED1B8ne180100Ev, symObjAddr: 0x1C350, symBinAddr: 0x10001FDAC, symSize: 0x2C }
  - { offset: 0x360BC, size: 0x8, addend: 0x0, symName: __ZNKSt3__117__compressed_pairIPNS_13__empty_stateIcEENS_14default_deleteIS2_EEE5firstB8ne180100Ev, symObjAddr: 0x1C37C, symBinAddr: 0x10001FDD8, symSize: 0x24 }
  - { offset: 0x360E2, size: 0x8, addend: 0x0, symName: __ZNKSt3__122__compressed_pair_elemIPNS_13__empty_stateIcEELi0ELb0EE5__getB8ne180100Ev, symObjAddr: 0x1C3A0, symBinAddr: 0x10001FDFC, symSize: 0x14 }
  - { offset: 0x36108, size: 0x8, addend: 0x0, symName: __ZNSt3__16__loopIcEC2B8ne180100EjPNS_6__nodeIcEEPNS_16__owns_one_stateIcEEjjbmm, symObjAddr: 0x1C3B4, symBinAddr: 0x10001FE10, symSize: 0x9C }
  - { offset: 0x361AA, size: 0x8, addend: 0x0, symName: __ZNSt3__117__owns_two_statesIcEC2B8ne180100EPNS_6__nodeIcEEPNS_16__owns_one_stateIcEE, symObjAddr: 0x1C450, symBinAddr: 0x10001FEAC, symSize: 0x50 }
  - { offset: 0x361F2, size: 0x8, addend: 0x0, symName: __ZNSt3__16__loopIcED1Ev, symObjAddr: 0x1C4A0, symBinAddr: 0x10001FEFC, symSize: 0x2C }
  - { offset: 0x3621F, size: 0x8, addend: 0x0, symName: __ZNSt3__16__loopIcED0Ev, symObjAddr: 0x1C4CC, symBinAddr: 0x10001FF28, symSize: 0x30 }
  - { offset: 0x3624C, size: 0x8, addend: 0x0, symName: __ZNKSt3__16__loopIcE6__execERNS_7__stateIcEE, symObjAddr: 0x1C4FC, symBinAddr: 0x10001FF58, symSize: 0x24C }
  - { offset: 0x362D9, size: 0x8, addend: 0x0, symName: __ZNKSt3__16__loopIcE12__exec_splitEbRNS_7__stateIcEE, symObjAddr: 0x1C748, symBinAddr: 0x1000201A4, symSize: 0x8C }
  - { offset: 0x3631D, size: 0x8, addend: 0x0, symName: __ZNSt3__117__owns_two_statesIcED1Ev, symObjAddr: 0x1C7D4, symBinAddr: 0x100020230, symSize: 0x2C }
  - { offset: 0x36347, size: 0x8, addend: 0x0, symName: __ZNSt3__117__owns_two_statesIcED0Ev, symObjAddr: 0x1C800, symBinAddr: 0x10002025C, symSize: 0x30 }
  - { offset: 0x36371, size: 0x8, addend: 0x0, symName: __ZNSt3__117__owns_two_statesIcED2Ev, symObjAddr: 0x1C830, symBinAddr: 0x10002028C, symSize: 0x6C }
  - { offset: 0x3639B, size: 0x8, addend: 0x0, symName: __ZNSt3__16__loopIcED2Ev, symObjAddr: 0x1C89C, symBinAddr: 0x1000202F8, symSize: 0x2C }
  - { offset: 0x363C8, size: 0x8, addend: 0x0, symName: __ZNSt3__16vectorINS_4pairImPKcEENS_9allocatorIS4_EEEixB8ne180100Em, symObjAddr: 0x1C8C8, symBinAddr: 0x100020324, symSize: 0x24 }
  - { offset: 0x363FF, size: 0x8, addend: 0x0, symName: __ZNKSt3__16__loopIcE13__init_repeatB8ne180100ERNS_7__stateIcEE, symObjAddr: 0x1C8EC, symBinAddr: 0x100020348, symSize: 0xF8 }
  - { offset: 0x36451, size: 0x8, addend: 0x0, symName: __ZNKSt3__117__owns_two_statesIcE6secondB8ne180100Ev, symObjAddr: 0x1C9E4, symBinAddr: 0x100020440, symSize: 0x18 }
  - { offset: 0x36477, size: 0x8, addend: 0x0, symName: __ZNSt3__110unique_ptrINS_6__loopIcEENS_14default_deleteIS2_EEEC2B8ne180100ILb1EvEEPS2_, symObjAddr: 0x1C9FC, symBinAddr: 0x100020458, symSize: 0x44 }
  - { offset: 0x364BA, size: 0x8, addend: 0x0, symName: __ZNSt3__117__compressed_pairIPNS_6__loopIcEENS_14default_deleteIS2_EEEC1B8ne180100IRS3_NS_16__value_init_tagEEEOT_OT0_, symObjAddr: 0x1CA40, symBinAddr: 0x10002049C, symSize: 0x3C }
  - { offset: 0x36512, size: 0x8, addend: 0x0, symName: __ZNSt3__117__compressed_pairIPNS_6__loopIcEENS_14default_deleteIS2_EEEC2B8ne180100IRS3_NS_16__value_init_tagEEEOT_OT0_, symObjAddr: 0x1CA7C, symBinAddr: 0x1000204D8, symSize: 0x40 }
  - { offset: 0x3656A, size: 0x8, addend: 0x0, symName: __ZNSt3__122__compressed_pair_elemIPNS_6__loopIcEELi0ELb0EEC2B8ne180100IRS3_vEEOT_, symObjAddr: 0x1CABC, symBinAddr: 0x100020518, symSize: 0x24 }
  - { offset: 0x365AC, size: 0x8, addend: 0x0, symName: __ZNSt3__122__compressed_pair_elemINS_14default_deleteINS_6__loopIcEEEELi1ELb1EEC2B8ne180100ENS_16__value_init_tagE, symObjAddr: 0x1CAE0, symBinAddr: 0x10002053C, symSize: 0x14 }
  - { offset: 0x365E0, size: 0x8, addend: 0x0, symName: __ZNKSt3__117__compressed_pairIPNS_6__loopIcEENS_14default_deleteIS2_EEE5firstB8ne180100Ev, symObjAddr: 0x1CAF4, symBinAddr: 0x100020550, symSize: 0x24 }
  - { offset: 0x36606, size: 0x8, addend: 0x0, symName: __ZNKSt3__122__compressed_pair_elemIPNS_6__loopIcEELi0ELb0EE5__getB8ne180100Ev, symObjAddr: 0x1CB18, symBinAddr: 0x100020574, symSize: 0x14 }
  - { offset: 0x3662C, size: 0x8, addend: 0x0, symName: __ZNSt3__117__repeat_one_loopIcEC2B8ne180100EPNS_6__nodeIcEE, symObjAddr: 0x1CB2C, symBinAddr: 0x100020588, symSize: 0x44 }
  - { offset: 0x36665, size: 0x8, addend: 0x0, symName: __ZNSt3__117__repeat_one_loopIcED1Ev, symObjAddr: 0x1CB70, symBinAddr: 0x1000205CC, symSize: 0x2C }
  - { offset: 0x36692, size: 0x8, addend: 0x0, symName: __ZNSt3__117__repeat_one_loopIcED0Ev, symObjAddr: 0x1CB9C, symBinAddr: 0x1000205F8, symSize: 0x30 }
  - { offset: 0x366BF, size: 0x8, addend: 0x0, symName: __ZNKSt3__117__repeat_one_loopIcE6__execERNS_7__stateIcEE, symObjAddr: 0x1CBCC, symBinAddr: 0x100020628, symSize: 0x3C }
  - { offset: 0x366F4, size: 0x8, addend: 0x0, symName: __ZNSt3__117__repeat_one_loopIcED2Ev, symObjAddr: 0x1CC08, symBinAddr: 0x100020664, symSize: 0x2C }
  - { offset: 0x36721, size: 0x8, addend: 0x0, symName: __ZNSt3__117__compressed_pairIPNS_6__loopIcEENS_14default_deleteIS2_EEE5firstB8ne180100Ev, symObjAddr: 0x1CC34, symBinAddr: 0x100020690, symSize: 0x24 }
  - { offset: 0x36747, size: 0x8, addend: 0x0, symName: __ZNSt3__122__compressed_pair_elemIPNS_6__loopIcEELi0ELb0EE5__getB8ne180100Ev, symObjAddr: 0x1CC58, symBinAddr: 0x1000206B4, symSize: 0x14 }
  - { offset: 0x3676D, size: 0x8, addend: 0x0, symName: __ZNSt3__110unique_ptrINS_6__loopIcEENS_14default_deleteIS2_EEED2B8ne180100Ev, symObjAddr: 0x1CC6C, symBinAddr: 0x1000206C8, symSize: 0x30 }
  - { offset: 0x36797, size: 0x8, addend: 0x0, symName: __ZNSt3__110unique_ptrINS_6__loopIcEENS_14default_deleteIS2_EEE5resetB8ne180100EPS2_, symObjAddr: 0x1CC9C, symBinAddr: 0x1000206F8, symSize: 0x70 }
  - { offset: 0x367DB, size: 0x8, addend: 0x0, symName: __ZNSt3__117__compressed_pairIPNS_6__loopIcEENS_14default_deleteIS2_EEE6secondB8ne180100Ev, symObjAddr: 0x1CD0C, symBinAddr: 0x100020768, symSize: 0x24 }
  - { offset: 0x36801, size: 0x8, addend: 0x0, symName: __ZNKSt3__114default_deleteINS_6__loopIcEEEclB8ne180100EPS2_, symObjAddr: 0x1CD30, symBinAddr: 0x10002078C, symSize: 0x44 }
  - { offset: 0x36835, size: 0x8, addend: 0x0, symName: __ZNSt3__122__compressed_pair_elemINS_14default_deleteINS_6__loopIcEEEELi1ELb1EE5__getB8ne180100Ev, symObjAddr: 0x1CD74, symBinAddr: 0x1000207D0, symSize: 0x14 }
  - { offset: 0x3685B, size: 0x8, addend: 0x0, symName: __ZNSt3__114numeric_limitsIiE3maxB8ne180100Ev, symObjAddr: 0x1CD88, symBinAddr: 0x1000207E4, symSize: 0x14 }
  - { offset: 0x3686F, size: 0x8, addend: 0x0, symName: __ZNSt3__123__libcpp_numeric_limitsIiLb1EE3maxB8ne180100Ev, symObjAddr: 0x1CD9C, symBinAddr: 0x1000207F8, symSize: 0x8 }
  - { offset: 0x3689A, size: 0x8, addend: 0x0, symName: __ZNSt3__111__alternateIcEC1B8ne180100EPNS_16__owns_one_stateIcEES4_, symObjAddr: 0x1CDA4, symBinAddr: 0x100020800, symSize: 0x3C }
  - { offset: 0x368F9, size: 0x8, addend: 0x0, symName: __ZNSt3__121__empty_non_own_stateIcEC1B8ne180100EPNS_6__nodeIcEE, symObjAddr: 0x1CDE0, symBinAddr: 0x10002083C, symSize: 0x34 }
  - { offset: 0x36932, size: 0x8, addend: 0x0, symName: __ZNSt3__111__alternateIcEC2B8ne180100EPNS_16__owns_one_stateIcEES4_, symObjAddr: 0x1CE14, symBinAddr: 0x100020870, symSize: 0x4C }
  - { offset: 0x3697A, size: 0x8, addend: 0x0, symName: __ZNSt3__111__alternateIcED1Ev, symObjAddr: 0x1CE60, symBinAddr: 0x1000208BC, symSize: 0x2C }
  - { offset: 0x369A7, size: 0x8, addend: 0x0, symName: __ZNSt3__111__alternateIcED0Ev, symObjAddr: 0x1CE8C, symBinAddr: 0x1000208E8, symSize: 0x30 }
  - { offset: 0x369D4, size: 0x8, addend: 0x0, symName: __ZNKSt3__111__alternateIcE6__execERNS_7__stateIcEE, symObjAddr: 0x1CEBC, symBinAddr: 0x100020918, symSize: 0x20 }
  - { offset: 0x36A09, size: 0x8, addend: 0x0, symName: __ZNKSt3__111__alternateIcE12__exec_splitEbRNS_7__stateIcEE, symObjAddr: 0x1CEDC, symBinAddr: 0x100020938, symSize: 0x6C }
  - { offset: 0x36A4D, size: 0x8, addend: 0x0, symName: __ZNSt3__111__alternateIcED2Ev, symObjAddr: 0x1CF48, symBinAddr: 0x1000209A4, symSize: 0x2C }
  - { offset: 0x36A7A, size: 0x8, addend: 0x0, symName: __ZNSt3__121__empty_non_own_stateIcEC2B8ne180100EPNS_6__nodeIcEE, symObjAddr: 0x1CF74, symBinAddr: 0x1000209D0, symSize: 0x44 }
  - { offset: 0x36AB3, size: 0x8, addend: 0x0, symName: __ZNSt3__121__empty_non_own_stateIcED1Ev, symObjAddr: 0x1CFB8, symBinAddr: 0x100020A14, symSize: 0x2C }
  - { offset: 0x36AE0, size: 0x8, addend: 0x0, symName: __ZNSt3__121__empty_non_own_stateIcED0Ev, symObjAddr: 0x1CFE4, symBinAddr: 0x100020A40, symSize: 0x30 }
  - { offset: 0x36B0D, size: 0x8, addend: 0x0, symName: __ZNKSt3__121__empty_non_own_stateIcE6__execERNS_7__stateIcEE, symObjAddr: 0x1D014, symBinAddr: 0x100020A70, symSize: 0x3C }
  - { offset: 0x36B42, size: 0x8, addend: 0x0, symName: __ZNSt3__121__empty_non_own_stateIcED2Ev, symObjAddr: 0x1D050, symBinAddr: 0x100020AAC, symSize: 0x2C }
  - { offset: 0x36B6F, size: 0x8, addend: 0x0, symName: __ZNSt3__111basic_regexIcNS_12regex_traitsIcEEE21__parse_RE_expressionIPKcEET_S7_S7_, symObjAddr: 0x1D07C, symBinAddr: 0x100020AD8, symSize: 0x6C }
  - { offset: 0x36BD9, size: 0x8, addend: 0x0, symName: __ZNSt3__111basic_regexIcNS_12regex_traitsIcEEE17__parse_simple_REIPKcEET_S7_S7_, symObjAddr: 0x1D148, symBinAddr: 0x100020BA4, symSize: 0xAC }
  - { offset: 0x36C61, size: 0x8, addend: 0x0, symName: __ZNSt3__111basic_regexIcNS_12regex_traitsIcEEE18__parse_nondupl_REIPKcEET_S7_S7_, symObjAddr: 0x1D1F4, symBinAddr: 0x100020C50, symSize: 0x10C }
  - { offset: 0x36CDA, size: 0x8, addend: 0x0, symName: __ZNSt3__111basic_regexIcNS_12regex_traitsIcEEE22__parse_RE_dupl_symbolIPKcEET_S7_S7_PNS_16__owns_one_stateIcEEjj, symObjAddr: 0x1D300, symBinAddr: 0x100020D5C, symSize: 0x270 }
  - { offset: 0x36DAB, size: 0x8, addend: 0x0, symName: __ZNSt3__111basic_regexIcNS_12regex_traitsIcEEE32__parse_one_char_or_coll_elem_REIPKcEET_S7_S7_, symObjAddr: 0x1D570, symBinAddr: 0x100020FCC, symSize: 0xE4 }
  - { offset: 0x36E07, size: 0x8, addend: 0x0, symName: __ZNSt3__111basic_regexIcNS_12regex_traitsIcEEE23__parse_Back_open_parenIPKcEET_S7_S7_, symObjAddr: 0x1D654, symBinAddr: 0x1000210B0, symSize: 0xA8 }
  - { offset: 0x36E71, size: 0x8, addend: 0x0, symName: __ZNSt3__111basic_regexIcNS_12regex_traitsIcEEE24__parse_Back_close_parenIPKcEET_S7_S7_, symObjAddr: 0x1D6FC, symBinAddr: 0x100021158, symSize: 0xA8 }
  - { offset: 0x36EDB, size: 0x8, addend: 0x0, symName: __ZNSt3__111basic_regexIcNS_12regex_traitsIcEEE15__parse_BACKREFIPKcEET_S7_S7_, symObjAddr: 0x1D7A4, symBinAddr: 0x100021200, symSize: 0xB0 }
  - { offset: 0x36F45, size: 0x8, addend: 0x0, symName: __ZNSt3__111basic_regexIcNS_12regex_traitsIcEEE16__parse_ORD_CHARIPKcEET_S7_S7_, symObjAddr: 0x1D854, symBinAddr: 0x1000212B0, symSize: 0xFC }
  - { offset: 0x36FAF, size: 0x8, addend: 0x0, symName: __ZNSt3__111basic_regexIcNS_12regex_traitsIcEEE19__parse_QUOTED_CHARIPKcEET_S7_S7_, symObjAddr: 0x1D950, symBinAddr: 0x1000213AC, symSize: 0x10C }
  - { offset: 0x37019, size: 0x8, addend: 0x0, symName: __ZNSt3__111basic_regexIcNS_12regex_traitsIcEEE16__push_match_anyEv, symObjAddr: 0x1DA5C, symBinAddr: 0x1000214B8, symSize: 0xA0 }
  - { offset: 0x37058, size: 0x8, addend: 0x0, symName: __ZNSt3__111__match_anyIcEC1B8ne180100EPNS_6__nodeIcEE, symObjAddr: 0x1DAFC, symBinAddr: 0x100021558, symSize: 0x34 }
  - { offset: 0x37091, size: 0x8, addend: 0x0, symName: __ZNSt3__111__match_anyIcEC2B8ne180100EPNS_6__nodeIcEE, symObjAddr: 0x1DB30, symBinAddr: 0x10002158C, symSize: 0x44 }
  - { offset: 0x370CA, size: 0x8, addend: 0x0, symName: __ZNSt3__111__match_anyIcED1Ev, symObjAddr: 0x1DB74, symBinAddr: 0x1000215D0, symSize: 0x2C }
  - { offset: 0x370F7, size: 0x8, addend: 0x0, symName: __ZNSt3__111__match_anyIcED0Ev, symObjAddr: 0x1DBA0, symBinAddr: 0x1000215FC, symSize: 0x30 }
  - { offset: 0x37124, size: 0x8, addend: 0x0, symName: __ZNKSt3__111__match_anyIcE6__execERNS_7__stateIcEE, symObjAddr: 0x1DBD0, symBinAddr: 0x10002162C, symSize: 0xA0 }
  - { offset: 0x37159, size: 0x8, addend: 0x0, symName: __ZNSt3__111__match_anyIcED2Ev, symObjAddr: 0x1DC70, symBinAddr: 0x1000216CC, symSize: 0x2C }
  - { offset: 0x37186, size: 0x8, addend: 0x0, symName: __ZNSt3__111basic_regexIcNS_12regex_traitsIcEEE15__test_back_refEc, symObjAddr: 0x1DC9C, symBinAddr: 0x1000216F8, symSize: 0xB8 }
  - { offset: 0x371CC, size: 0x8, addend: 0x0, symName: __ZNSt3__111basic_regexIcNS_12regex_traitsIcEEE23__parse_Back_open_braceIPKcEET_S7_S7_, symObjAddr: 0x1DD54, symBinAddr: 0x1000217B0, symSize: 0xA8 }
  - { offset: 0x37236, size: 0x8, addend: 0x0, symName: __ZNSt3__111basic_regexIcNS_12regex_traitsIcEEE24__parse_Back_close_braceIPKcEET_S7_S7_, symObjAddr: 0x1DDFC, symBinAddr: 0x100021858, symSize: 0xA8 }
  - { offset: 0x372A0, size: 0x8, addend: 0x0, symName: __ZNSt3__111basic_regexIcNS_12regex_traitsIcEEE18__parse_ERE_branchIPKcEET_S7_S7_, symObjAddr: 0x1DEA4, symBinAddr: 0x100021900, symSize: 0x90 }
  - { offset: 0x372FC, size: 0x8, addend: 0x0, symName: __ZNSt3__111basic_regexIcNS_12regex_traitsIcEEE22__parse_ERE_expressionIPKcEET_S7_S7_, symObjAddr: 0x1DF34, symBinAddr: 0x100021990, symSize: 0x1C0 }
  - { offset: 0x37393, size: 0x8, addend: 0x0, symName: __ZNSt3__111basic_regexIcNS_12regex_traitsIcEEE33__parse_one_char_or_coll_elem_EREIPKcEET_S7_S7_, symObjAddr: 0x1E0F4, symBinAddr: 0x100021B50, symSize: 0xE4 }
  - { offset: 0x373EF, size: 0x8, addend: 0x0, symName: __ZNSt3__111basic_regexIcNS_12regex_traitsIcEEE20__parse_ORD_CHAR_EREIPKcEET_S7_S7_, symObjAddr: 0x1E1D8, symBinAddr: 0x100021C34, symSize: 0x144 }
  - { offset: 0x3743C, size: 0x8, addend: 0x0, symName: __ZNSt3__111basic_regexIcNS_12regex_traitsIcEEE23__parse_QUOTED_CHAR_EREIPKcEET_S7_S7_, symObjAddr: 0x1E31C, symBinAddr: 0x100021D78, symSize: 0x1AC }
  - { offset: 0x374A6, size: 0x8, addend: 0x0, symName: __ZNSt3__118__unwrap_iter_implIPKcLb1EE8__rewrapB8ne180100ES2_S2_, symObjAddr: 0x1E564, symBinAddr: 0x100021FC0, symSize: 0x48 }
  - { offset: 0x374D7, size: 0x8, addend: 0x0, symName: __ZNKSt3__112basic_stringIcNS_11char_traitsIcEENS_9allocatorIcEEE5beginB8ne180100Ev, symObjAddr: 0x1E8F8, symBinAddr: 0x100022354, symSize: 0x4C }
  - { offset: 0x374FD, size: 0x8, addend: 0x0, symName: __ZNKSt3__112basic_stringIcNS_11char_traitsIcEENS_9allocatorIcEEE3endB8ne180100Ev, symObjAddr: 0x1E944, symBinAddr: 0x1000223A0, symSize: 0x54 }
  - { offset: 0x375A0, size: 0x8, addend: 0x0, symName: __ZNSt3__114regex_iteratorINS_11__wrap_iterIPKcEEcNS_12regex_traitsIcEEEC1ES4_S4_RKNS_11basic_regexIcS6_EENS_15regex_constants15match_flag_typeE, symObjAddr: 0x1E998, symBinAddr: 0x1000223F4, symSize: 0x4C }
  - { offset: 0x37606, size: 0x8, addend: 0x0, symName: __ZNSt3__114regex_iteratorINS_11__wrap_iterIPKcEEcNS_12regex_traitsIcEEEC1Ev, symObjAddr: 0x1E9E4, symBinAddr: 0x100022440, symSize: 0x2C }
  - { offset: 0x37630, size: 0x8, addend: 0x0, symName: __ZNKSt3__114regex_iteratorINS_11__wrap_iterIPKcEEcNS_12regex_traitsIcEEEeqERKS7_, symObjAddr: 0x1EA10, symBinAddr: 0x10002246C, symSize: 0x17C }
  - { offset: 0x37665, size: 0x8, addend: 0x0, symName: __ZNSt3__19sub_matchINS_11__wrap_iterIPKcEEEC1B8ne180100Ev, symObjAddr: 0x1EBEC, symBinAddr: 0x100022648, symSize: 0x2C }
  - { offset: 0x3768F, size: 0x8, addend: 0x0, symName: __ZNKSt3__114regex_iteratorINS_11__wrap_iterIPKcEEcNS_12regex_traitsIcEEEneB8ne180100ERKS7_, symObjAddr: 0x1EC18, symBinAddr: 0x100022674, symSize: 0x30 }
  - { offset: 0x376C4, size: 0x8, addend: 0x0, symName: __ZNKSt3__114regex_iteratorINS_11__wrap_iterIPKcEEcNS_12regex_traitsIcEEEptB8ne180100Ev, symObjAddr: 0x1EC48, symBinAddr: 0x1000226A4, symSize: 0x18 }
  - { offset: 0x376EA, size: 0x8, addend: 0x0, symName: __ZNKSt3__113match_resultsINS_11__wrap_iterIPKcEENS_9allocatorINS_9sub_matchIS4_EEEEE6prefixB8ne180100Ev, symObjAddr: 0x1EC60, symBinAddr: 0x1000226BC, symSize: 0x18 }
  - { offset: 0x37710, size: 0x8, addend: 0x0, symName: __ZNKSt3__113match_resultsINS_11__wrap_iterIPKcEENS_9allocatorINS_9sub_matchIS4_EEEEE6formatINS_20back_insert_iteratorINS_12basic_stringIcNS_11char_traitsIcEENS5_IcEEEEEEEET_SI_S3_S3_NS_15regex_constants15match_flag_typeE, symObjAddr: 0x1EC78, symBinAddr: 0x1000226D4, symSize: 0x580 }
  - { offset: 0x377B7, size: 0x8, addend: 0x0, symName: __ZNKSt3__113match_resultsINS_11__wrap_iterIPKcEENS_9allocatorINS_9sub_matchIS4_EEEEE6suffixB8ne180100Ev, symObjAddr: 0x1F1F8, symBinAddr: 0x100022C54, symSize: 0x18 }
  - { offset: 0x377E3, size: 0x8, addend: 0x0, symName: __ZNSt3__19sub_matchINS_11__wrap_iterIPKcEEEaSERKS5_, symObjAddr: 0x1F210, symBinAddr: 0x100022C6C, symSize: 0x44 }
  - { offset: 0x37815, size: 0x8, addend: 0x0, symName: __ZNSt3__114regex_iteratorINS_11__wrap_iterIPKcEEcNS_12regex_traitsIcEEEppEv, symObjAddr: 0x1F254, symBinAddr: 0x100022CB0, symSize: 0x1CC }
  - { offset: 0x37850, size: 0x8, addend: 0x0, symName: __ZNSt3__114regex_iteratorINS_11__wrap_iterIPKcEEcNS_12regex_traitsIcEEED1Ev, symObjAddr: 0x1F420, symBinAddr: 0x100022E7C, symSize: 0x2C }
  - { offset: 0x3787D, size: 0x8, addend: 0x0, symName: __ZNSt3__114regex_iteratorINS_11__wrap_iterIPKcEEcNS_12regex_traitsIcEEEC2ES4_S4_RKNS_11basic_regexIcS6_EENS_15regex_constants15match_flag_typeE, symObjAddr: 0x1F44C, symBinAddr: 0x100022EA8, symSize: 0xB4 }
  - { offset: 0x378E3, size: 0x8, addend: 0x0, symName: __ZNSt3__113match_resultsINS_11__wrap_iterIPKcEENS_9allocatorINS_9sub_matchIS4_EEEEEC1Ev, symObjAddr: 0x1F500, symBinAddr: 0x100022F5C, symSize: 0x40 }
  - { offset: 0x37913, size: 0x8, addend: 0x0, symName: __ZNSt3__113match_resultsINS_11__wrap_iterIPKcEENS_9allocatorINS_9sub_matchIS4_EEEEED1Ev, symObjAddr: 0x1F658, symBinAddr: 0x1000230B4, symSize: 0x2C }
  - { offset: 0x37940, size: 0x8, addend: 0x0, symName: __ZNSt3__19allocatorINS_9sub_matchINS_11__wrap_iterIPKcEEEEEC1B8ne180100Ev, symObjAddr: 0x1F684, symBinAddr: 0x1000230E0, symSize: 0x2C }
  - { offset: 0x3796A, size: 0x8, addend: 0x0, symName: __ZNSt3__113match_resultsINS_11__wrap_iterIPKcEENS_9allocatorINS_9sub_matchIS4_EEEEEC1ERKS8_, symObjAddr: 0x1F6B0, symBinAddr: 0x10002310C, symSize: 0x34 }
  - { offset: 0x379A3, size: 0x8, addend: 0x0, symName: __ZNSt3__19allocatorINS_9sub_matchINS_11__wrap_iterIPKcEEEEEC2B8ne180100Ev, symObjAddr: 0x1F6E4, symBinAddr: 0x100023140, symSize: 0x2C }
  - { offset: 0x379CD, size: 0x8, addend: 0x0, symName: __ZNSt3__116__non_trivial_ifILb1ENS_9allocatorINS_9sub_matchINS_11__wrap_iterIPKcEEEEEEEC2B8ne180100Ev, symObjAddr: 0x1F710, symBinAddr: 0x10002316C, symSize: 0x14 }
  - { offset: 0x379F7, size: 0x8, addend: 0x0, symName: __ZNSt3__113match_resultsINS_11__wrap_iterIPKcEENS_9allocatorINS_9sub_matchIS4_EEEEEC2ERKS8_, symObjAddr: 0x1F724, symBinAddr: 0x100023180, symSize: 0x98 }
  - { offset: 0x37A30, size: 0x8, addend: 0x0, symName: __ZNSt3__16vectorINS_9sub_matchINS_11__wrap_iterIPKcEEEENS_9allocatorIS6_EEEC1B8ne180100ERKS8_, symObjAddr: 0x1F7BC, symBinAddr: 0x100023218, symSize: 0x34 }
  - { offset: 0x37A69, size: 0x8, addend: 0x0, symName: __ZNSt3__111__wrap_iterIPKcEC1B8ne180100Ev, symObjAddr: 0x1F7F0, symBinAddr: 0x10002324C, symSize: 0x2C }
  - { offset: 0x37A93, size: 0x8, addend: 0x0, symName: __ZNSt3__16vectorINS_9sub_matchINS_11__wrap_iterIPKcEEEENS_9allocatorIS6_EEED1B8ne180100Ev, symObjAddr: 0x1F81C, symBinAddr: 0x100023278, symSize: 0x2C }
  - { offset: 0x37ABD, size: 0x8, addend: 0x0, symName: __ZNSt3__16vectorINS_9sub_matchINS_11__wrap_iterIPKcEEEENS_9allocatorIS6_EEEC2B8ne180100ERKS8_, symObjAddr: 0x1F848, symBinAddr: 0x1000232A4, symSize: 0x50 }
  - { offset: 0x37AF6, size: 0x8, addend: 0x0, symName: __ZNSt3__117__compressed_pairIPNS_9sub_matchINS_11__wrap_iterIPKcEEEENS_9allocatorIS6_EEEC1B8ne180100IDnRKS9_EEOT_OT0_, symObjAddr: 0x1F898, symBinAddr: 0x1000232F4, symSize: 0x3C }
  - { offset: 0x37B4E, size: 0x8, addend: 0x0, symName: __ZNSt3__117__compressed_pairIPNS_9sub_matchINS_11__wrap_iterIPKcEEEENS_9allocatorIS6_EEEC2B8ne180100IDnRKS9_EEOT_OT0_, symObjAddr: 0x1F8D4, symBinAddr: 0x100023330, symSize: 0x44 }
  - { offset: 0x37BA6, size: 0x8, addend: 0x0, symName: __ZNSt3__122__compressed_pair_elemIPNS_9sub_matchINS_11__wrap_iterIPKcEEEELi0ELb0EEC2B8ne180100IDnvEEOT_, symObjAddr: 0x1F918, symBinAddr: 0x100023374, symSize: 0x1C }
  - { offset: 0x37BE8, size: 0x8, addend: 0x0, symName: __ZNSt3__122__compressed_pair_elemINS_9allocatorINS_9sub_matchINS_11__wrap_iterIPKcEEEEEELi1ELb1EEC2B8ne180100IRKS8_vEEOT_, symObjAddr: 0x1F934, symBinAddr: 0x100023390, symSize: 0x18 }
  - { offset: 0x37C2A, size: 0x8, addend: 0x0, symName: __ZNSt3__111__wrap_iterIPKcEC2B8ne180100Ev, symObjAddr: 0x1F94C, symBinAddr: 0x1000233A8, symSize: 0x18 }
  - { offset: 0x37C54, size: 0x8, addend: 0x0, symName: __ZNSt3__16vectorINS_9sub_matchINS_11__wrap_iterIPKcEEEENS_9allocatorIS6_EEED2B8ne180100Ev, symObjAddr: 0x1F964, symBinAddr: 0x1000233C0, symSize: 0x44 }
  - { offset: 0x37C7E, size: 0x8, addend: 0x0, symName: __ZNSt3__16vectorINS_9sub_matchINS_11__wrap_iterIPKcEEEENS_9allocatorIS6_EEE16__destroy_vectorC1B8ne180100ERS9_, symObjAddr: 0x1F9A8, symBinAddr: 0x100023404, symSize: 0x34 }
  - { offset: 0x37CB7, size: 0x8, addend: 0x0, symName: __ZNSt3__16vectorINS_9sub_matchINS_11__wrap_iterIPKcEEEENS_9allocatorIS6_EEE16__destroy_vectorclB8ne180100Ev, symObjAddr: 0x1F9DC, symBinAddr: 0x100023438, symSize: 0x88 }
  - { offset: 0x37CDD, size: 0x8, addend: 0x0, symName: __ZNSt3__16vectorINS_9sub_matchINS_11__wrap_iterIPKcEEEENS_9allocatorIS6_EEE16__destroy_vectorC2B8ne180100ERS9_, symObjAddr: 0x1FA64, symBinAddr: 0x1000234C0, symSize: 0x20 }
  - { offset: 0x37D16, size: 0x8, addend: 0x0, symName: __ZNSt3__16vectorINS_9sub_matchINS_11__wrap_iterIPKcEEEENS_9allocatorIS6_EEE7__clearB8ne180100Ev, symObjAddr: 0x1FA84, symBinAddr: 0x1000234E0, symSize: 0x28 }
  - { offset: 0x37D3C, size: 0x8, addend: 0x0, symName: __ZNKSt3__16vectorINS_9sub_matchINS_11__wrap_iterIPKcEEEENS_9allocatorIS6_EEE17__annotate_deleteB8ne180100Ev, symObjAddr: 0x1FAAC, symBinAddr: 0x100023508, symSize: 0x10 }
  - { offset: 0x37D62, size: 0x8, addend: 0x0, symName: __ZNSt3__116allocator_traitsINS_9allocatorINS_9sub_matchINS_11__wrap_iterIPKcEEEEEEE10deallocateB8ne180100ERS8_PS7_m, symObjAddr: 0x1FABC, symBinAddr: 0x100023518, symSize: 0x34 }
  - { offset: 0x37DA4, size: 0x8, addend: 0x0, symName: __ZNSt3__16vectorINS_9sub_matchINS_11__wrap_iterIPKcEEEENS_9allocatorIS6_EEE7__allocB8ne180100Ev, symObjAddr: 0x1FAF0, symBinAddr: 0x10002354C, symSize: 0x28 }
  - { offset: 0x37DCA, size: 0x8, addend: 0x0, symName: __ZNKSt3__16vectorINS_9sub_matchINS_11__wrap_iterIPKcEEEENS_9allocatorIS6_EEE8capacityB8ne180100Ev, symObjAddr: 0x1FB18, symBinAddr: 0x100023574, symSize: 0x40 }
  - { offset: 0x37DF0, size: 0x8, addend: 0x0, symName: __ZNSt3__16vectorINS_9sub_matchINS_11__wrap_iterIPKcEEEENS_9allocatorIS6_EEE22__base_destruct_at_endB8ne180100EPS6_, symObjAddr: 0x1FB58, symBinAddr: 0x1000235B4, symSize: 0x88 }
  - { offset: 0x37E34, size: 0x8, addend: 0x0, symName: __ZNSt3__116allocator_traitsINS_9allocatorINS_9sub_matchINS_11__wrap_iterIPKcEEEEEEE7destroyB8ne180100IS7_vEEvRS8_PT_, symObjAddr: 0x1FBE0, symBinAddr: 0x10002363C, symSize: 0x2C }
  - { offset: 0x37E71, size: 0x8, addend: 0x0, symName: __ZNSt3__19allocatorINS_9sub_matchINS_11__wrap_iterIPKcEEEEE7destroyB8ne180100EPS6_, symObjAddr: 0x1FC20, symBinAddr: 0x10002367C, symSize: 0x14 }
  - { offset: 0x37EA5, size: 0x8, addend: 0x0, symName: __ZNSt3__19allocatorINS_9sub_matchINS_11__wrap_iterIPKcEEEEE10deallocateB8ne180100EPS6_m, symObjAddr: 0x1FC34, symBinAddr: 0x100023690, symSize: 0x44 }
  - { offset: 0x37EE7, size: 0x8, addend: 0x0, symName: __ZNSt3__117__compressed_pairIPNS_9sub_matchINS_11__wrap_iterIPKcEEEENS_9allocatorIS6_EEE6secondB8ne180100Ev, symObjAddr: 0x1FC78, symBinAddr: 0x1000236D4, symSize: 0x24 }
  - { offset: 0x37F0D, size: 0x8, addend: 0x0, symName: __ZNSt3__122__compressed_pair_elemINS_9allocatorINS_9sub_matchINS_11__wrap_iterIPKcEEEEEELi1ELb1EE5__getB8ne180100Ev, symObjAddr: 0x1FC9C, symBinAddr: 0x1000236F8, symSize: 0x14 }
  - { offset: 0x37F33, size: 0x8, addend: 0x0, symName: __ZNKSt3__16vectorINS_9sub_matchINS_11__wrap_iterIPKcEEEENS_9allocatorIS6_EEE9__end_capB8ne180100Ev, symObjAddr: 0x1FCB0, symBinAddr: 0x10002370C, symSize: 0x28 }
  - { offset: 0x37F59, size: 0x8, addend: 0x0, symName: __ZNKSt3__117__compressed_pairIPNS_9sub_matchINS_11__wrap_iterIPKcEEEENS_9allocatorIS6_EEE5firstB8ne180100Ev, symObjAddr: 0x1FCD8, symBinAddr: 0x100023734, symSize: 0x24 }
  - { offset: 0x37F7F, size: 0x8, addend: 0x0, symName: __ZNKSt3__122__compressed_pair_elemIPNS_9sub_matchINS_11__wrap_iterIPKcEEEELi0ELb0EE5__getB8ne180100Ev, symObjAddr: 0x1FCFC, symBinAddr: 0x100023758, symSize: 0x14 }
  - { offset: 0x37FA5, size: 0x8, addend: 0x0, symName: __ZNKSt3__111basic_regexIcNS_12regex_traitsIcEEE8__searchINS_9allocatorINS_9sub_matchIPKcEEEEEEbS8_S8_RNS_13match_resultsIS8_T_EENS_15regex_constants15match_flag_typeE, symObjAddr: 0x1FD10, symBinAddr: 0x10002376C, symSize: 0x400 }
  - { offset: 0x38016, size: 0x8, addend: 0x0, symName: __ZNSt3__113match_resultsINS_11__wrap_iterIPKcEENS_9allocatorINS_9sub_matchIS4_EEEEE8__assignB8ne180100IS3_NS5_INS6_IS3_EEEEEEvS4_S4_RKNS0_IT_T0_EEb, symObjAddr: 0x20110, symBinAddr: 0x100023B6C, symSize: 0x304 }
  - { offset: 0x380B7, size: 0x8, addend: 0x0, symName: __ZNKSt3__111basic_regexIcNS_12regex_traitsIcEEE16__match_at_startINS_9allocatorINS_9sub_matchIPKcEEEEEEbS8_S8_RNS_13match_resultsIS8_T_EENS_15regex_constants15match_flag_typeEb, symObjAddr: 0x20450, symBinAddr: 0x100023EAC, symSize: 0xE4 }
  - { offset: 0x38131, size: 0x8, addend: 0x0, symName: __ZNKSt3__113match_resultsIPKcNS_9allocatorINS_9sub_matchIS2_EEEEEixB8ne180100Em, symObjAddr: 0x20534, symBinAddr: 0x100023F90, symSize: 0x6C }
  - { offset: 0x38166, size: 0x8, addend: 0x0, symName: __ZNKSt3__111basic_regexIcNS_12regex_traitsIcEEE29__match_at_start_posix_nosubsINS_9allocatorINS_9sub_matchIPKcEEEEEEbS8_S8_RNS_13match_resultsIS8_T_EENS_15regex_constants15match_flag_typeEb, symObjAddr: 0x205DC, symBinAddr: 0x100024038, symSize: 0x5E4 }
  - { offset: 0x38282, size: 0x8, addend: 0x0, symName: __ZNKSt3__111basic_regexIcNS_12regex_traitsIcEEE27__match_at_start_posix_subsINS_9allocatorINS_9sub_matchIPKcEEEEEEbS8_S8_RNS_13match_resultsIS8_T_EENS_15regex_constants15match_flag_typeEb, symObjAddr: 0x20BC0, symBinAddr: 0x10002461C, symSize: 0x648 }
  - { offset: 0x383DC, size: 0x8, addend: 0x0, symName: __ZNSt3__15dequeINS_7__stateIcEENS_9allocatorIS2_EEEC1B8ne180100Ev, symObjAddr: 0x21208, symBinAddr: 0x100024C64, symSize: 0x2C }
  - { offset: 0x38406, size: 0x8, addend: 0x0, symName: __ZNSt3__15dequeINS_7__stateIcEENS_9allocatorIS2_EEE9push_backEOS2_, symObjAddr: 0x21234, symBinAddr: 0x100024C90, symSize: 0xA4 }
  - { offset: 0x3844A, size: 0x8, addend: 0x0, symName: __ZNSt3__15dequeINS_7__stateIcEENS_9allocatorIS2_EEE4backEv, symObjAddr: 0x212D8, symBinAddr: 0x100024D34, symSize: 0x70 }
  - { offset: 0x3847F, size: 0x8, addend: 0x0, symName: __ZNSt3__15dequeINS_7__stateIcEENS_9allocatorIS2_EEE8pop_backEv, symObjAddr: 0x21348, symBinAddr: 0x100024DA4, symSize: 0xE8 }
  - { offset: 0x384E1, size: 0x8, addend: 0x0, symName: __ZNSt3__15dequeINS_7__stateIcEENS_9allocatorIS2_EEE5clearEv, symObjAddr: 0x21430, symBinAddr: 0x100024E8C, symSize: 0x164 }
  - { offset: 0x3853A, size: 0x8, addend: 0x0, symName: __ZNSt3__15dequeINS_7__stateIcEENS_9allocatorIS2_EEE10push_frontEOS2_, symObjAddr: 0x21594, symBinAddr: 0x100024FF0, symSize: 0xB4 }
  - { offset: 0x3857E, size: 0x8, addend: 0x0, symName: __ZNKSt3__15dequeINS_7__stateIcEENS_9allocatorIS2_EEE5emptyB8ne180100Ev, symObjAddr: 0x21648, symBinAddr: 0x1000250A4, symSize: 0x2C }
  - { offset: 0x385A4, size: 0x8, addend: 0x0, symName: __ZNSt3__15dequeINS_7__stateIcEENS_9allocatorIS2_EEED1B8ne180100Ev, symObjAddr: 0x21674, symBinAddr: 0x1000250D0, symSize: 0x2C }
  - { offset: 0x385CE, size: 0x8, addend: 0x0, symName: __ZNSt3__15dequeINS_7__stateIcEENS_9allocatorIS2_EEEC2B8ne180100Ev, symObjAddr: 0x216A0, symBinAddr: 0x1000250FC, symSize: 0x5C }
  - { offset: 0x385F8, size: 0x8, addend: 0x0, symName: __ZNSt3__114__split_bufferIPNS_7__stateIcEENS_9allocatorIS3_EEEC1B8ne180100Ev, symObjAddr: 0x216FC, symBinAddr: 0x100025158, symSize: 0x2C }
  - { offset: 0x38628, size: 0x8, addend: 0x0, symName: __ZNSt3__117__compressed_pairImNS_9allocatorINS_7__stateIcEEEEEC1B8ne180100IiNS_18__default_init_tagEEEOT_OT0_, symObjAddr: 0x21728, symBinAddr: 0x100025184, symSize: 0x3C }
  - { offset: 0x38680, size: 0x8, addend: 0x0, symName: __ZNKSt3__15dequeINS_7__stateIcEENS_9allocatorIS2_EEE14__annotate_newB8ne180100Em, symObjAddr: 0x21764, symBinAddr: 0x1000251C0, symSize: 0x14 }
  - { offset: 0x386B5, size: 0x8, addend: 0x0, symName: __ZNSt3__114__split_bufferIPNS_7__stateIcEENS_9allocatorIS3_EEEC2B8ne180100Ev, symObjAddr: 0x21778, symBinAddr: 0x1000251D4, symSize: 0x50 }
  - { offset: 0x386DF, size: 0x8, addend: 0x0, symName: __ZNSt3__117__compressed_pairIPPNS_7__stateIcEENS_9allocatorIS3_EEEC1B8ne180100IDnNS_18__default_init_tagEEEOT_OT0_, symObjAddr: 0x217C8, symBinAddr: 0x100025224, symSize: 0x3C }
  - { offset: 0x38737, size: 0x8, addend: 0x0, symName: __ZNSt3__117__compressed_pairIPPNS_7__stateIcEENS_9allocatorIS3_EEEC2B8ne180100IDnNS_18__default_init_tagEEEOT_OT0_, symObjAddr: 0x21804, symBinAddr: 0x100025260, symSize: 0x40 }
  - { offset: 0x3878F, size: 0x8, addend: 0x0, symName: __ZNSt3__122__compressed_pair_elemIPPNS_7__stateIcEELi0ELb0EEC2B8ne180100IDnvEEOT_, symObjAddr: 0x21844, symBinAddr: 0x1000252A0, symSize: 0x1C }
  - { offset: 0x387D1, size: 0x8, addend: 0x0, symName: __ZNSt3__122__compressed_pair_elemINS_9allocatorIPNS_7__stateIcEEEELi1ELb1EEC2B8ne180100ENS_18__default_init_tagE, symObjAddr: 0x21860, symBinAddr: 0x1000252BC, symSize: 0x2C }
  - { offset: 0x38805, size: 0x8, addend: 0x0, symName: __ZNSt3__19allocatorIPNS_7__stateIcEEEC2B8ne180100Ev, symObjAddr: 0x2188C, symBinAddr: 0x1000252E8, symSize: 0x2C }
  - { offset: 0x3882F, size: 0x8, addend: 0x0, symName: __ZNSt3__116__non_trivial_ifILb1ENS_9allocatorIPNS_7__stateIcEEEEEC2B8ne180100Ev, symObjAddr: 0x218B8, symBinAddr: 0x100025314, symSize: 0x14 }
  - { offset: 0x38859, size: 0x8, addend: 0x0, symName: __ZNSt3__117__compressed_pairImNS_9allocatorINS_7__stateIcEEEEEC2B8ne180100IiNS_18__default_init_tagEEEOT_OT0_, symObjAddr: 0x218CC, symBinAddr: 0x100025328, symSize: 0x40 }
  - { offset: 0x388B1, size: 0x8, addend: 0x0, symName: __ZNSt3__122__compressed_pair_elemImLi0ELb0EEC2B8ne180100IivEEOT_, symObjAddr: 0x2190C, symBinAddr: 0x100025368, symSize: 0x24 }
  - { offset: 0x388F3, size: 0x8, addend: 0x0, symName: __ZNSt3__15dequeINS_7__stateIcEENS_9allocatorIS2_EEE7__allocB8ne180100Ev, symObjAddr: 0x21930, symBinAddr: 0x10002538C, symSize: 0x28 }
  - { offset: 0x38919, size: 0x8, addend: 0x0, symName: __ZNKSt3__15dequeINS_7__stateIcEENS_9allocatorIS2_EEE12__back_spareB8ne180100Ev, symObjAddr: 0x21958, symBinAddr: 0x1000253B4, symSize: 0x54 }
  - { offset: 0x3893F, size: 0x8, addend: 0x0, symName: __ZNSt3__15dequeINS_7__stateIcEENS_9allocatorIS2_EEE19__add_back_capacityEv, symObjAddr: 0x219AC, symBinAddr: 0x100025408, symSize: 0x338 }
  - { offset: 0x389F2, size: 0x8, addend: 0x0, symName: __ZNKSt3__15dequeINS_7__stateIcEENS_9allocatorIS2_EEE24__annotate_increase_backB8ne180100Em, symObjAddr: 0x21CE4, symBinAddr: 0x100025740, symSize: 0x14 }
  - { offset: 0x38A27, size: 0x8, addend: 0x0, symName: __ZNSt3__15dequeINS_7__stateIcEENS_9allocatorIS2_EEE3endB8ne180100Ev, symObjAddr: 0x21CF8, symBinAddr: 0x100025754, symSize: 0xD4 }
  - { offset: 0x38A6B, size: 0x8, addend: 0x0, symName: __ZNKSt3__116__deque_iteratorINS_7__stateIcEEPS2_RS2_PS3_lLl42EEdeB8ne180100Ev, symObjAddr: 0x21DCC, symBinAddr: 0x100025828, symSize: 0x18 }
  - { offset: 0x38A91, size: 0x8, addend: 0x0, symName: __ZNSt3__15dequeINS_7__stateIcEENS_9allocatorIS2_EEE6__sizeB8ne180100Ev, symObjAddr: 0x21DE4, symBinAddr: 0x100025840, symSize: 0x28 }
  - { offset: 0x38AB7, size: 0x8, addend: 0x0, symName: __ZNSt3__117__compressed_pairImNS_9allocatorINS_7__stateIcEEEEE6secondB8ne180100Ev, symObjAddr: 0x21E0C, symBinAddr: 0x100025868, symSize: 0x24 }
  - { offset: 0x38ADD, size: 0x8, addend: 0x0, symName: __ZNKSt3__15dequeINS_7__stateIcEENS_9allocatorIS2_EEE10__capacityB8ne180100Ev, symObjAddr: 0x21E30, symBinAddr: 0x10002588C, symSize: 0x5C }
  - { offset: 0x38B03, size: 0x8, addend: 0x0, symName: __ZNKSt3__15dequeINS_7__stateIcEENS_9allocatorIS2_EEE4sizeB8ne180100Ev, symObjAddr: 0x21E8C, symBinAddr: 0x1000258E8, symSize: 0x28 }
  - { offset: 0x38B29, size: 0x8, addend: 0x0, symName: __ZNKSt3__114__split_bufferIPNS_7__stateIcEENS_9allocatorIS3_EEE4sizeB8ne180100Ev, symObjAddr: 0x21EB4, symBinAddr: 0x100025910, symSize: 0x28 }
  - { offset: 0x38B4F, size: 0x8, addend: 0x0, symName: __ZNKSt3__15dequeINS_7__stateIcEENS_9allocatorIS2_EEE6__sizeB8ne180100Ev, symObjAddr: 0x21EDC, symBinAddr: 0x100025938, symSize: 0x28 }
  - { offset: 0x38B75, size: 0x8, addend: 0x0, symName: __ZNKSt3__117__compressed_pairImNS_9allocatorINS_7__stateIcEEEEE5firstB8ne180100Ev, symObjAddr: 0x21F04, symBinAddr: 0x100025960, symSize: 0x24 }
  - { offset: 0x38B9B, size: 0x8, addend: 0x0, symName: __ZNKSt3__122__compressed_pair_elemImLi0ELb0EE5__getB8ne180100Ev, symObjAddr: 0x21F28, symBinAddr: 0x100025984, symSize: 0x14 }
  - { offset: 0x38BC1, size: 0x8, addend: 0x0, symName: __ZNKSt3__15dequeINS_7__stateIcEENS_9allocatorIS2_EEE13__front_spareB8ne180100Ev, symObjAddr: 0x21F3C, symBinAddr: 0x100025998, symSize: 0x18 }
  - { offset: 0x38BE7, size: 0x8, addend: 0x0, symName: __ZNSt3__114__split_bufferIPNS_7__stateIcEENS_9allocatorIS3_EEE5frontB8ne180100Ev, symObjAddr: 0x21F54, symBinAddr: 0x1000259B0, symSize: 0x18 }
  - { offset: 0x38C0D, size: 0x8, addend: 0x0, symName: __ZNSt3__114__split_bufferIPNS_7__stateIcEENS_9allocatorIS3_EEE9pop_frontB8ne180100Ev, symObjAddr: 0x21F6C, symBinAddr: 0x1000259C8, symSize: 0x2C }
  - { offset: 0x38C33, size: 0x8, addend: 0x0, symName: __ZNSt3__114__split_bufferIPNS_7__stateIcEENS_9allocatorIS3_EEE9push_backB8ne180100ERKS3_, symObjAddr: 0x21F98, symBinAddr: 0x1000259F4, symSize: 0x258 }
  - { offset: 0x38CA9, size: 0x8, addend: 0x0, symName: __ZNKSt3__114__split_bufferIPNS_7__stateIcEENS_9allocatorIS3_EEE8capacityB8ne180100Ev, symObjAddr: 0x221F0, symBinAddr: 0x100025C4C, symSize: 0x40 }
  - { offset: 0x38CCF, size: 0x8, addend: 0x0, symName: __ZNKSt3__114__split_bufferIPNS_7__stateIcEENS_9allocatorIS3_EEE12__back_spareB8ne180100Ev, symObjAddr: 0x22230, symBinAddr: 0x100025C8C, symSize: 0x40 }
  - { offset: 0x38CF5, size: 0x8, addend: 0x0, symName: __ZNSt3__114__split_bufferIPNS_7__stateIcEENS_9allocatorIS3_EEE9push_backEOS3_, symObjAddr: 0x22270, symBinAddr: 0x100025CCC, symSize: 0x258 }
  - { offset: 0x38D6B, size: 0x8, addend: 0x0, symName: __ZNSt3__116allocator_traitsINS_9allocatorINS_7__stateIcEEEEE8allocateB8ne180100ERS4_m, symObjAddr: 0x224C8, symBinAddr: 0x100025F24, symSize: 0x2C }
  - { offset: 0x38D9E, size: 0x8, addend: 0x0, symName: __ZNSt3__114__split_bufferIPNS_7__stateIcEENS_9allocatorIS3_EEE10push_frontEOS3_, symObjAddr: 0x224F4, symBinAddr: 0x100025F50, symSize: 0x254 }
  - { offset: 0x38E14, size: 0x8, addend: 0x0, symName: __ZNKSt3__15dequeINS_7__stateIcEENS_9allocatorIS2_EEE22__annotate_whole_blockB8ne180100EmNS5_22__asan_annotation_typeE, symObjAddr: 0x22748, symBinAddr: 0x1000261A4, symSize: 0x18 }
  - { offset: 0x38E58, size: 0x8, addend: 0x0, symName: __ZNSt3__114__split_bufferIPNS_7__stateIcEENS_9allocatorIS3_EEE7__allocB8ne180100Ev, symObjAddr: 0x22760, symBinAddr: 0x1000261BC, symSize: 0x28 }
  - { offset: 0x38E7E, size: 0x8, addend: 0x0, symName: __ZNSt3__114__split_bufferIPNS_7__stateIcEERNS_9allocatorIS3_EEEC1EmmS6_, symObjAddr: 0x22788, symBinAddr: 0x1000261E4, symSize: 0x44 }
  - { offset: 0x38ED8, size: 0x8, addend: 0x0, symName: __ZNSt3__122__allocator_destructorINS_9allocatorINS_7__stateIcEEEEEC1B8ne180100ERS4_m, symObjAddr: 0x227CC, symBinAddr: 0x100026228, symSize: 0x3C }
  - { offset: 0x38F97, size: 0x8, addend: 0x0, symName: __ZNSt3__110unique_ptrIPNS_7__stateIcEENS_22__allocator_destructorINS_9allocatorIS2_EEEEEC1B8ne180100ILb1EvEES3_NS_16__dependent_typeINS_27__unique_ptr_deleter_sfinaeIS7_EEXT_EE20__good_rval_ref_typeE, symObjAddr: 0x22808, symBinAddr: 0x100026264, symSize: 0x3C }
  - { offset: 0x38FE8, size: 0x8, addend: 0x0, symName: __ZNSt3__114__split_bufferIPNS_7__stateIcEERNS_9allocatorIS3_EEE9push_backEOS3_, symObjAddr: 0x22844, symBinAddr: 0x1000262A0, symSize: 0x258 }
  - { offset: 0x3905E, size: 0x8, addend: 0x0, symName: __ZNKSt3__110unique_ptrIPNS_7__stateIcEENS_22__allocator_destructorINS_9allocatorIS2_EEEEE3getB8ne180100Ev, symObjAddr: 0x22A9C, symBinAddr: 0x1000264F8, symSize: 0x28 }
  - { offset: 0x39084, size: 0x8, addend: 0x0, symName: __ZNSt3__110unique_ptrIPNS_7__stateIcEENS_22__allocator_destructorINS_9allocatorIS2_EEEEE7releaseB8ne180100Ev, symObjAddr: 0x22AC4, symBinAddr: 0x100026520, symSize: 0x44 }
  - { offset: 0x390B9, size: 0x8, addend: 0x0, symName: __ZNSt3__114__split_bufferIPNS_7__stateIcEENS_9allocatorIS3_EEE3endB8ne180100Ev, symObjAddr: 0x22B08, symBinAddr: 0x100026564, symSize: 0x18 }
  - { offset: 0x390DF, size: 0x8, addend: 0x0, symName: __ZNSt3__114__split_bufferIPNS_7__stateIcEENS_9allocatorIS3_EEE5beginB8ne180100Ev, symObjAddr: 0x22B20, symBinAddr: 0x10002657C, symSize: 0x18 }
  - { offset: 0x39105, size: 0x8, addend: 0x0, symName: __ZNSt3__114__split_bufferIPNS_7__stateIcEERNS_9allocatorIS3_EEE10push_frontERKS3_, symObjAddr: 0x22B38, symBinAddr: 0x100026594, symSize: 0x254 }
  - { offset: 0x3917B, size: 0x8, addend: 0x0, symName: __ZNSt3__114__split_bufferIPNS_7__stateIcEENS_9allocatorIS3_EEE9__end_capB8ne180100Ev, symObjAddr: 0x22DC8, symBinAddr: 0x100026824, symSize: 0x28 }
  - { offset: 0x391A1, size: 0x8, addend: 0x0, symName: __ZNSt3__114__split_bufferIPNS_7__stateIcEERNS_9allocatorIS3_EEE9__end_capB8ne180100Ev, symObjAddr: 0x22DF0, symBinAddr: 0x10002684C, symSize: 0x28 }
  - { offset: 0x391C7, size: 0x8, addend: 0x0, symName: __ZNSt3__110unique_ptrIPNS_7__stateIcEENS_22__allocator_destructorINS_9allocatorIS2_EEEEED1B8ne180100Ev, symObjAddr: 0x22E18, symBinAddr: 0x100026874, symSize: 0x2C }
  - { offset: 0x391F1, size: 0x8, addend: 0x0, symName: __ZNSt3__114__split_bufferIPNS_7__stateIcEERNS_9allocatorIS3_EEED1Ev, symObjAddr: 0x22E44, symBinAddr: 0x1000268A0, symSize: 0x2C }
  - { offset: 0x3921B, size: 0x8, addend: 0x0, symName: __ZNSt3__114__split_bufferIPNS_7__stateIcEENS_9allocatorIS3_EEE19__destruct_at_beginB8ne180100EPS3_, symObjAddr: 0x22E70, symBinAddr: 0x1000268CC, symSize: 0x2C }
  - { offset: 0x3924F, size: 0x8, addend: 0x0, symName: __ZNSt3__114__split_bufferIPNS_7__stateIcEENS_9allocatorIS3_EEE19__destruct_at_beginEPS3_NS_17integral_constantIbLb1EEE, symObjAddr: 0x22E9C, symBinAddr: 0x1000268F8, symSize: 0x20 }
  - { offset: 0x3928D, size: 0x8, addend: 0x0, symName: __ZNSt3__114__split_bufferIPNS_7__stateIcEERNS_9allocatorIS3_EEE18__construct_at_endINS_13move_iteratorIPS3_EETnNS_9enable_ifIXsr31__has_forward_iterator_categoryIT_EE5valueEiE4typeELi0EEEvSD_SD_, symObjAddr: 0x22EFC, symBinAddr: 0x100026958, symSize: 0x60 }
  - { offset: 0x392DE, size: 0x8, addend: 0x0, symName: __ZNSt3__113move_iteratorIPPNS_7__stateIcEEEC1B8ne180100ES4_, symObjAddr: 0x22F5C, symBinAddr: 0x1000269B8, symSize: 0x34 }
  - { offset: 0x39316, size: 0x8, addend: 0x0, symName: __ZNSt3__116allocator_traitsINS_9allocatorIPNS_7__stateIcEEEEE9constructB8ne180100IS4_JRKS4_EvEEvRS5_PT_DpOT0_, symObjAddr: 0x22F90, symBinAddr: 0x1000269EC, symSize: 0x34 }
  - { offset: 0x39395, size: 0x8, addend: 0x0, symName: __ZNKSt3__114__move_trivialclB8ne180100IPNS_7__stateIcEES4_TnNS_9enable_ifIXsr38__can_lower_move_assignment_to_memmoveIT_T0_EE5valueEiE4typeELi0EEENS_4pairIPS6_PS7_EESB_SB_SC_, symObjAddr: 0x23174, symBinAddr: 0x100026BD0, symSize: 0x48 }
  - { offset: 0x39403, size: 0x8, addend: 0x0, symName: __ZNSt3__14pairIPPNS_7__stateIcEES4_EC1B8ne180100IRS4_S4_TnNS_9enable_ifIXclsr10_CheckArgsE17__enable_implicitIT_T0_EEEiE4typeELi0EEEOS9_OSA_, symObjAddr: 0x23398, symBinAddr: 0x100026DF4, symSize: 0x3C }
  - { offset: 0x39461, size: 0x8, addend: 0x0, symName: __ZNSt3__14pairIPPNS_7__stateIcEES4_EC2B8ne180100IRS4_S4_TnNS_9enable_ifIXclsr10_CheckArgsE17__enable_implicitIT_T0_EEEiE4typeELi0EEEOS9_OSA_, symObjAddr: 0x233D4, symBinAddr: 0x100026E30, symSize: 0x34 }
  - { offset: 0x394BF, size: 0x8, addend: 0x0, symName: __ZNSt3__118__unwrap_iter_implIPPNS_7__stateIcEELb1EE8__unwrapB8ne180100ES4_, symObjAddr: 0x23408, symBinAddr: 0x100026E64, symSize: 0x24 }
  - { offset: 0x394E2, size: 0x8, addend: 0x0, symName: __ZNSt3__14pairIPPNS_7__stateIcEES4_EC1B8ne180100IS4_S4_TnNS_9enable_ifIXclsr10_CheckArgsE17__enable_implicitIT_T0_EEEiE4typeELi0EEEOS8_OS9_, symObjAddr: 0x2342C, symBinAddr: 0x100026E88, symSize: 0x3C }
  - { offset: 0x39540, size: 0x8, addend: 0x0, symName: __ZNSt3__14pairIPPNS_7__stateIcEES4_EC2B8ne180100IS4_S4_TnNS_9enable_ifIXclsr10_CheckArgsE17__enable_implicitIT_T0_EEEiE4typeELi0EEEOS8_OS9_, symObjAddr: 0x23468, symBinAddr: 0x100026EC4, symSize: 0x34 }
  - { offset: 0x3959E, size: 0x8, addend: 0x0, symName: __ZNSt3__118__unwrap_iter_implIPPNS_7__stateIcEELb1EE8__rewrapB8ne180100ES4_S4_, symObjAddr: 0x2349C, symBinAddr: 0x100026EF8, symSize: 0x50 }
  - { offset: 0x395CF, size: 0x8, addend: 0x0, symName: __ZNSt3__114__split_bufferIPNS_7__stateIcEERNS_9allocatorIS3_EEE28__construct_at_end_with_sizeINS_13move_iteratorIPS3_EEEEvT_m, symObjAddr: 0x234EC, symBinAddr: 0x100026F48, symSize: 0xD8 }
  - { offset: 0x39635, size: 0x8, addend: 0x0, symName: __ZNSt3__114__split_bufferIPNS_7__stateIcEERNS_9allocatorIS3_EEE21_ConstructTransactionC1B8ne180100EPPS3_m, symObjAddr: 0x23600, symBinAddr: 0x10002705C, symSize: 0x3C }
  - { offset: 0x3967B, size: 0x8, addend: 0x0, symName: __ZNSt3__116allocator_traitsINS_9allocatorIPNS_7__stateIcEEEEE9constructB8ne180100IS4_JS4_EvEEvRS5_PT_DpOT0_, symObjAddr: 0x2363C, symBinAddr: 0x100027098, symSize: 0x34 }
  - { offset: 0x396D2, size: 0x8, addend: 0x0, symName: __ZNSt3__114__split_bufferIPNS_7__stateIcEERNS_9allocatorIS3_EEE7__allocB8ne180100Ev, symObjAddr: 0x23670, symBinAddr: 0x1000270CC, symSize: 0x28 }
  - { offset: 0x396F8, size: 0x8, addend: 0x0, symName: __ZNKSt3__113move_iteratorIPPNS_7__stateIcEEEdeB8ne180100Ev, symObjAddr: 0x23698, symBinAddr: 0x1000270F4, symSize: 0x18 }
  - { offset: 0x3971E, size: 0x8, addend: 0x0, symName: __ZNSt3__113move_iteratorIPPNS_7__stateIcEEEppB8ne180100Ev, symObjAddr: 0x236B0, symBinAddr: 0x10002710C, symSize: 0x20 }
  - { offset: 0x39744, size: 0x8, addend: 0x0, symName: __ZNSt3__114__split_bufferIPNS_7__stateIcEERNS_9allocatorIS3_EEE21_ConstructTransactionD1B8ne180100Ev, symObjAddr: 0x236D0, symBinAddr: 0x10002712C, symSize: 0x2C }
  - { offset: 0x3976E, size: 0x8, addend: 0x0, symName: __ZNSt3__114__split_bufferIPNS_7__stateIcEERNS_9allocatorIS3_EEE21_ConstructTransactionC2B8ne180100EPPS3_m, symObjAddr: 0x236FC, symBinAddr: 0x100027158, symSize: 0x44 }
  - { offset: 0x397B4, size: 0x8, addend: 0x0, symName: __ZNSt3__19allocatorIPNS_7__stateIcEEE9constructB8ne180100IS3_JS3_EEEvPT_DpOT0_, symObjAddr: 0x23740, symBinAddr: 0x10002719C, symSize: 0x28 }
  - { offset: 0x3980A, size: 0x8, addend: 0x0, symName: __ZNSt3__117__compressed_pairIPPNS_7__stateIcEERNS_9allocatorIS3_EEE6secondB8ne180100Ev, symObjAddr: 0x23768, symBinAddr: 0x1000271C4, symSize: 0x28 }
  - { offset: 0x39830, size: 0x8, addend: 0x0, symName: __ZNSt3__122__compressed_pair_elemIRNS_9allocatorIPNS_7__stateIcEEEELi1ELb0EE5__getB8ne180100Ev, symObjAddr: 0x23790, symBinAddr: 0x1000271EC, symSize: 0x18 }
  - { offset: 0x39856, size: 0x8, addend: 0x0, symName: __ZNSt3__114__split_bufferIPNS_7__stateIcEERNS_9allocatorIS3_EEE21_ConstructTransactionD2B8ne180100Ev, symObjAddr: 0x237A8, symBinAddr: 0x100027204, symSize: 0x20 }
  - { offset: 0x39880, size: 0x8, addend: 0x0, symName: __ZNKSt3__113move_iteratorIPPNS_7__stateIcEEE4baseB8ne180100Ev, symObjAddr: 0x23840, symBinAddr: 0x10002729C, symSize: 0x18 }
  - { offset: 0x398A6, size: 0x8, addend: 0x0, symName: __ZNSt3__113move_iteratorIPPNS_7__stateIcEEEC2B8ne180100ES4_, symObjAddr: 0x23858, symBinAddr: 0x1000272B4, symSize: 0x20 }
  - { offset: 0x398DE, size: 0x8, addend: 0x0, symName: __ZNSt3__19allocatorIPNS_7__stateIcEEE9constructB8ne180100IS3_JRKS3_EEEvPT_DpOT0_, symObjAddr: 0x23878, symBinAddr: 0x1000272D4, symSize: 0x28 }
  - { offset: 0x39934, size: 0x8, addend: 0x0, symName: __ZNKSt3__114__split_bufferIPNS_7__stateIcEENS_9allocatorIS3_EEE9__end_capB8ne180100Ev, symObjAddr: 0x238A0, symBinAddr: 0x1000272FC, symSize: 0x28 }
  - { offset: 0x3995A, size: 0x8, addend: 0x0, symName: __ZNKSt3__117__compressed_pairIPPNS_7__stateIcEENS_9allocatorIS3_EEE5firstB8ne180100Ev, symObjAddr: 0x238C8, symBinAddr: 0x100027324, symSize: 0x24 }
  - { offset: 0x39980, size: 0x8, addend: 0x0, symName: __ZNKSt3__122__compressed_pair_elemIPPNS_7__stateIcEELi0ELb0EE5__getB8ne180100Ev, symObjAddr: 0x238EC, symBinAddr: 0x100027348, symSize: 0x14 }
  - { offset: 0x399B1, size: 0x8, addend: 0x0, symName: __ZNKSt3__123__move_backward_trivialclB8ne180100IPNS_7__stateIcEES4_TnNS_9enable_ifIXsr38__can_lower_move_assignment_to_memmoveIT_T0_EE5valueEiE4typeELi0EEENS_4pairIPS6_PS7_EESB_SB_SC_, symObjAddr: 0x23A7C, symBinAddr: 0x1000274D8, symSize: 0x48 }
  - { offset: 0x39A19, size: 0x8, addend: 0x0, symName: __ZNSt3__14pairIPPNS_7__stateIcEES4_EC1B8ne180100IRS4_S7_TnNS_9enable_ifIXclsr10_CheckArgsE17__enable_implicitIT_T0_EEEiE4typeELi0EEEOS9_OSA_, symObjAddr: 0x23B8C, symBinAddr: 0x1000275E8, symSize: 0x3C }
  - { offset: 0x39A77, size: 0x8, addend: 0x0, symName: __ZNSt3__14pairIPPNS_7__stateIcEES4_EC2B8ne180100IRS4_S7_TnNS_9enable_ifIXclsr10_CheckArgsE17__enable_implicitIT_T0_EEEiE4typeELi0EEEOS9_OSA_, symObjAddr: 0x23BC8, symBinAddr: 0x100027624, symSize: 0x34 }
  - { offset: 0x39AD5, size: 0x8, addend: 0x0, symName: __ZNSt3__117__compressed_pairIPPNS_7__stateIcEENS_9allocatorIS3_EEE6secondB8ne180100Ev, symObjAddr: 0x23BFC, symBinAddr: 0x100027658, symSize: 0x24 }
  - { offset: 0x39AFB, size: 0x8, addend: 0x0, symName: __ZNSt3__122__compressed_pair_elemINS_9allocatorIPNS_7__stateIcEEEELi1ELb1EE5__getB8ne180100Ev, symObjAddr: 0x23C20, symBinAddr: 0x10002767C, symSize: 0x14 }
  - { offset: 0x39B21, size: 0x8, addend: 0x0, symName: __ZNSt3__114__split_bufferIPNS_7__stateIcEERNS_9allocatorIS3_EEEC2EmmS6_, symObjAddr: 0x23C34, symBinAddr: 0x100027690, symSize: 0xCC }
  - { offset: 0x39B92, size: 0x8, addend: 0x0, symName: __ZNSt3__117__compressed_pairIPPNS_7__stateIcEERNS_9allocatorIS3_EEEC1B8ne180100IDnS7_EEOT_OT0_, symObjAddr: 0x23D00, symBinAddr: 0x10002775C, symSize: 0x3C }
  - { offset: 0x39BEA, size: 0x8, addend: 0x0, symName: __ZNSt3__117__compressed_pairIPPNS_7__stateIcEERNS_9allocatorIS3_EEEC2B8ne180100IDnS7_EEOT_OT0_, symObjAddr: 0x23D7C, symBinAddr: 0x1000277D8, symSize: 0x48 }
  - { offset: 0x39C42, size: 0x8, addend: 0x0, symName: __ZNSt3__122__compressed_pair_elemIRNS_9allocatorIPNS_7__stateIcEEEELi1ELb0EEC2B8ne180100IS6_vEEOT_, symObjAddr: 0x23DC4, symBinAddr: 0x100027820, symSize: 0x20 }
  - { offset: 0x39C84, size: 0x8, addend: 0x0, symName: __ZNSt3__19allocatorIPNS_7__stateIcEEE8allocateB8ne180100Em, symObjAddr: 0x23DE4, symBinAddr: 0x100027840, symSize: 0x54 }
  - { offset: 0x39CC3, size: 0x8, addend: 0x0, symName: __ZNSt3__116allocator_traitsINS_9allocatorIPNS_7__stateIcEEEEE8max_sizeB8ne180100IS5_vEEmRKS5_, symObjAddr: 0x23E38, symBinAddr: 0x100027894, symSize: 0x24 }
  - { offset: 0x39CF1, size: 0x8, addend: 0x0, symName: __ZNKSt3__19allocatorIPNS_7__stateIcEEE8max_sizeB8ne180100Ev, symObjAddr: 0x23E5C, symBinAddr: 0x1000278B8, symSize: 0x14 }
  - { offset: 0x39D17, size: 0x8, addend: 0x0, symName: __ZNSt3__122__allocator_destructorINS_9allocatorINS_7__stateIcEEEEEC2B8ne180100ERS4_m, symObjAddr: 0x23E70, symBinAddr: 0x1000278CC, symSize: 0x2C }
  - { offset: 0x39D5D, size: 0x8, addend: 0x0, symName: __ZNSt3__110unique_ptrIPNS_7__stateIcEENS_22__allocator_destructorINS_9allocatorIS2_EEEEEC2B8ne180100ILb1EvEES3_NS_16__dependent_typeINS_27__unique_ptr_deleter_sfinaeIS7_EEXT_EE20__good_rval_ref_typeE, symObjAddr: 0x23E9C, symBinAddr: 0x1000278F8, symSize: 0x48 }
  - { offset: 0x39DAE, size: 0x8, addend: 0x0, symName: __ZNSt3__117__compressed_pairIPNS_7__stateIcEENS_22__allocator_destructorINS_9allocatorIS2_EEEEEC1B8ne180100IRS3_S7_EEOT_OT0_, symObjAddr: 0x23EE4, symBinAddr: 0x100027940, symSize: 0x3C }
  - { offset: 0x39E06, size: 0x8, addend: 0x0, symName: __ZNSt3__117__compressed_pairIPNS_7__stateIcEENS_22__allocator_destructorINS_9allocatorIS2_EEEEEC2B8ne180100IRS3_S7_EEOT_OT0_, symObjAddr: 0x23F20, symBinAddr: 0x10002797C, symSize: 0x48 }
  - { offset: 0x39E5E, size: 0x8, addend: 0x0, symName: __ZNSt3__122__compressed_pair_elemIPNS_7__stateIcEELi0ELb0EEC2B8ne180100IRS3_vEEOT_, symObjAddr: 0x23F68, symBinAddr: 0x1000279C4, symSize: 0x24 }
  - { offset: 0x39EA0, size: 0x8, addend: 0x0, symName: __ZNSt3__122__compressed_pair_elemINS_22__allocator_destructorINS_9allocatorINS_7__stateIcEEEEEELi1ELb0EEC2B8ne180100IS6_vEEOT_, symObjAddr: 0x23F8C, symBinAddr: 0x1000279E8, symSize: 0x24 }
  - { offset: 0x39EE2, size: 0x8, addend: 0x0, symName: __ZNKSt3__117__compressed_pairIPNS_7__stateIcEENS_22__allocator_destructorINS_9allocatorIS2_EEEEE5firstB8ne180100Ev, symObjAddr: 0x23FB0, symBinAddr: 0x100027A0C, symSize: 0x24 }
  - { offset: 0x39F08, size: 0x8, addend: 0x0, symName: __ZNSt3__117__compressed_pairIPNS_7__stateIcEENS_22__allocator_destructorINS_9allocatorIS2_EEEEE5firstB8ne180100Ev, symObjAddr: 0x23FD4, symBinAddr: 0x100027A30, symSize: 0x24 }
  - { offset: 0x39F2E, size: 0x8, addend: 0x0, symName: __ZNSt3__117__compressed_pairIPPNS_7__stateIcEENS_9allocatorIS3_EEE5firstB8ne180100Ev, symObjAddr: 0x23FF8, symBinAddr: 0x100027A54, symSize: 0x24 }
  - { offset: 0x39F54, size: 0x8, addend: 0x0, symName: __ZNSt3__122__compressed_pair_elemIPPNS_7__stateIcEELi0ELb0EE5__getB8ne180100Ev, symObjAddr: 0x2401C, symBinAddr: 0x100027A78, symSize: 0x14 }
  - { offset: 0x39F7A, size: 0x8, addend: 0x0, symName: __ZNSt3__117__compressed_pairIPPNS_7__stateIcEERNS_9allocatorIS3_EEE5firstB8ne180100Ev, symObjAddr: 0x24030, symBinAddr: 0x100027A8C, symSize: 0x24 }
  - { offset: 0x39FA0, size: 0x8, addend: 0x0, symName: __ZNSt3__110unique_ptrIPNS_7__stateIcEENS_22__allocator_destructorINS_9allocatorIS2_EEEEED2B8ne180100Ev, symObjAddr: 0x24054, symBinAddr: 0x100027AB0, symSize: 0x30 }
  - { offset: 0x39FCA, size: 0x8, addend: 0x0, symName: __ZNSt3__110unique_ptrIPNS_7__stateIcEENS_22__allocator_destructorINS_9allocatorIS2_EEEEE5resetB8ne180100ES3_, symObjAddr: 0x24084, symBinAddr: 0x100027AE0, symSize: 0x70 }
  - { offset: 0x3A00E, size: 0x8, addend: 0x0, symName: __ZNSt3__117__compressed_pairIPNS_7__stateIcEENS_22__allocator_destructorINS_9allocatorIS2_EEEEE6secondB8ne180100Ev, symObjAddr: 0x240F4, symBinAddr: 0x100027B50, symSize: 0x28 }
  - { offset: 0x3A034, size: 0x8, addend: 0x0, symName: __ZNSt3__122__allocator_destructorINS_9allocatorINS_7__stateIcEEEEEclB8ne180100EPS3_, symObjAddr: 0x2411C, symBinAddr: 0x100027B78, symSize: 0x34 }
  - { offset: 0x3A068, size: 0x8, addend: 0x0, symName: __ZNSt3__122__compressed_pair_elemINS_22__allocator_destructorINS_9allocatorINS_7__stateIcEEEEEELi1ELb0EE5__getB8ne180100Ev, symObjAddr: 0x24150, symBinAddr: 0x100027BAC, symSize: 0x14 }
  - { offset: 0x3A08E, size: 0x8, addend: 0x0, symName: __ZNSt3__114__split_bufferIPNS_7__stateIcEERNS_9allocatorIS3_EEED2Ev, symObjAddr: 0x24164, symBinAddr: 0x100027BC0, symSize: 0x84 }
  - { offset: 0x3A0B8, size: 0x8, addend: 0x0, symName: __ZNSt3__114__split_bufferIPNS_7__stateIcEERNS_9allocatorIS3_EEE5clearB8ne180100Ev, symObjAddr: 0x241E8, symBinAddr: 0x100027C44, symSize: 0x28 }
  - { offset: 0x3A0DE, size: 0x8, addend: 0x0, symName: __ZNSt3__116allocator_traitsINS_9allocatorIPNS_7__stateIcEEEEE10deallocateB8ne180100ERS5_PS4_m, symObjAddr: 0x24210, symBinAddr: 0x100027C6C, symSize: 0x34 }
  - { offset: 0x3A120, size: 0x8, addend: 0x0, symName: __ZNKSt3__114__split_bufferIPNS_7__stateIcEERNS_9allocatorIS3_EEE8capacityB8ne180100Ev, symObjAddr: 0x24244, symBinAddr: 0x100027CA0, symSize: 0x40 }
  - { offset: 0x3A146, size: 0x8, addend: 0x0, symName: __ZNSt3__114__split_bufferIPNS_7__stateIcEERNS_9allocatorIS3_EEE17__destruct_at_endB8ne180100EPS3_, symObjAddr: 0x24284, symBinAddr: 0x100027CE0, symSize: 0x2C }
  - { offset: 0x3A17A, size: 0x8, addend: 0x0, symName: __ZNSt3__114__split_bufferIPNS_7__stateIcEERNS_9allocatorIS3_EEE17__destruct_at_endB8ne180100EPS3_NS_17integral_constantIbLb0EEE, symObjAddr: 0x242B0, symBinAddr: 0x100027D0C, symSize: 0x7C }
  - { offset: 0x3A1B8, size: 0x8, addend: 0x0, symName: __ZNSt3__116allocator_traitsINS_9allocatorIPNS_7__stateIcEEEEE7destroyB8ne180100IS4_vEEvRS5_PT_, symObjAddr: 0x2432C, symBinAddr: 0x100027D88, symSize: 0x2C }
  - { offset: 0x3A1F5, size: 0x8, addend: 0x0, symName: __ZNSt3__19allocatorIPNS_7__stateIcEEE7destroyB8ne180100EPS3_, symObjAddr: 0x24358, symBinAddr: 0x100027DB4, symSize: 0x14 }
  - { offset: 0x3A229, size: 0x8, addend: 0x0, symName: __ZNSt3__19allocatorIPNS_7__stateIcEEE10deallocateB8ne180100EPS3_m, symObjAddr: 0x2436C, symBinAddr: 0x100027DC8, symSize: 0x40 }
  - { offset: 0x3A26B, size: 0x8, addend: 0x0, symName: __ZNKSt3__114__split_bufferIPNS_7__stateIcEERNS_9allocatorIS3_EEE9__end_capB8ne180100Ev, symObjAddr: 0x243AC, symBinAddr: 0x100027E08, symSize: 0x28 }
  - { offset: 0x3A291, size: 0x8, addend: 0x0, symName: __ZNKSt3__117__compressed_pairIPPNS_7__stateIcEERNS_9allocatorIS3_EEE5firstB8ne180100Ev, symObjAddr: 0x243D4, symBinAddr: 0x100027E30, symSize: 0x24 }
  - { offset: 0x3A2B7, size: 0x8, addend: 0x0, symName: __ZNKSt3__114__split_bufferIPNS_7__stateIcEENS_9allocatorIS3_EEE5emptyB8ne180100Ev, symObjAddr: 0x243F8, symBinAddr: 0x100027E54, symSize: 0x24 }
  - { offset: 0x3A2DD, size: 0x8, addend: 0x0, symName: __ZNSt3__116__deque_iteratorINS_7__stateIcEEPS2_RS2_PS3_lLl42EEC1B8ne180100ES5_S3_, symObjAddr: 0x2441C, symBinAddr: 0x100027E78, symSize: 0x3C }
  - { offset: 0x3A325, size: 0x8, addend: 0x0, symName: __ZNSt3__116__deque_iteratorINS_7__stateIcEEPS2_RS2_PS3_lLl42EEC2B8ne180100ES5_S3_, symObjAddr: 0x24458, symBinAddr: 0x100027EB4, symSize: 0x2C }
  - { offset: 0x3A36D, size: 0x8, addend: 0x0, symName: __ZNSt3__117__compressed_pairImNS_9allocatorINS_7__stateIcEEEEE5firstB8ne180100Ev, symObjAddr: 0x24484, symBinAddr: 0x100027EE0, symSize: 0x24 }
  - { offset: 0x3A393, size: 0x8, addend: 0x0, symName: __ZNSt3__122__compressed_pair_elemImLi0ELb0EE5__getB8ne180100Ev, symObjAddr: 0x244A8, symBinAddr: 0x100027F04, symSize: 0x14 }
  - { offset: 0x3A3B9, size: 0x8, addend: 0x0, symName: __ZNKSt3__15dequeINS_7__stateIcEENS_9allocatorIS2_EEE22__annotate_shrink_backB8ne180100Emm, symObjAddr: 0x244BC, symBinAddr: 0x100027F18, symSize: 0x18 }
  - { offset: 0x3A3FD, size: 0x8, addend: 0x0, symName: __ZNSt3__15dequeINS_7__stateIcEENS_9allocatorIS2_EEE25__maybe_remove_back_spareB8ne180100Eb, symObjAddr: 0x244D4, symBinAddr: 0x100027F30, symSize: 0xD4 }
  - { offset: 0x3A432, size: 0x8, addend: 0x0, symName: __ZNKSt3__15dequeINS_7__stateIcEENS_9allocatorIS2_EEE19__back_spare_blocksB8ne180100Ev, symObjAddr: 0x245A8, symBinAddr: 0x100028004, symSize: 0x2C }
  - { offset: 0x3A458, size: 0x8, addend: 0x0, symName: __ZNSt3__114__split_bufferIPNS_7__stateIcEENS_9allocatorIS3_EEE4backB8ne180100Ev, symObjAddr: 0x245D4, symBinAddr: 0x100028030, symSize: 0x1C }
  - { offset: 0x3A47E, size: 0x8, addend: 0x0, symName: __ZNSt3__114__split_bufferIPNS_7__stateIcEENS_9allocatorIS3_EEE8pop_backB8ne180100Ev, symObjAddr: 0x245F0, symBinAddr: 0x10002804C, symSize: 0x2C }
  - { offset: 0x3A4A4, size: 0x8, addend: 0x0, symName: __ZNSt3__114__split_bufferIPNS_7__stateIcEENS_9allocatorIS3_EEE17__destruct_at_endB8ne180100EPS3_, symObjAddr: 0x2461C, symBinAddr: 0x100028078, symSize: 0x2C }
  - { offset: 0x3A4D8, size: 0x8, addend: 0x0, symName: __ZNSt3__114__split_bufferIPNS_7__stateIcEENS_9allocatorIS3_EEE17__destruct_at_endB8ne180100EPS3_NS_17integral_constantIbLb0EEE, symObjAddr: 0x24648, symBinAddr: 0x1000280A4, symSize: 0x7C }
  - { offset: 0x3A516, size: 0x8, addend: 0x0, symName: __ZNKSt3__15dequeINS_7__stateIcEENS_9allocatorIS2_EEE17__annotate_deleteB8ne180100Ev, symObjAddr: 0x246C4, symBinAddr: 0x100028120, symSize: 0x10 }
  - { offset: 0x3A53C, size: 0x8, addend: 0x0, symName: __ZNSt3__15dequeINS_7__stateIcEENS_9allocatorIS2_EEE5beginB8ne180100Ev, symObjAddr: 0x246D4, symBinAddr: 0x100028130, symSize: 0xB0 }
  - { offset: 0x3A571, size: 0x8, addend: 0x0, symName: __ZNSt3__116__deque_iteratorINS_7__stateIcEEPS2_RS2_PS3_lLl42EEppB8ne180100Ev, symObjAddr: 0x247B4, symBinAddr: 0x100028210, symSize: 0x6C }
  - { offset: 0x3A597, size: 0x8, addend: 0x0, symName: __ZNSt3__15dequeINS_7__stateIcEENS_9allocatorIS2_EEE20__add_front_capacityEv, symObjAddr: 0x2484C, symBinAddr: 0x1000282A8, symSize: 0x38C }
  - { offset: 0x3A64A, size: 0x8, addend: 0x0, symName: __ZNKSt3__15dequeINS_7__stateIcEENS_9allocatorIS2_EEE25__annotate_increase_frontB8ne180100Em, symObjAddr: 0x24BD8, symBinAddr: 0x100028634, symSize: 0x14 }
  - { offset: 0x3A67F, size: 0x8, addend: 0x0, symName: __ZNSt3__116__deque_iteratorINS_7__stateIcEEPS2_RS2_PS3_lLl42EEmmB8ne180100Ev, symObjAddr: 0x24BEC, symBinAddr: 0x100028648, symSize: 0x64 }
  - { offset: 0x3A6A5, size: 0x8, addend: 0x0, symName: __ZNSt3__114__split_bufferIPNS_7__stateIcEENS_9allocatorIS3_EEE10push_frontERKS3_, symObjAddr: 0x24C50, symBinAddr: 0x1000286AC, symSize: 0x254 }
  - { offset: 0x3A71B, size: 0x8, addend: 0x0, symName: __ZNKSt3__114__split_bufferIPNS_7__stateIcEENS_9allocatorIS3_EEE13__front_spareB8ne180100Ev, symObjAddr: 0x24EA4, symBinAddr: 0x100028900, symSize: 0x28 }
  - { offset: 0x3A741, size: 0x8, addend: 0x0, symName: __ZNSt3__114__split_bufferIPNS_7__stateIcEERNS_9allocatorIS3_EEE9push_backB8ne180100ERKS3_, symObjAddr: 0x24ECC, symBinAddr: 0x100028928, symSize: 0x258 }
  - { offset: 0x3A7B7, size: 0x8, addend: 0x0, symName: __ZNSt3__15dequeINS_7__stateIcEENS_9allocatorIS2_EEED2B8ne180100Ev, symObjAddr: 0x25124, symBinAddr: 0x100028B80, symSize: 0xA0 }
  - { offset: 0x3A80D, size: 0x8, addend: 0x0, symName: __ZNSt3__114__split_bufferIPNS_7__stateIcEENS_9allocatorIS3_EEED1Ev, symObjAddr: 0x251C4, symBinAddr: 0x100028C20, symSize: 0x2C }
  - { offset: 0x3A837, size: 0x8, addend: 0x0, symName: __ZNSt3__114__split_bufferIPNS_7__stateIcEENS_9allocatorIS3_EEED2Ev, symObjAddr: 0x251F0, symBinAddr: 0x100028C4C, symSize: 0x78 }
  - { offset: 0x3A861, size: 0x8, addend: 0x0, symName: __ZNSt3__114__split_bufferIPNS_7__stateIcEENS_9allocatorIS3_EEE5clearB8ne180100Ev, symObjAddr: 0x25268, symBinAddr: 0x100028CC4, symSize: 0x28 }
  - { offset: 0x3A887, size: 0x8, addend: 0x0, symName: __ZNSt3__17__stateIcEaSERKS1_, symObjAddr: 0x25290, symBinAddr: 0x100028CEC, symSize: 0x78 }
  - { offset: 0x3A8B9, size: 0x8, addend: 0x0, symName: __ZNSt3__16vectorINS_7__stateIcEENS_9allocatorIS2_EEE5clearB8ne180100Ev, symObjAddr: 0x25308, symBinAddr: 0x100028D64, symSize: 0x44 }
  - { offset: 0x3A8EE, size: 0x8, addend: 0x0, symName: __ZNSt3__16vectorINS_9sub_matchIPKcEENS_9allocatorIS4_EEEaSB8ne180100ERKS7_, symObjAddr: 0x2534C, symBinAddr: 0x100028DA8, symSize: 0x64 }
  - { offset: 0x3A925, size: 0x8, addend: 0x0, symName: __ZNSt3__16vectorINS_4pairImPKcEENS_9allocatorIS4_EEEaSB8ne180100ERKS7_, symObjAddr: 0x253B0, symBinAddr: 0x100028E0C, symSize: 0x64 }
  - { offset: 0x3A95C, size: 0x8, addend: 0x0, symName: __ZNSt3__16vectorINS_9sub_matchIPKcEENS_9allocatorIS4_EEE19__copy_assign_allocB8ne180100ERKS7_, symObjAddr: 0x25414, symBinAddr: 0x100028E70, symSize: 0x2C }
  - { offset: 0x3A991, size: 0x8, addend: 0x0, symName: __ZNSt3__16vectorINS_9sub_matchIPKcEENS_9allocatorIS4_EEE6assignIPS4_TnNS_9enable_ifIXaasr31__has_forward_iterator_categoryIT_EE5valuesr16is_constructibleIS4_NS_15iterator_traitsISB_E9referenceEEE5valueEiE4typeELi0EEEvSB_SB_, symObjAddr: 0x25440, symBinAddr: 0x100028E9C, symSize: 0x5C }
  - { offset: 0x3A9E4, size: 0x8, addend: 0x0, symName: __ZNSt3__16vectorINS_9sub_matchIPKcEENS_9allocatorIS4_EEE19__copy_assign_allocB8ne180100ERKS7_NS_17integral_constantIbLb0EEE, symObjAddr: 0x2549C, symBinAddr: 0x100028EF8, symSize: 0x14 }
  - { offset: 0x3AA20, size: 0x8, addend: 0x0, symName: __ZNSt3__16vectorINS_9sub_matchIPKcEENS_9allocatorIS4_EEE18__assign_with_sizeB8ne180100IPS4_S9_EEvT_T0_l, symObjAddr: 0x254B0, symBinAddr: 0x100028F0C, symSize: 0x15C }
  - { offset: 0x3AAD9, size: 0x8, addend: 0x0, symName: __ZNKSt3__111__copy_loopINS_17_ClassicAlgPolicyEEclB8ne180100IPNS_9sub_matchIPKcEES8_S8_EENS_4pairIT_T1_EESA_T0_SB_, symObjAddr: 0x25850, symBinAddr: 0x1000292AC, symSize: 0x84 }
  - { offset: 0x3AB44, size: 0x8, addend: 0x0, symName: __ZNSt3__16vectorINS_4pairImPKcEENS_9allocatorIS4_EEE19__copy_assign_allocB8ne180100ERKS7_, symObjAddr: 0x25928, symBinAddr: 0x100029384, symSize: 0x2C }
  - { offset: 0x3AB79, size: 0x8, addend: 0x0, symName: __ZNSt3__16vectorINS_4pairImPKcEENS_9allocatorIS4_EEE6assignIPS4_TnNS_9enable_ifIXaasr31__has_forward_iterator_categoryIT_EE5valuesr16is_constructibleIS4_NS_15iterator_traitsISB_E9referenceEEE5valueEiE4typeELi0EEEvSB_SB_, symObjAddr: 0x25954, symBinAddr: 0x1000293B0, symSize: 0x5C }
  - { offset: 0x3ABCC, size: 0x8, addend: 0x0, symName: __ZNSt3__16vectorINS_4pairImPKcEENS_9allocatorIS4_EEE19__copy_assign_allocB8ne180100ERKS7_NS_17integral_constantIbLb0EEE, symObjAddr: 0x259B0, symBinAddr: 0x10002940C, symSize: 0x14 }
  - { offset: 0x3AC08, size: 0x8, addend: 0x0, symName: __ZNSt3__16vectorINS_4pairImPKcEENS_9allocatorIS4_EEE18__assign_with_sizeB8ne180100IPS4_S9_EEvT_T0_l, symObjAddr: 0x259C4, symBinAddr: 0x100029420, symSize: 0x15C }
  - { offset: 0x3ACB6, size: 0x8, addend: 0x0, symName: __ZNSt3__16vectorINS_4pairImPKcEENS_9allocatorIS4_EEE13__vdeallocateEv, symObjAddr: 0x25C04, symBinAddr: 0x100029660, symSize: 0x8C }
  - { offset: 0x3ACDE, size: 0x8, addend: 0x0, symName: __ZNKSt3__111__copy_loopINS_17_ClassicAlgPolicyEEclB8ne180100IPNS_4pairImPKcEES8_S8_EENS4_IT_T1_EES9_T0_SA_, symObjAddr: 0x25DE8, symBinAddr: 0x100029844, symSize: 0x84 }
  - { offset: 0x3AD49, size: 0x8, addend: 0x0, symName: __ZNSt3__14pairImPKcEaSB8ne180100ERKS3_, symObjAddr: 0x25E98, symBinAddr: 0x1000298F4, symSize: 0x30 }
  - { offset: 0x3AD7E, size: 0x8, addend: 0x0, symName: __ZNSt3__16vectorINS_4pairImPKcEENS_9allocatorIS4_EEE5clearB8ne180100Ev, symObjAddr: 0x25EC8, symBinAddr: 0x100029924, symSize: 0x44 }
  - { offset: 0x3ADB3, size: 0x8, addend: 0x0, symName: __ZNKSt3__16vectorINS_9sub_matchIPKcEENS_9allocatorIS4_EEEixB8ne180100Em, symObjAddr: 0x25F34, symBinAddr: 0x100029990, symSize: 0x2C }
  - { offset: 0x3ADEA, size: 0x8, addend: 0x0, symName: __ZNKSt3__113match_resultsIPKcNS_9allocatorINS_9sub_matchIS2_EEEEE6prefixB8ne180100Ev, symObjAddr: 0x25F60, symBinAddr: 0x1000299BC, symSize: 0x18 }
  - { offset: 0x3AE10, size: 0x8, addend: 0x0, symName: __ZNSt3__16vectorINS_9sub_matchINS_11__wrap_iterIPKcEEEENS_9allocatorIS6_EEE6resizeEm, symObjAddr: 0x25F78, symBinAddr: 0x1000299D4, symSize: 0x94 }
  - { offset: 0x3AE54, size: 0x8, addend: 0x0, symName: __ZNKSt3__16vectorINS_9sub_matchINS_11__wrap_iterIPKcEEEENS_9allocatorIS6_EEE4sizeB8ne180100Ev, symObjAddr: 0x2600C, symBinAddr: 0x100029A68, symSize: 0x28 }
  - { offset: 0x3AE7A, size: 0x8, addend: 0x0, symName: __ZNSt3__16vectorINS_9sub_matchINS_11__wrap_iterIPKcEEEENS_9allocatorIS6_EEEixB8ne180100Em, symObjAddr: 0x26070, symBinAddr: 0x100029ACC, symSize: 0x2C }
  - { offset: 0x3AEAF, size: 0x8, addend: 0x0, symName: __ZNKSt3__113match_resultsIPKcNS_9allocatorINS_9sub_matchIS2_EEEEE6suffixB8ne180100Ev, symObjAddr: 0x2609C, symBinAddr: 0x100029AF8, symSize: 0x18 }
  - { offset: 0x3AED5, size: 0x8, addend: 0x0, symName: __ZNKSt3__113match_resultsIPKcNS_9allocatorINS_9sub_matchIS2_EEEEE5readyB8ne180100Ev, symObjAddr: 0x260B4, symBinAddr: 0x100029B10, symSize: 0x1C }
  - { offset: 0x3AEFB, size: 0x8, addend: 0x0, symName: __ZNSt3__16vectorINS_9sub_matchINS_11__wrap_iterIPKcEEEENS_9allocatorIS6_EEE8__appendEm, symObjAddr: 0x260D0, symBinAddr: 0x100029B2C, symSize: 0x104 }
  - { offset: 0x3AF54, size: 0x8, addend: 0x0, symName: __ZNSt3__16vectorINS_9sub_matchINS_11__wrap_iterIPKcEEEENS_9allocatorIS6_EEE17__destruct_at_endB8ne180100EPS6_, symObjAddr: 0x261D4, symBinAddr: 0x100029C30, symSize: 0x4C }
  - { offset: 0x3AF98, size: 0x8, addend: 0x0, symName: __ZNSt3__16vectorINS_9sub_matchINS_11__wrap_iterIPKcEEEENS_9allocatorIS6_EEE9__end_capB8ne180100Ev, symObjAddr: 0x26220, symBinAddr: 0x100029C7C, symSize: 0x28 }
  - { offset: 0x3AFBE, size: 0x8, addend: 0x0, symName: __ZNSt3__16vectorINS_9sub_matchINS_11__wrap_iterIPKcEEEENS_9allocatorIS6_EEE18__construct_at_endEm, symObjAddr: 0x26248, symBinAddr: 0x100029CA4, symSize: 0xC4 }
  - { offset: 0x3B02E, size: 0x8, addend: 0x0, symName: __ZNKSt3__16vectorINS_9sub_matchINS_11__wrap_iterIPKcEEEENS_9allocatorIS6_EEE11__recommendB8ne180100Em, symObjAddr: 0x2630C, symBinAddr: 0x100029D68, symSize: 0xAC }
  - { offset: 0x3B081, size: 0x8, addend: 0x0, symName: __ZNSt3__114__split_bufferINS_9sub_matchINS_11__wrap_iterIPKcEEEERNS_9allocatorIS6_EEEC1EmmS9_, symObjAddr: 0x263B8, symBinAddr: 0x100029E14, symSize: 0x44 }
  - { offset: 0x3B0D5, size: 0x8, addend: 0x0, symName: __ZNSt3__114__split_bufferINS_9sub_matchINS_11__wrap_iterIPKcEEEERNS_9allocatorIS6_EEE18__construct_at_endEm, symObjAddr: 0x263FC, symBinAddr: 0x100029E58, symSize: 0xB0 }
  - { offset: 0x3B117, size: 0x8, addend: 0x0, symName: __ZNSt3__114__split_bufferINS_9sub_matchINS_11__wrap_iterIPKcEEEERNS_9allocatorIS6_EEED1Ev, symObjAddr: 0x265BC, symBinAddr: 0x10002A018, symSize: 0x2C }
  - { offset: 0x3B141, size: 0x8, addend: 0x0, symName: __ZNSt3__117__compressed_pairIPNS_9sub_matchINS_11__wrap_iterIPKcEEEENS_9allocatorIS6_EEE5firstB8ne180100Ev, symObjAddr: 0x265E8, symBinAddr: 0x10002A044, symSize: 0x24 }
  - { offset: 0x3B167, size: 0x8, addend: 0x0, symName: __ZNSt3__122__compressed_pair_elemIPNS_9sub_matchINS_11__wrap_iterIPKcEEEELi0ELb0EE5__getB8ne180100Ev, symObjAddr: 0x2660C, symBinAddr: 0x10002A068, symSize: 0x14 }
  - { offset: 0x3B1A9, size: 0x8, addend: 0x0, symName: __ZNSt3__16vectorINS_9sub_matchINS_11__wrap_iterIPKcEEEENS_9allocatorIS6_EEE21_ConstructTransactionC1B8ne180100ERS9_m, symObjAddr: 0x26620, symBinAddr: 0x10002A07C, symSize: 0x3C }
  - { offset: 0x3B1F1, size: 0x8, addend: 0x0, symName: __ZNSt3__116allocator_traitsINS_9allocatorINS_9sub_matchINS_11__wrap_iterIPKcEEEEEEE9constructB8ne180100IS7_JEvEEvRS8_PT_DpOT0_, symObjAddr: 0x2665C, symBinAddr: 0x10002A0B8, symSize: 0x2C }
  - { offset: 0x3B233, size: 0x8, addend: 0x0, symName: __ZNSt3__16vectorINS_9sub_matchINS_11__wrap_iterIPKcEEEENS_9allocatorIS6_EEE21_ConstructTransactionD1B8ne180100Ev, symObjAddr: 0x26688, symBinAddr: 0x10002A0E4, symSize: 0x2C }
  - { offset: 0x3B25D, size: 0x8, addend: 0x0, symName: __ZNSt3__16vectorINS_9sub_matchINS_11__wrap_iterIPKcEEEENS_9allocatorIS6_EEE21_ConstructTransactionC2B8ne180100ERS9_m, symObjAddr: 0x266B4, symBinAddr: 0x10002A110, symSize: 0x4C }
  - { offset: 0x3B2A5, size: 0x8, addend: 0x0, symName: __ZNSt3__19allocatorINS_9sub_matchINS_11__wrap_iterIPKcEEEEE9constructB8ne180100IS6_JEEEvPT_DpOT0_, symObjAddr: 0x26700, symBinAddr: 0x10002A15C, symSize: 0x28 }
  - { offset: 0x3B2E7, size: 0x8, addend: 0x0, symName: __ZNSt3__16vectorINS_9sub_matchINS_11__wrap_iterIPKcEEEENS_9allocatorIS6_EEE21_ConstructTransactionD2B8ne180100Ev, symObjAddr: 0x26728, symBinAddr: 0x10002A184, symSize: 0x20 }
  - { offset: 0x3B311, size: 0x8, addend: 0x0, symName: __ZNKSt3__16vectorINS_9sub_matchINS_11__wrap_iterIPKcEEEENS_9allocatorIS6_EEE8max_sizeEv, symObjAddr: 0x26748, symBinAddr: 0x10002A1A4, symSize: 0x60 }
  - { offset: 0x3B337, size: 0x8, addend: 0x0, symName: __ZNKSt3__16vectorINS_9sub_matchINS_11__wrap_iterIPKcEEEENS_9allocatorIS6_EEE20__throw_length_errorB8ne180100Ev, symObjAddr: 0x267A8, symBinAddr: 0x10002A204, symSize: 0x1C }
  - { offset: 0x3B368, size: 0x8, addend: 0x0, symName: __ZNSt3__116allocator_traitsINS_9allocatorINS_9sub_matchINS_11__wrap_iterIPKcEEEEEEE8max_sizeB8ne180100IS8_vEEmRKS8_, symObjAddr: 0x267C4, symBinAddr: 0x10002A220, symSize: 0x24 }
  - { offset: 0x3B396, size: 0x8, addend: 0x0, symName: __ZNKSt3__16vectorINS_9sub_matchINS_11__wrap_iterIPKcEEEENS_9allocatorIS6_EEE7__allocB8ne180100Ev, symObjAddr: 0x267E8, symBinAddr: 0x10002A244, symSize: 0x28 }
  - { offset: 0x3B3BC, size: 0x8, addend: 0x0, symName: __ZNKSt3__19allocatorINS_9sub_matchINS_11__wrap_iterIPKcEEEEE8max_sizeB8ne180100Ev, symObjAddr: 0x26810, symBinAddr: 0x10002A26C, symSize: 0x18 }
  - { offset: 0x3B3E2, size: 0x8, addend: 0x0, symName: __ZNKSt3__117__compressed_pairIPNS_9sub_matchINS_11__wrap_iterIPKcEEEENS_9allocatorIS6_EEE6secondB8ne180100Ev, symObjAddr: 0x26828, symBinAddr: 0x10002A284, symSize: 0x24 }
  - { offset: 0x3B408, size: 0x8, addend: 0x0, symName: __ZNKSt3__122__compressed_pair_elemINS_9allocatorINS_9sub_matchINS_11__wrap_iterIPKcEEEEEELi1ELb1EE5__getB8ne180100Ev, symObjAddr: 0x2684C, symBinAddr: 0x10002A2A8, symSize: 0x14 }
  - { offset: 0x3B42E, size: 0x8, addend: 0x0, symName: __ZNSt3__114__split_bufferINS_9sub_matchINS_11__wrap_iterIPKcEEEERNS_9allocatorIS6_EEEC2EmmS9_, symObjAddr: 0x26860, symBinAddr: 0x10002A2BC, symSize: 0xD8 }
  - { offset: 0x3B49F, size: 0x8, addend: 0x0, symName: __ZNSt3__117__compressed_pairIPNS_9sub_matchINS_11__wrap_iterIPKcEEEERNS_9allocatorIS6_EEEC1B8ne180100IDnSA_EEOT_OT0_, symObjAddr: 0x26938, symBinAddr: 0x10002A394, symSize: 0x3C }
  - { offset: 0x3B4F7, size: 0x8, addend: 0x0, symName: __ZNSt3__114__split_bufferINS_9sub_matchINS_11__wrap_iterIPKcEEEERNS_9allocatorIS6_EEE7__allocB8ne180100Ev, symObjAddr: 0x269B4, symBinAddr: 0x10002A410, symSize: 0x28 }
  - { offset: 0x3B51D, size: 0x8, addend: 0x0, symName: __ZNSt3__114__split_bufferINS_9sub_matchINS_11__wrap_iterIPKcEEEERNS_9allocatorIS6_EEE9__end_capB8ne180100Ev, symObjAddr: 0x269DC, symBinAddr: 0x10002A438, symSize: 0x28 }
  - { offset: 0x3B543, size: 0x8, addend: 0x0, symName: __ZNSt3__117__compressed_pairIPNS_9sub_matchINS_11__wrap_iterIPKcEEEERNS_9allocatorIS6_EEEC2B8ne180100IDnSA_EEOT_OT0_, symObjAddr: 0x26A04, symBinAddr: 0x10002A460, symSize: 0x48 }
  - { offset: 0x3B59B, size: 0x8, addend: 0x0, symName: __ZNSt3__122__compressed_pair_elemIRNS_9allocatorINS_9sub_matchINS_11__wrap_iterIPKcEEEEEELi1ELb0EEC2B8ne180100IS9_vEEOT_, symObjAddr: 0x26A4C, symBinAddr: 0x10002A4A8, symSize: 0x20 }
  - { offset: 0x3B5DD, size: 0x8, addend: 0x0, symName: __ZNSt3__19allocatorINS_9sub_matchINS_11__wrap_iterIPKcEEEEE8allocateB8ne180100Em, symObjAddr: 0x26A6C, symBinAddr: 0x10002A4C8, symSize: 0x58 }
  - { offset: 0x3B611, size: 0x8, addend: 0x0, symName: __ZNSt3__117__compressed_pairIPNS_9sub_matchINS_11__wrap_iterIPKcEEEERNS_9allocatorIS6_EEE6secondB8ne180100Ev, symObjAddr: 0x26AC4, symBinAddr: 0x10002A520, symSize: 0x28 }
  - { offset: 0x3B637, size: 0x8, addend: 0x0, symName: __ZNSt3__122__compressed_pair_elemIRNS_9allocatorINS_9sub_matchINS_11__wrap_iterIPKcEEEEEELi1ELb0EE5__getB8ne180100Ev, symObjAddr: 0x26AEC, symBinAddr: 0x10002A548, symSize: 0x18 }
  - { offset: 0x3B65D, size: 0x8, addend: 0x0, symName: __ZNSt3__117__compressed_pairIPNS_9sub_matchINS_11__wrap_iterIPKcEEEERNS_9allocatorIS6_EEE5firstB8ne180100Ev, symObjAddr: 0x26B04, symBinAddr: 0x10002A560, symSize: 0x24 }
  - { offset: 0x3B68F, size: 0x8, addend: 0x0, symName: __ZNSt3__114__split_bufferINS_9sub_matchINS_11__wrap_iterIPKcEEEERNS_9allocatorIS6_EEE21_ConstructTransactionC1B8ne180100EPPS6_m, symObjAddr: 0x26B28, symBinAddr: 0x10002A584, symSize: 0x3C }
  - { offset: 0x3B6D5, size: 0x8, addend: 0x0, symName: __ZNSt3__114__split_bufferINS_9sub_matchINS_11__wrap_iterIPKcEEEERNS_9allocatorIS6_EEE21_ConstructTransactionD1B8ne180100Ev, symObjAddr: 0x26B64, symBinAddr: 0x10002A5C0, symSize: 0x2C }
  - { offset: 0x3B6FF, size: 0x8, addend: 0x0, symName: __ZNSt3__114__split_bufferINS_9sub_matchINS_11__wrap_iterIPKcEEEERNS_9allocatorIS6_EEE21_ConstructTransactionC2B8ne180100EPPS6_m, symObjAddr: 0x26B90, symBinAddr: 0x10002A5EC, symSize: 0x4C }
  - { offset: 0x3B745, size: 0x8, addend: 0x0, symName: __ZNSt3__114__split_bufferINS_9sub_matchINS_11__wrap_iterIPKcEEEERNS_9allocatorIS6_EEE21_ConstructTransactionD2B8ne180100Ev, symObjAddr: 0x26BDC, symBinAddr: 0x10002A638, symSize: 0x20 }
  - { offset: 0x3B76F, size: 0x8, addend: 0x0, symName: __ZNSt3__116reverse_iteratorIPNS_9sub_matchINS_11__wrap_iterIPKcEEEEEC1B8ne180100ES7_, symObjAddr: 0x26D28, symBinAddr: 0x10002A784, symSize: 0x34 }
  - { offset: 0x3B7A7, size: 0x8, addend: 0x0, symName: __ZNKSt3__116reverse_iteratorIPNS_9sub_matchINS_11__wrap_iterIPKcEEEEE4baseB8ne180100Ev, symObjAddr: 0x26D5C, symBinAddr: 0x10002A7B8, symSize: 0x18 }
  - { offset: 0x3B7CD, size: 0x8, addend: 0x0, symName: __ZNKSt3__16vectorINS_9sub_matchINS_11__wrap_iterIPKcEEEENS_9allocatorIS6_EEE14__annotate_newB8ne180100Em, symObjAddr: 0x26DB0, symBinAddr: 0x10002A80C, symSize: 0x14 }
  - { offset: 0x3B802, size: 0x8, addend: 0x0, symName: __ZNSt3__129_AllocatorDestroyRangeReverseINS_9allocatorINS_9sub_matchINS_11__wrap_iterIPKcEEEEEENS_16reverse_iteratorIPS7_EEEC1B8ne180100ERS8_RSB_SE_, symObjAddr: 0x26E10, symBinAddr: 0x10002A86C, symSize: 0x44 }
  - { offset: 0x3B85F, size: 0x8, addend: 0x0, symName: __ZNSt3__116allocator_traitsINS_9allocatorINS_9sub_matchINS_11__wrap_iterIPKcEEEEEEE9constructB8ne180100IS7_JS7_EvEEvRS8_PT_DpOT0_, symObjAddr: 0x26E98, symBinAddr: 0x10002A8F4, symSize: 0x34 }
  - { offset: 0x3B8B6, size: 0x8, addend: 0x0, symName: __ZNKSt3__116reverse_iteratorIPNS_9sub_matchINS_11__wrap_iterIPKcEEEEEdeB8ne180100Ev, symObjAddr: 0x26EF0, symBinAddr: 0x10002A94C, symSize: 0x28 }
  - { offset: 0x3B8EA, size: 0x8, addend: 0x0, symName: __ZNSt3__116reverse_iteratorIPNS_9sub_matchINS_11__wrap_iterIPKcEEEEEppB8ne180100Ev, symObjAddr: 0x26F18, symBinAddr: 0x10002A974, symSize: 0x20 }
  - { offset: 0x3B910, size: 0x8, addend: 0x0, symName: __ZNSt3__128__exception_guard_exceptionsINS_29_AllocatorDestroyRangeReverseINS_9allocatorINS_9sub_matchINS_11__wrap_iterIPKcEEEEEENS_16reverse_iteratorIPS8_EEEEE10__completeB8ne180100Ev, symObjAddr: 0x26F38, symBinAddr: 0x10002A994, symSize: 0x1C }
  - { offset: 0x3B936, size: 0x8, addend: 0x0, symName: __ZNSt3__128__exception_guard_exceptionsINS_29_AllocatorDestroyRangeReverseINS_9allocatorINS_9sub_matchINS_11__wrap_iterIPKcEEEEEENS_16reverse_iteratorIPS8_EEEEED1B8ne180100Ev, symObjAddr: 0x26F54, symBinAddr: 0x10002A9B0, symSize: 0x2C }
  - { offset: 0x3B960, size: 0x8, addend: 0x0, symName: __ZNSt3__128__exception_guard_exceptionsINS_29_AllocatorDestroyRangeReverseINS_9allocatorINS_9sub_matchINS_11__wrap_iterIPKcEEEEEENS_16reverse_iteratorIPS8_EEEEEC1B8ne180100ESD_, symObjAddr: 0x26F80, symBinAddr: 0x10002A9DC, symSize: 0x34 }
  - { offset: 0x3B999, size: 0x8, addend: 0x0, symName: __ZNSt3__128__exception_guard_exceptionsINS_29_AllocatorDestroyRangeReverseINS_9allocatorINS_9sub_matchINS_11__wrap_iterIPKcEEEEEENS_16reverse_iteratorIPS8_EEEEEC2B8ne180100ESD_, symObjAddr: 0x26FB4, symBinAddr: 0x10002AA10, symSize: 0x30 }
  - { offset: 0x3B9D2, size: 0x8, addend: 0x0, symName: __ZNSt3__129_AllocatorDestroyRangeReverseINS_9allocatorINS_9sub_matchINS_11__wrap_iterIPKcEEEEEENS_16reverse_iteratorIPS7_EEEC2B8ne180100ERS8_RSB_SE_, symObjAddr: 0x26FE4, symBinAddr: 0x10002AA40, symSize: 0x38 }
  - { offset: 0x3BA29, size: 0x8, addend: 0x0, symName: __ZNSt3__19allocatorINS_9sub_matchINS_11__wrap_iterIPKcEEEEE9constructB8ne180100IS6_JS6_EEEvPT_DpOT0_, symObjAddr: 0x2701C, symBinAddr: 0x10002AA78, symSize: 0x30 }
  - { offset: 0x3BA85, size: 0x8, addend: 0x0, symName: __ZNSt3__119__to_address_helperINS_16reverse_iteratorIPNS_9sub_matchINS_11__wrap_iterIPKcEEEEEEvE6__callB8ne180100ERKS9_, symObjAddr: 0x2704C, symBinAddr: 0x10002AAA8, symSize: 0x38 }
  - { offset: 0x3BAA8, size: 0x8, addend: 0x0, symName: __ZNKSt3__116reverse_iteratorIPNS_9sub_matchINS_11__wrap_iterIPKcEEEEEptB8ne180100Ev, symObjAddr: 0x27084, symBinAddr: 0x10002AAE0, symSize: 0x24 }
  - { offset: 0x3BACE, size: 0x8, addend: 0x0, symName: __ZNSt3__128__exception_guard_exceptionsINS_29_AllocatorDestroyRangeReverseINS_9allocatorINS_9sub_matchINS_11__wrap_iterIPKcEEEEEENS_16reverse_iteratorIPS8_EEEEED2B8ne180100Ev, symObjAddr: 0x270A8, symBinAddr: 0x10002AB04, symSize: 0x50 }
  - { offset: 0x3BAF8, size: 0x8, addend: 0x0, symName: __ZNKSt3__129_AllocatorDestroyRangeReverseINS_9allocatorINS_9sub_matchINS_11__wrap_iterIPKcEEEEEENS_16reverse_iteratorIPS7_EEEclB8ne180100Ev, symObjAddr: 0x270F8, symBinAddr: 0x10002AB54, symSize: 0xB0 }
  - { offset: 0x3BB1F, size: 0x8, addend: 0x0, symName: __ZNSt3__116reverse_iteratorINS0_IPNS_9sub_matchINS_11__wrap_iterIPKcEEEEEEEC1B8ne180100ES8_, symObjAddr: 0x27218, symBinAddr: 0x10002AC74, symSize: 0x3C }
  - { offset: 0x3BB57, size: 0x8, addend: 0x0, symName: __ZNSt3__116reverse_iteratorINS0_IPNS_9sub_matchINS_11__wrap_iterIPKcEEEEEEEppB8ne180100Ev, symObjAddr: 0x272D4, symBinAddr: 0x10002AD30, symSize: 0x30 }
  - { offset: 0x3BB7D, size: 0x8, addend: 0x0, symName: __ZNKSt3__116reverse_iteratorINS0_IPNS_9sub_matchINS_11__wrap_iterIPKcEEEEEEE4baseB8ne180100Ev, symObjAddr: 0x27304, symBinAddr: 0x10002AD60, symSize: 0x24 }
  - { offset: 0x3BBA9, size: 0x8, addend: 0x0, symName: __ZNSt3__119__to_address_helperINS_16reverse_iteratorINS1_IPNS_9sub_matchINS_11__wrap_iterIPKcEEEEEEEEvE6__callB8ne180100ERKSA_, symObjAddr: 0x27328, symBinAddr: 0x10002AD84, symSize: 0x38 }
  - { offset: 0x3BBCC, size: 0x8, addend: 0x0, symName: __ZNKSt3__116reverse_iteratorINS0_IPNS_9sub_matchINS_11__wrap_iterIPKcEEEEEEEptB8ne180100Ev, symObjAddr: 0x27360, symBinAddr: 0x10002ADBC, symSize: 0x24 }
  - { offset: 0x3BBF2, size: 0x8, addend: 0x0, symName: __ZNKSt3__116reverse_iteratorINS0_IPNS_9sub_matchINS_11__wrap_iterIPKcEEEEEEEdeB8ne180100Ev, symObjAddr: 0x27384, symBinAddr: 0x10002ADE0, symSize: 0x34 }
  - { offset: 0x3BC26, size: 0x8, addend: 0x0, symName: __ZNSt3__116reverse_iteratorIPNS_9sub_matchINS_11__wrap_iterIPKcEEEEEmmB8ne180100Ev, symObjAddr: 0x273B8, symBinAddr: 0x10002AE14, symSize: 0x20 }
  - { offset: 0x3BC4C, size: 0x8, addend: 0x0, symName: __ZNSt3__116reverse_iteratorINS0_IPNS_9sub_matchINS_11__wrap_iterIPKcEEEEEEEC2B8ne180100ES8_, symObjAddr: 0x273D8, symBinAddr: 0x10002AE34, symSize: 0x2C }
  - { offset: 0x3BC84, size: 0x8, addend: 0x0, symName: __ZNSt3__116reverse_iteratorIPNS_9sub_matchINS_11__wrap_iterIPKcEEEEEC2B8ne180100ES7_, symObjAddr: 0x27404, symBinAddr: 0x10002AE60, symSize: 0x28 }
  - { offset: 0x3BCBC, size: 0x8, addend: 0x0, symName: __ZNSt3__114__split_bufferINS_9sub_matchINS_11__wrap_iterIPKcEEEERNS_9allocatorIS6_EEED2Ev, symObjAddr: 0x2742C, symBinAddr: 0x10002AE88, symSize: 0x84 }
  - { offset: 0x3BCE6, size: 0x8, addend: 0x0, symName: __ZNSt3__114__split_bufferINS_9sub_matchINS_11__wrap_iterIPKcEEEERNS_9allocatorIS6_EEE5clearB8ne180100Ev, symObjAddr: 0x274B0, symBinAddr: 0x10002AF0C, symSize: 0x28 }
  - { offset: 0x3BD0C, size: 0x8, addend: 0x0, symName: __ZNKSt3__114__split_bufferINS_9sub_matchINS_11__wrap_iterIPKcEEEERNS_9allocatorIS6_EEE8capacityB8ne180100Ev, symObjAddr: 0x274D8, symBinAddr: 0x10002AF34, symSize: 0x40 }
  - { offset: 0x3BD32, size: 0x8, addend: 0x0, symName: __ZNSt3__114__split_bufferINS_9sub_matchINS_11__wrap_iterIPKcEEEERNS_9allocatorIS6_EEE17__destruct_at_endB8ne180100EPS6_, symObjAddr: 0x27518, symBinAddr: 0x10002AF74, symSize: 0x2C }
  - { offset: 0x3BD66, size: 0x8, addend: 0x0, symName: __ZNSt3__114__split_bufferINS_9sub_matchINS_11__wrap_iterIPKcEEEERNS_9allocatorIS6_EEE17__destruct_at_endB8ne180100EPS6_NS_17integral_constantIbLb0EEE, symObjAddr: 0x27544, symBinAddr: 0x10002AFA0, symSize: 0x7C }
  - { offset: 0x3BDA4, size: 0x8, addend: 0x0, symName: __ZNKSt3__114__split_bufferINS_9sub_matchINS_11__wrap_iterIPKcEEEERNS_9allocatorIS6_EEE9__end_capB8ne180100Ev, symObjAddr: 0x275C0, symBinAddr: 0x10002B01C, symSize: 0x28 }
  - { offset: 0x3BDCA, size: 0x8, addend: 0x0, symName: __ZNKSt3__117__compressed_pairIPNS_9sub_matchINS_11__wrap_iterIPKcEEEERNS_9allocatorIS6_EEE5firstB8ne180100Ev, symObjAddr: 0x275E8, symBinAddr: 0x10002B044, symSize: 0x24 }
  - { offset: 0x3BDF0, size: 0x8, addend: 0x0, symName: __ZNKSt3__16vectorINS_9sub_matchINS_11__wrap_iterIPKcEEEENS_9allocatorIS6_EEE17__annotate_shrinkB8ne180100Em, symObjAddr: 0x2760C, symBinAddr: 0x10002B068, symSize: 0x14 }
  - { offset: 0x3BE25, size: 0x8, addend: 0x0, symName: __ZNSt3__113match_resultsINS_11__wrap_iterIPKcEENS_9allocatorINS_9sub_matchIS4_EEEEED2Ev, symObjAddr: 0x27684, symBinAddr: 0x10002B0E0, symSize: 0x2C }
  - { offset: 0x3BE52, size: 0x8, addend: 0x0, symName: __ZNSt3__114regex_iteratorINS_11__wrap_iterIPKcEEcNS_12regex_traitsIcEEEC2Ev, symObjAddr: 0x276B0, symBinAddr: 0x10002B10C, symSize: 0x4C }
  - { offset: 0x3BE7C, size: 0x8, addend: 0x0, symName: __ZNKSt3__113match_resultsINS_11__wrap_iterIPKcEENS_9allocatorINS_9sub_matchIS4_EEEEE5emptyB8ne180100Ev, symObjAddr: 0x276FC, symBinAddr: 0x10002B158, symSize: 0x2C }
  - { offset: 0x3BEA2, size: 0x8, addend: 0x0, symName: __ZNKSt3__113match_resultsINS_11__wrap_iterIPKcEENS_9allocatorINS_9sub_matchIS4_EEEEEixB8ne180100Em, symObjAddr: 0x2775C, symBinAddr: 0x10002B1B8, symSize: 0x6C }
  - { offset: 0x3BED7, size: 0x8, addend: 0x0, symName: __ZNKSt3__113match_resultsINS_11__wrap_iterIPKcEENS_9allocatorINS_9sub_matchIS4_EEEEE4sizeB8ne180100Ev, symObjAddr: 0x277C8, symBinAddr: 0x10002B224, symSize: 0x24 }
  - { offset: 0x3BEFD, size: 0x8, addend: 0x0, symName: __ZNKSt3__19sub_matchINS_11__wrap_iterIPKcEEE7compareB8ne180100ERKS5_, symObjAddr: 0x277EC, symBinAddr: 0x10002B248, symSize: 0x8C }
  - { offset: 0x3BF32, size: 0x8, addend: 0x0, symName: __ZNKSt3__19sub_matchINS_11__wrap_iterIPKcEEE3strB8ne180100Ev, symObjAddr: 0x27878, symBinAddr: 0x10002B2D4, symSize: 0x6C }
  - { offset: 0x3BF58, size: 0x8, addend: 0x0, symName: __ZNSt3__112basic_stringIcNS_11char_traitsIcEENS_9allocatorIcEEEC1B8ne180100INS_11__wrap_iterIPKcEETnNS_9enable_ifIXsr29__has_input_iterator_categoryIT_EE5valueEiE4typeELi0EEESC_SC_, symObjAddr: 0x278E4, symBinAddr: 0x10002B340, symSize: 0x3C }
  - { offset: 0x3BFAF, size: 0x8, addend: 0x0, symName: __ZNSt3__112basic_stringIcNS_11char_traitsIcEENS_9allocatorIcEEEC2B8ne180100INS_11__wrap_iterIPKcEETnNS_9enable_ifIXsr29__has_input_iterator_categoryIT_EE5valueEiE4typeELi0EEESC_SC_, symObjAddr: 0x27920, symBinAddr: 0x10002B37C, symSize: 0x5C }
  - { offset: 0x3C006, size: 0x8, addend: 0x0, symName: __ZNSt3__112basic_stringIcNS_11char_traitsIcEENS_9allocatorIcEEE6__initINS_11__wrap_iterIPKcEETnNS_9enable_ifIXsr31__has_forward_iterator_categoryIT_EE5valueEiE4typeELi0EEEvSC_SC_, symObjAddr: 0x2797C, symBinAddr: 0x10002B3D8, symSize: 0x74 }
  - { offset: 0x3C068, size: 0x8, addend: 0x0, symName: __ZNSt3__112basic_stringIcNS_11char_traitsIcEENS_9allocatorIcEEE16__init_with_sizeB8ne180100INS_11__wrap_iterIPKcEESA_EEvT_T0_m, symObjAddr: 0x27A2C, symBinAddr: 0x10002B488, symSize: 0x154 }
  - { offset: 0x3C0F9, size: 0x8, addend: 0x0, symName: __ZNKSt3__111__wrap_iterIPKcEdeB8ne180100Ev, symObjAddr: 0x27BF0, symBinAddr: 0x10002B64C, symSize: 0x18 }
  - { offset: 0x3C11F, size: 0x8, addend: 0x0, symName: __ZNSt3__111__wrap_iterIPKcEppB8ne180100Ev, symObjAddr: 0x27C08, symBinAddr: 0x10002B664, symSize: 0x20 }
  - { offset: 0x3C145, size: 0x8, addend: 0x0, symName: __ZNKSt3__16vectorINS_9sub_matchINS_11__wrap_iterIPKcEEEENS_9allocatorIS6_EEEixB8ne180100Em, symObjAddr: 0x27C28, symBinAddr: 0x10002B684, symSize: 0x2C }
  - { offset: 0x3C197, size: 0x8, addend: 0x0, symName: __ZNKSt3__111__copy_loopINS_17_ClassicAlgPolicyEEclB8ne180100IPKcS5_NS_20back_insert_iteratorINS_12basic_stringIcNS_11char_traitsIcEENS_9allocatorIcEEEEEEEENS_4pairIT_T1_EESF_T0_SG_, symObjAddr: 0x27E64, symBinAddr: 0x10002B8C0, symSize: 0x90 }
  - { offset: 0x3C202, size: 0x8, addend: 0x0, symName: __ZNSt3__14pairIPKcS2_EC1B8ne180100IS2_S2_TnNS_9enable_ifIXclsr10_CheckArgsE17__enable_implicitIT_T0_EEEiE4typeELi0EEEOS6_OS7_, symObjAddr: 0x28028, symBinAddr: 0x10002BA84, symSize: 0x3C }
  - { offset: 0x3C260, size: 0x8, addend: 0x0, symName: __ZNSt3__14pairIPKcS2_EC2B8ne180100IS2_S2_TnNS_9enable_ifIXclsr10_CheckArgsE17__enable_implicitIT_T0_EEEiE4typeELi0EEEOS6_OS7_, symObjAddr: 0x28064, symBinAddr: 0x10002BAC0, symSize: 0x34 }
  - { offset: 0x3C2BE, size: 0x8, addend: 0x0, symName: __ZNSt3__120back_insert_iteratorINS_12basic_stringIcNS_11char_traitsIcEENS_9allocatorIcEEEEEdeB8ne180100Ev, symObjAddr: 0x28098, symBinAddr: 0x10002BAF4, symSize: 0x14 }
  - { offset: 0x3C2E4, size: 0x8, addend: 0x0, symName: __ZNSt3__120back_insert_iteratorINS_12basic_stringIcNS_11char_traitsIcEENS_9allocatorIcEEEEEaSB8ne180100ERKc, symObjAddr: 0x280AC, symBinAddr: 0x10002BB08, symSize: 0x3C }
  - { offset: 0x3C318, size: 0x8, addend: 0x0, symName: __ZNSt3__120back_insert_iteratorINS_12basic_stringIcNS_11char_traitsIcEENS_9allocatorIcEEEEEppB8ne180100Ev, symObjAddr: 0x280E8, symBinAddr: 0x10002BB44, symSize: 0x14 }
  - { offset: 0x3C344, size: 0x8, addend: 0x0, symName: __ZNSt3__14pairIPKcNS_20back_insert_iteratorINS_12basic_stringIcNS_11char_traitsIcEENS_9allocatorIcEEEEEEEC1B8ne180100IS2_SA_TnNS_9enable_ifIXclsr10_CheckArgsE17__enable_implicitIT_T0_EEEiE4typeELi0EEEOSE_OSF_, symObjAddr: 0x28134, symBinAddr: 0x10002BB90, symSize: 0x3C }
  - { offset: 0x3C3A2, size: 0x8, addend: 0x0, symName: __ZNSt3__14pairIPKcNS_20back_insert_iteratorINS_12basic_stringIcNS_11char_traitsIcEENS_9allocatorIcEEEEEEEC2B8ne180100IS2_SA_TnNS_9enable_ifIXclsr10_CheckArgsE17__enable_implicitIT_T0_EEEiE4typeELi0EEEOSE_OSF_, symObjAddr: 0x28170, symBinAddr: 0x10002BBCC, symSize: 0x34 }
  - { offset: 0x3C400, size: 0x8, addend: 0x0, symName: __ZNSt3__118__unwrap_iter_implINS_20back_insert_iteratorINS_12basic_stringIcNS_11char_traitsIcEENS_9allocatorIcEEEEEELb0EE8__unwrapB8ne180100ES8_, symObjAddr: 0x281A4, symBinAddr: 0x10002BC00, symSize: 0x1C }
  - { offset: 0x3C446, size: 0x8, addend: 0x0, symName: __ZNSt3__14pairINS_11__wrap_iterIPKcEENS_20back_insert_iteratorINS_12basic_stringIcNS_11char_traitsIcEENS_9allocatorIcEEEEEEEC1B8ne180100IS4_SC_TnNS_9enable_ifIXclsr10_CheckArgsE17__enable_implicitIT_T0_EEEiE4typeELi0EEEOSG_OSH_, symObjAddr: 0x281C0, symBinAddr: 0x10002BC1C, symSize: 0x3C }
  - { offset: 0x3C4A4, size: 0x8, addend: 0x0, symName: __ZNSt3__14pairINS_11__wrap_iterIPKcEENS_20back_insert_iteratorINS_12basic_stringIcNS_11char_traitsIcEENS_9allocatorIcEEEEEEEC2B8ne180100IS4_SC_TnNS_9enable_ifIXclsr10_CheckArgsE17__enable_implicitIT_T0_EEEiE4typeELi0EEEOSG_OSH_, symObjAddr: 0x281FC, symBinAddr: 0x10002BC58, symSize: 0x34 }
  - { offset: 0x3C502, size: 0x8, addend: 0x0, symName: __ZNSt3__118__unwrap_iter_implINS_20back_insert_iteratorINS_12basic_stringIcNS_11char_traitsIcEENS_9allocatorIcEEEEEELb0EE8__rewrapB8ne180100ES8_S8_, symObjAddr: 0x28230, symBinAddr: 0x10002BC8C, symSize: 0x20 }
  - { offset: 0x3C52F, size: 0x8, addend: 0x0, symName: __ZNSt3__19sub_matchINS_11__wrap_iterIPKcEEEC2B8ne180100Ev, symObjAddr: 0x28250, symBinAddr: 0x10002BCAC, symSize: 0x30 }
  - { offset: 0x3C559, size: 0x8, addend: 0x0, symName: __ZNSt3__14pairINS_11__wrap_iterIPKcEES4_EC2B8ne180100ILb1ETnNS_9enable_ifIXclsr13_CheckArgsDepIXT_EEE25__enable_implicit_defaultEEiE4typeELi0EEEv, symObjAddr: 0x28280, symBinAddr: 0x10002BCDC, symSize: 0x38 }
  - { offset: 0x3C593, size: 0x8, addend: 0x0, symName: __ZNSt3__14pairINS_11__wrap_iterIPKcEES4_EaSB8ne180100ERKS5_, symObjAddr: 0x282B8, symBinAddr: 0x10002BD14, symSize: 0x30 }
  - { offset: 0x3C5CE, size: 0x8, addend: 0x0, symName: __ZNSt3__113match_resultsINS_11__wrap_iterIPKcEENS_9allocatorINS_9sub_matchIS4_EEEEEaSEOS9_, symObjAddr: 0x282E8, symBinAddr: 0x10002BD44, symSize: 0x7C }
  - { offset: 0x3C600, size: 0x8, addend: 0x0, symName: __ZNSt3__16vectorINS_9sub_matchINS_11__wrap_iterIPKcEEEENS_9allocatorIS6_EEEaSB8ne180100EOS9_, symObjAddr: 0x28364, symBinAddr: 0x10002BDC0, symSize: 0x34 }
  - { offset: 0x3C635, size: 0x8, addend: 0x0, symName: __ZNSt3__19sub_matchINS_11__wrap_iterIPKcEEEaSEOS5_, symObjAddr: 0x28398, symBinAddr: 0x10002BDF4, symSize: 0x44 }
  - { offset: 0x3C667, size: 0x8, addend: 0x0, symName: __ZNSt3__16vectorINS_9sub_matchINS_11__wrap_iterIPKcEEEENS_9allocatorIS6_EEE13__move_assignERS9_NS_17integral_constantIbLb1EEE, symObjAddr: 0x283DC, symBinAddr: 0x10002BE38, symSize: 0x94 }
  - { offset: 0x3C6A7, size: 0x8, addend: 0x0, symName: __ZNSt3__16vectorINS_9sub_matchINS_11__wrap_iterIPKcEEEENS_9allocatorIS6_EEE13__vdeallocateEv, symObjAddr: 0x28470, symBinAddr: 0x10002BECC, symSize: 0x8C }
  - { offset: 0x3C6CD, size: 0x8, addend: 0x0, symName: __ZNSt3__16vectorINS_9sub_matchINS_11__wrap_iterIPKcEEEENS_9allocatorIS6_EEE19__move_assign_allocB8ne180100ERS9_, symObjAddr: 0x284FC, symBinAddr: 0x10002BF58, symSize: 0x2C }
  - { offset: 0x3C702, size: 0x8, addend: 0x0, symName: __ZNSt3__16vectorINS_9sub_matchINS_11__wrap_iterIPKcEEEENS_9allocatorIS6_EEE5clearB8ne180100Ev, symObjAddr: 0x28528, symBinAddr: 0x10002BF84, symSize: 0x44 }
  - { offset: 0x3C737, size: 0x8, addend: 0x0, symName: __ZNSt3__16vectorINS_9sub_matchINS_11__wrap_iterIPKcEEEENS_9allocatorIS6_EEE19__move_assign_allocB8ne180100ERS9_NS_17integral_constantIbLb1EEE, symObjAddr: 0x2856C, symBinAddr: 0x10002BFC8, symSize: 0x38 }
  - { offset: 0x3C777, size: 0x8, addend: 0x0, symName: __ZNSt3__14pairINS_11__wrap_iterIPKcEES4_EaSB8ne180100EOS5_, symObjAddr: 0x285A4, symBinAddr: 0x10002C000, symSize: 0x30 }
  - { offset: 0x3C7AC, size: 0x8, addend: 0x0, symName: __ZNSt3__114regex_iteratorINS_11__wrap_iterIPKcEEcNS_12regex_traitsIcEEED2Ev, symObjAddr: 0x285D4, symBinAddr: 0x10002C030, symSize: 0x30 }
  - { offset: 0x3C7D9, size: 0x8, addend: 0x0, symName: __ZNSt3__120back_insert_iteratorINS_12basic_stringIcNS_11char_traitsIcEENS_9allocatorIcEEEEEC1B8ne180100ERS6_, symObjAddr: 0x28604, symBinAddr: 0x10002C060, symSize: 0x34 }
  - { offset: 0x3C811, size: 0x8, addend: 0x0, symName: __ZNSt3__120back_insert_iteratorINS_12basic_stringIcNS_11char_traitsIcEENS_9allocatorIcEEEEEC2B8ne180100ERS6_, symObjAddr: 0x28638, symBinAddr: 0x10002C094, symSize: 0x20 }
  - { offset: 0x3C849, size: 0x8, addend: 0x0, symName: __ZNKSt3__112basic_stringIcNS_11char_traitsIcEENS_9allocatorIcEEE21__make_const_iteratorB8ne180100EPKc, symObjAddr: 0x28658, symBinAddr: 0x10002C0B4, symSize: 0x30 }
  - { offset: 0x3C8A1, size: 0x8, addend: 0x0, symName: __ZNKSt3__113basic_ostreamIcNS_11char_traitsIcEEE6sentrycvbB8ne180100Ev, symObjAddr: 0x28870, symBinAddr: 0x10002C2CC, symSize: 0x1C }
  - { offset: 0x3C8C7, size: 0x8, addend: 0x0, symName: __ZNSt3__119ostreambuf_iteratorIcNS_11char_traitsIcEEEC1B8ne180100ERNS_13basic_ostreamIcS2_EE, symObjAddr: 0x28AA0, symBinAddr: 0x10002C4FC, symSize: 0x34 }
  - { offset: 0x3C8FF, size: 0x8, addend: 0x0, symName: __ZNKSt3__18ios_base5flagsB8ne180100Ev, symObjAddr: 0x28AD4, symBinAddr: 0x10002C530, symSize: 0x18 }
  - { offset: 0x3C927, size: 0x8, addend: 0x0, symName: __ZNKSt3__19basic_iosIcNS_11char_traitsIcEEE4fillB8ne180100Ev, symObjAddr: 0x28AEC, symBinAddr: 0x10002C548, symSize: 0x64 }
  - { offset: 0x3C94F, size: 0x8, addend: 0x0, symName: __ZNKSt3__119ostreambuf_iteratorIcNS_11char_traitsIcEEE6failedB8ne180100Ev, symObjAddr: 0x28B50, symBinAddr: 0x10002C5AC, symSize: 0x20 }
  - { offset: 0x3C975, size: 0x8, addend: 0x0, symName: __ZNSt3__19basic_iosIcNS_11char_traitsIcEEE8setstateB8ne180100Ej, symObjAddr: 0x28B70, symBinAddr: 0x10002C5CC, symSize: 0x2C }
  - { offset: 0x3C9AA, size: 0x8, addend: 0x0, symName: __ZNKSt3__18ios_base5widthB8ne180100Ev, symObjAddr: 0x28B9C, symBinAddr: 0x10002C5F8, symSize: 0x18 }
  - { offset: 0x3C9D2, size: 0x8, addend: 0x0, symName: __ZNSt3__115basic_streambufIcNS_11char_traitsIcEEE5sputnB8ne180100EPKcl, symObjAddr: 0x28BB4, symBinAddr: 0x10002C610, symSize: 0x3C }
  - { offset: 0x3CA14, size: 0x8, addend: 0x0, symName: __ZNSt3__18ios_base5widthB8ne180100El, symObjAddr: 0x28BF0, symBinAddr: 0x10002C64C, symSize: 0x2C }
  - { offset: 0x3CA5A, size: 0x8, addend: 0x0, symName: __ZNSt3__119ostreambuf_iteratorIcNS_11char_traitsIcEEEC2B8ne180100ERNS_13basic_ostreamIcS2_EE, symObjAddr: 0x28C1C, symBinAddr: 0x10002C678, symSize: 0x54 }
  - { offset: 0x3CA92, size: 0x8, addend: 0x0, symName: __ZNKSt3__19basic_iosIcNS_11char_traitsIcEEE5rdbufB8ne180100Ev, symObjAddr: 0x28C70, symBinAddr: 0x10002C6CC, symSize: 0x24 }
  - { offset: 0x3CABA, size: 0x8, addend: 0x0, symName: __ZNKSt3__18ios_base5rdbufB8ne180100Ev, symObjAddr: 0x28C94, symBinAddr: 0x10002C6F0, symSize: 0x18 }
  - { offset: 0x3CAE0, size: 0x8, addend: 0x0, symName: __ZNSt3__111char_traitsIcE11eq_int_typeB8ne180100Eii, symObjAddr: 0x28CAC, symBinAddr: 0x10002C708, symSize: 0x24 }
  - { offset: 0x3CB13, size: 0x8, addend: 0x0, symName: __ZNSt3__111char_traitsIcE3eofB8ne180100Ev, symObjAddr: 0x28CD0, symBinAddr: 0x10002C72C, symSize: 0x8 }
  - { offset: 0x3CB27, size: 0x8, addend: 0x0, symName: __ZNKSt3__19basic_iosIcNS_11char_traitsIcEEE5widenB8ne180100Ec, symObjAddr: 0x28CD8, symBinAddr: 0x10002C734, symSize: 0x84 }
  - { offset: 0x3CB5E, size: 0x8, addend: 0x0, symName: __ZNKSt3__15ctypeIcE5widenB8ne180100Ec, symObjAddr: 0x28D5C, symBinAddr: 0x10002C7B8, symSize: 0x38 }
  - { offset: 0x3CB93, size: 0x8, addend: 0x0, symName: __ZNSt3__18ios_base8setstateB8ne180100Ej, symObjAddr: 0x28D94, symBinAddr: 0x10002C7F0, symSize: 0x34 }
  - { offset: 0x3CBCA, size: 0x8, addend: 0x0, symName: __ZNSt3__15arrayIiLm5EE4dataB8ne180100Ev, symObjAddr: 0x28DC8, symBinAddr: 0x10002C824, symSize: 0x14 }
...
