---
triple:          'arm64-apple-darwin'
binary-path:     './bin/SandBoxEx'
relocations:
  - { offset: 0x52, size: 0x8, addend: 0x0, symName: _global, symObjAddr: 0xA148, symBinAddr: 0x100010000, symSize: 0x0 }
  - { offset: 0x43AE, size: 0x8, addend: 0x0, symName: __ZNSt3__18__fill_nB8ne180100ILb1ENS_8__bitsetILm1ELm8EEEEEvNS_14__bit_iteratorIT0_Lb0ELi0EEENS4_9size_typeE, symObjAddr: 0x3CE4, symBinAddr: 0x100005270, symSize: 0x158 }
  - { offset: 0x4473, size: 0x8, addend: 0x0, symName: __ZNSt3__18__fill_nB8ne180100ILb0ENS_8__bitsetILm1ELm8EEEEEvNS_14__bit_iteratorIT0_Lb0ELi0EEENS4_9size_typeE, symObjAddr: 0x3E3C, symBinAddr: 0x1000053C8, symSize: 0x154 }
  - { offset: 0x7C9C, size: 0x8, addend: 0x0, symName: __ZNSt3__17advanceB8ne180100IPNS_6vectorIiNS_9allocatorIiEEEEllvEEvRT_T0_, symObjAddr: 0x7B00, symBinAddr: 0x10000908C, symSize: 0x38 }
  - { offset: 0x7D07, size: 0x8, addend: 0x0, symName: __ZNSt3__124__put_character_sequenceB8ne180100IcNS_11char_traitsIcEEEERNS_13basic_ostreamIT_T0_EES7_PKS4_m, symObjAddr: 0x8A24, symBinAddr: 0x100009FB0, symSize: 0x1E8 }
  - { offset: 0x9079, size: 0x8, addend: 0x0, symName: __ZNSt3__1lsB8ne180100INS_11char_traitsIcEEEERNS_13basic_ostreamIcT_EES6_PKc, symObjAddr: 0x370, symBinAddr: 0x1000018FC, symSize: 0x48 }
  - { offset: 0x90BF, size: 0x8, addend: 0x0, symName: __ZNSt3__1lsB8ne180100IcNS_11char_traitsIcEENS_9allocatorIcEEEERNS_13basic_ostreamIT_T0_EES9_RKNS_12basic_stringIS6_S7_T1_EE, symObjAddr: 0x428, symBinAddr: 0x1000019B4, symSize: 0x4C }
  - { offset: 0x9117, size: 0x8, addend: 0x0, symName: __ZNSt3__14endlB8ne180100IcNS_11char_traitsIcEEEERNS_13basic_ostreamIT_T0_EES7_, symObjAddr: 0x4A0, symBinAddr: 0x100001A2C, symSize: 0x58 }
  - { offset: 0x98C8, size: 0x8, addend: 0x0, symName: __ZNSt3__1lsB8ne180100IcNS_11char_traitsIcEELm32EEERNS_13basic_ostreamIT_T0_EES7_RKNS_6bitsetIXT1_EEE, symObjAddr: 0x5A4, symBinAddr: 0x100001B30, symSize: 0x158 }
  - { offset: 0x9921, size: 0x8, addend: 0x0, symName: __ZNSt3__110accumulateB8ne180100INS_11__wrap_iterIPiEEdEET0_T_S5_S4_, symObjAddr: 0xBE4, symBinAddr: 0x100002170, symSize: 0x7C }
  - { offset: 0x997B, size: 0x8, addend: 0x0, symName: '__ZNSt3__19transformB8ne180100INS_11__wrap_iterIPiEENS1_IPdEEZ17StandardDeviationNS_6vectorIiNS_9allocatorIiEEEEE3$_0EET0_T_SC_SB_T1_', symObjAddr: 0xD1C, symBinAddr: 0x1000022A8, symSize: 0x98 }
  - { offset: 0x99EC, size: 0x8, addend: 0x0, symName: __ZNSt3__113inner_productB8ne180100INS_11__wrap_iterIPdEES3_dEET1_T_S5_T0_S4_, symObjAddr: 0xDE4, symBinAddr: 0x100002370, symSize: 0x90 }
  - { offset: 0x9A5D, size: 0x8, addend: 0x0, symName: __ZNSt3__1rsB8ne180100IcNS_11char_traitsIcEENS_9allocatorIcEEEERNS_13basic_istreamIT_T0_EES9_RNS_12basic_stringIS6_S7_T1_EE, symObjAddr: 0x17AC, symBinAddr: 0x100002D38, symSize: 0x2F0 }
  - { offset: 0xA0D7, size: 0x8, addend: 0x0, symName: __ZNSt3__1neB8ne180100IPiEEbRKNS_11__wrap_iterIT_EES6_, symObjAddr: 0x1C4C, symBinAddr: 0x1000031D8, symSize: 0x30 }
  - { offset: 0xA11A, size: 0x8, addend: 0x0, symName: '__ZNSt3__18for_eachB8ne180100INS_11__wrap_iterIPiEEZ6LambdavE3$_0EET0_T_S6_S5_', symObjAddr: 0x2830, symBinAddr: 0x100003DBC, symSize: 0x5C }
  - { offset: 0xA174, size: 0x8, addend: 0x0, symName: '__ZNSt3__18for_eachB8ne180100INS_11__wrap_iterIPiEEZ6LambdavE3$_1EET0_T_S6_S5_', symObjAddr: 0x288C, symBinAddr: 0x100003E18, symSize: 0x5C }
  - { offset: 0xA1CE, size: 0x8, addend: 0x0, symName: __ZNSt3__15beginB8ne180100INS_6vectorIiNS_9allocatorIiEEEEEEDTcldtfp_5beginEERT_, symObjAddr: 0x28E8, symBinAddr: 0x100003E74, symSize: 0x2C }
  - { offset: 0xA203, size: 0x8, addend: 0x0, symName: __ZNSt3__13endB8ne180100INS_6vectorIiNS_9allocatorIiEEEEEEDTcldtfp_3endEERT_, symObjAddr: 0x2914, symBinAddr: 0x100003EA0, symSize: 0x2C }
  - { offset: 0xA238, size: 0x8, addend: 0x0, symName: __ZNSt3__18for_eachB8ne180100INS_11__wrap_iterIPiEEPFviEEET0_T_S7_S6_, symObjAddr: 0x2940, symBinAddr: 0x100003ECC, symSize: 0x6C }
  - { offset: 0xA292, size: 0x8, addend: 0x0, symName: __ZNSt3__18for_eachB8ne180100INS_11__wrap_iterIPiEE9PrintFuncEET0_T_S6_S5_, symObjAddr: 0x2A10, symBinAddr: 0x100003F9C, symSize: 0x5C }
  - { offset: 0xA2EC, size: 0x8, addend: 0x0, symName: '__ZNSt3__18for_eachB8ne180100INS_11__wrap_iterIPiEEZ6LambdavE3$_2EET0_T_S6_S5_', symObjAddr: 0x2A6C, symBinAddr: 0x100003FF8, symSize: 0x70 }
  - { offset: 0xA346, size: 0x8, addend: 0x0, symName: '__ZNSt3__18for_eachB8ne180100INS_11__wrap_iterIPiEEZ6LambdavE3$_3EET0_T_S6_S5_', symObjAddr: 0x2ADC, symBinAddr: 0x100004068, symSize: 0x6C }
  - { offset: 0xA3A0, size: 0x8, addend: 0x0, symName: '__ZNSt3__18for_eachB8ne180100INS_11__wrap_iterIPiEEZ6LambdavE3$_4EET0_T_S6_S5_', symObjAddr: 0x2B48, symBinAddr: 0x1000040D4, symSize: 0x74 }
  - { offset: 0xA3FA, size: 0x8, addend: 0x0, symName: '__ZNSt3__18for_eachB8ne180100INS_11__wrap_iterIPiEEZ6LambdavE3$_5EET0_T_S6_S5_', symObjAddr: 0x2BBC, symBinAddr: 0x100004148, symSize: 0x5C }
  - { offset: 0xA454, size: 0x8, addend: 0x0, symName: __ZNSt3__120__throw_out_of_rangeB8ne180100EPKc, symObjAddr: 0x349C, symBinAddr: 0x100004A28, symSize: 0x64 }
  - { offset: 0xA47C, size: 0x8, addend: 0x0, symName: __ZNSt3__13minB8ne180100ImEERKT_S3_S3_, symObjAddr: 0x3500, symBinAddr: 0x100004A8C, symSize: 0x2C }
  - { offset: 0xA4BF, size: 0x8, addend: 0x0, symName: __ZNSt3__13minB8ne180100ImNS_6__lessIvvEEEERKT_S5_S5_T0_, symObjAddr: 0x3814, symBinAddr: 0x100004DA0, symSize: 0x54 }
  - { offset: 0xA55E, size: 0x8, addend: 0x0, symName: __ZNSt3__124__throw_invalid_argumentB8ne180100EPKc, symObjAddr: 0x38F8, symBinAddr: 0x100004E84, symSize: 0x64 }
  - { offset: 0xA586, size: 0x8, addend: 0x0, symName: __ZNSt3__14fillB8ne180100INS_8__bitsetILm1ELm8EEEEEvNS_14__bit_iteratorIT_Lb0ELi0EEES5_b, symObjAddr: 0x39FC, symBinAddr: 0x100004F88, symSize: 0x64 }
  - { offset: 0xA5D5, size: 0x8, addend: 0x0, symName: __ZNSt3__16fill_nB8ne180100INS_8__bitsetILm1ELm8EEEEEvNS_14__bit_iteratorIT_Lb0ELi0EEENS4_9size_typeEb, symObjAddr: 0x3BE0, symBinAddr: 0x10000516C, symSize: 0x88 }
  - { offset: 0xA623, size: 0x8, addend: 0x0, symName: __ZNSt3__1miB8ne180100ERKNS_14__bit_iteratorINS_8__bitsetILm1ELm8EEELb0ELm0EEES5_, symObjAddr: 0x3C9C, symBinAddr: 0x100005228, symSize: 0x48 }
  - { offset: 0xA660, size: 0x8, addend: 0x0, symName: __ZNSt3__16fill_nB8ne180100IPmmmEET_S2_T0_RKT1_, symObjAddr: 0x3F90, symBinAddr: 0x10000551C, symSize: 0x44 }
  - { offset: 0xA6C3, size: 0x8, addend: 0x0, symName: __ZNSt3__112__to_addressB8ne180100ImEEPT_S2_, symObjAddr: 0x3FD4, symBinAddr: 0x100005560, symSize: 0x14 }
  - { offset: 0xA6F8, size: 0x8, addend: 0x0, symName: __ZNSt3__18__fill_nB8ne180100IPmmmEET_S2_T0_RKT1_, symObjAddr: 0x3FE8, symBinAddr: 0x100005574, symSize: 0x60 }
  - { offset: 0xA75B, size: 0x8, addend: 0x0, symName: __ZNSt3__121__convert_to_integralB8ne180100Em, symObjAddr: 0x4048, symBinAddr: 0x1000055D4, symSize: 0x14 }
  - { offset: 0xA787, size: 0x8, addend: 0x0, symName: __ZNSt3__112__to_addressB8ne180100IKcEEPT_S3_, symObjAddr: 0x40F4, symBinAddr: 0x100005680, symSize: 0x14 }
  - { offset: 0xA7EF, size: 0x8, addend: 0x0, symName: __ZNSt3__122__make_exception_guardB8ne180100INS_6vectorIdNS_9allocatorIdEEE16__destroy_vectorEEENS_28__exception_guard_exceptionsIT_EES7_, symObjAddr: 0x4490, symBinAddr: 0x100005A1C, symSize: 0x40 }
  - { offset: 0xA824, size: 0x8, addend: 0x0, symName: __ZNSt3__119__allocate_at_leastB8ne180100INS_9allocatorIdEEEEDaRT_m, symObjAddr: 0x4874, symBinAddr: 0x100005E00, symSize: 0x3C }
  - { offset: 0xAC3D, size: 0x8, addend: 0x0, symName: __ZNSt3__120__throw_length_errorB8ne180100EPKc, symObjAddr: 0x49D4, symBinAddr: 0x100005F60, symSize: 0x64 }
  - { offset: 0xAC65, size: 0x8, addend: 0x0, symName: __ZNSt3__117allocate_at_leastB8ne180100INS_9allocatorIdEEEENS_17allocation_resultINS_16allocator_traitsIT_E7pointerEEERS5_m, symObjAddr: 0x4AB0, symBinAddr: 0x10000603C, symSize: 0x3C }
  - { offset: 0xACA8, size: 0x8, addend: 0x0, symName: __ZNSt3__117__libcpp_allocateB8ne180100Emm, symObjAddr: 0x4BB4, symBinAddr: 0x100006140, symSize: 0x60 }
  - { offset: 0xAD02, size: 0x8, addend: 0x0, symName: __ZNSt3__124__is_overaligned_for_newB8ne180100Em, symObjAddr: 0x4C14, symBinAddr: 0x1000061A0, symSize: 0x1C }
  - { offset: 0xAD30, size: 0x8, addend: 0x0, symName: __ZNSt3__121__libcpp_operator_newB8ne180100IJmSt11align_val_tEEEPvDpT_, symObjAddr: 0x4C30, symBinAddr: 0x1000061BC, symSize: 0x2C }
  - { offset: 0xAD7D, size: 0x8, addend: 0x0, symName: __ZNSt3__121__libcpp_operator_newB8ne180100IJmEEEPvDpT_, symObjAddr: 0x4C5C, symBinAddr: 0x1000061E8, symSize: 0x24 }
  - { offset: 0xADB6, size: 0x8, addend: 0x0, symName: __ZNSt3__112__to_addressB8ne180100IdEEPT_S2_, symObjAddr: 0x4D54, symBinAddr: 0x1000062E0, symSize: 0x14 }
  - { offset: 0xADEB, size: 0x8, addend: 0x0, symName: __ZNSt3__114__construct_atB8ne180100IdJEPdEEPT_S3_DpOT0_, symObjAddr: 0x4DD8, symBinAddr: 0x100006364, symSize: 0x24 }
  - { offset: 0xAE4F, size: 0x8, addend: 0x0, symName: __ZNSt3__112construct_atB8ne180100IdJEPdEEPT_S3_DpOT0_, symObjAddr: 0x4DFC, symBinAddr: 0x100006388, symSize: 0x24 }
  - { offset: 0xAEAB, size: 0x8, addend: 0x0, symName: __ZNSt3__112__destroy_atB8ne180100IdTnNS_9enable_ifIXntsr8is_arrayIT_EE5valueEiE4typeELi0EEEvPS2_, symObjAddr: 0x5074, symBinAddr: 0x100006600, symSize: 0x10 }
  - { offset: 0xAEE2, size: 0x8, addend: 0x0, symName: __ZNSt3__119__libcpp_deallocateB8ne180100EPvmm, symObjAddr: 0x50C4, symBinAddr: 0x100006650, symSize: 0x60 }
  - { offset: 0xAF47, size: 0x8, addend: 0x0, symName: __ZNSt3__127__do_deallocate_handle_sizeB8ne180100IJSt11align_val_tEEEvPvmDpT_, symObjAddr: 0x5124, symBinAddr: 0x1000066B0, symSize: 0x30 }
  - { offset: 0xAF9A, size: 0x8, addend: 0x0, symName: __ZNSt3__127__do_deallocate_handle_sizeB8ne180100IJEEEvPvmDpT_, symObjAddr: 0x5154, symBinAddr: 0x1000066E0, symSize: 0x28 }
  - { offset: 0xAFD8, size: 0x8, addend: 0x0, symName: __ZNSt3__124__libcpp_operator_deleteB8ne180100IJPvSt11align_val_tEEEvDpT_, symObjAddr: 0x517C, symBinAddr: 0x100006708, symSize: 0x2C }
  - { offset: 0xB021, size: 0x8, addend: 0x0, symName: __ZNSt3__124__libcpp_operator_deleteB8ne180100IJPvEEEvDpT_, symObjAddr: 0x51A8, symBinAddr: 0x100006734, symSize: 0x24 }
  - { offset: 0xB056, size: 0x8, addend: 0x0, symName: __ZNSt3__1neB8ne180100IPdEEbRKNS_11__wrap_iterIT_EES6_, symObjAddr: 0x530C, symBinAddr: 0x100006898, symSize: 0x30 }
  - { offset: 0xB099, size: 0x8, addend: 0x0, symName: __ZNSt3__1eqB8ne180100IPdEEbRKNS_11__wrap_iterIT_EES6_, symObjAddr: 0x533C, symBinAddr: 0x1000068C8, symSize: 0x44 }
  - { offset: 0xB0DC, size: 0x8, addend: 0x0, symName: __ZNSt3__118__constexpr_strlenB8ne180100EPKc, symObjAddr: 0x569C, symBinAddr: 0x100006C28, symSize: 0x24 }
  - { offset: 0xB108, size: 0x8, addend: 0x0, symName: __ZNSt3__122__make_exception_guardB8ne180100INS_6vectorIiNS_9allocatorIiEEE16__destroy_vectorEEENS_28__exception_guard_exceptionsIT_EES7_, symObjAddr: 0x5818, symBinAddr: 0x100006DA4, symSize: 0x40 }
  - { offset: 0xB13D, size: 0x8, addend: 0x0, symName: __ZNSt3__119__allocate_at_leastB8ne180100INS_9allocatorIiEEEEDaRT_m, symObjAddr: 0x5C14, symBinAddr: 0x1000071A0, symSize: 0x3C }
  - { offset: 0xB180, size: 0x8, addend: 0x0, symName: __ZNSt3__117allocate_at_leastB8ne180100INS_9allocatorIiEEEENS_17allocation_resultINS_16allocator_traitsIT_E7pointerEEERS5_m, symObjAddr: 0x5D3C, symBinAddr: 0x1000072C8, symSize: 0x3C }
  - { offset: 0xB1C3, size: 0x8, addend: 0x0, symName: __ZNSt3__130__uninitialized_allocator_copyB8ne180100INS_9allocatorIiEEPKiS4_PiEET2_RT_T0_T1_S6_, symObjAddr: 0x5EB8, symBinAddr: 0x100007444, symSize: 0x80 }
  - { offset: 0xB260, size: 0x8, addend: 0x0, symName: __ZNSt3__114__unwrap_rangeB8ne180100IPKiS2_EEDaT_T0_, symObjAddr: 0x5FA8, symBinAddr: 0x100007534, symSize: 0x3C }
  - { offset: 0xB2AC, size: 0x8, addend: 0x0, symName: __ZNSt3__135__uninitialized_allocator_copy_implB8ne180100INS_9allocatorIiEEKiiiTnPNS_9enable_ifIXaaaaaasr31is_trivially_copy_constructibleIT1_EE5valuesr28is_trivially_copy_assignableIS5_EE5valuesr7is_sameIu14__remove_constIT0_Eu14__remove_constIT2_EEE5valuesr38__allocator_has_trivial_copy_constructIT_S5_EE5valueEvE4typeELPv0EEEPS8_RSA_PS6_SH_SF_, symObjAddr: 0x5FE4, symBinAddr: 0x100007570, symSize: 0x38 }
  - { offset: 0xB32D, size: 0x8, addend: 0x0, symName: __ZNSt3__113__unwrap_iterB8ne180100IPiNS_18__unwrap_iter_implIS1_Lb1EEETnNS_9enable_ifIXsr21is_copy_constructibleIT_EE5valueEiE4typeELi0EEEDTclsrT0_8__unwrapclsr3stdE7declvalIS5_EEEES5_, symObjAddr: 0x601C, symBinAddr: 0x1000075A8, symSize: 0x24 }
  - { offset: 0xB371, size: 0x8, addend: 0x0, symName: __ZNSt3__113__rewrap_iterB8ne180100IPiS1_NS_18__unwrap_iter_implIS1_Lb1EEEEET_S4_T0_, symObjAddr: 0x6040, symBinAddr: 0x1000075CC, symSize: 0x3C }
  - { offset: 0xB52F, size: 0x8, addend: 0x0, symName: __ZNSt3__113__unwrap_iterB8ne180100IPKiNS_18__unwrap_iter_implIS2_Lb1EEETnNS_9enable_ifIXsr21is_copy_constructibleIT_EE5valueEiE4typeELi0EEEDTclsrT0_8__unwrapclsr3stdE7declvalIS6_EEEES6_, symObjAddr: 0x60D4, symBinAddr: 0x100007660, symSize: 0x24 }
  - { offset: 0xB5C6, size: 0x8, addend: 0x0, symName: __ZNSt3__112__to_addressB8ne180100IKiEEPT_S3_, symObjAddr: 0x6158, symBinAddr: 0x1000076E4, symSize: 0x14 }
  - { offset: 0xB5FB, size: 0x8, addend: 0x0, symName: __ZNSt3__14copyB8ne180100IPKiPiEET0_T_S5_S4_, symObjAddr: 0x61A0, symBinAddr: 0x10000772C, symSize: 0x40 }
  - { offset: 0xB655, size: 0x8, addend: 0x0, symName: __ZNSt3__16__copyB8ne180100INS_17_ClassicAlgPolicyEPKiS3_PiEENS_4pairIT0_T2_EES6_T1_S7_, symObjAddr: 0x61E0, symBinAddr: 0x10000776C, symSize: 0x44 }
  - { offset: 0xB6C1, size: 0x8, addend: 0x0, symName: __ZNSt3__123__dispatch_copy_or_moveB8ne180100INS_17_ClassicAlgPolicyENS_11__copy_loopIS1_EENS_14__copy_trivialEPKiS6_PiEENS_4pairIT2_T4_EES9_T3_SA_, symObjAddr: 0x6224, symBinAddr: 0x1000077B0, symSize: 0x44 }
  - { offset: 0xB73F, size: 0x8, addend: 0x0, symName: __ZNSt3__121__unwrap_and_dispatchB8ne180100INS_10__overloadINS_11__copy_loopINS_17_ClassicAlgPolicyEEENS_14__copy_trivialEEEPKiS8_PiTnNS_9enable_ifIXsr12__can_rewrapIT0_T1_T2_EE5valueEiE4typeELi0EEENS_4pairISB_SD_EESB_SC_SD_, symObjAddr: 0x6268, symBinAddr: 0x1000077F4, symSize: 0xB4 }
  - { offset: 0xB99F, size: 0x8, addend: 0x0, symName: __ZNSt3__19make_pairB8ne180100IPKiPiEENS_4pairINS_18__unwrap_ref_decayIT_E4typeENS5_IT0_E4typeEEEOS6_OS9_, symObjAddr: 0x6364, symBinAddr: 0x1000078F0, symSize: 0x38 }
  - { offset: 0xB9EE, size: 0x8, addend: 0x0, symName: __ZNSt3__114__rewrap_rangeB8ne180100IPKiS2_S2_EET0_S3_T1_, symObjAddr: 0x639C, symBinAddr: 0x100007928, symSize: 0x2C }
  - { offset: 0xBA43, size: 0x8, addend: 0x0, symName: __ZNSt3__119__copy_trivial_implB8ne180100IKiiEENS_4pairIPT_PT0_EES4_S4_S6_, symObjAddr: 0x63C8, symBinAddr: 0x100007954, symSize: 0x80 }
  - { offset: 0xBAAB, size: 0x8, addend: 0x0, symName: __ZNSt3__119__constexpr_memmoveB8ne180100IiKiTnNS_9enable_ifIXsr23__is_always_bitcastableIT0_T_EE5valueEiE4typeELi0EEEPS4_S7_PS3_NS_15__element_countE, symObjAddr: 0x6448, symBinAddr: 0x1000079D4, symSize: 0x60 }
  - { offset: 0xBB19, size: 0x8, addend: 0x0, symName: __ZNSt3__19make_pairB8ne180100IRPKiPiEENS_4pairINS_18__unwrap_ref_decayIT_E4typeENS6_IT0_E4typeEEEOS7_OSA_, symObjAddr: 0x64A8, symBinAddr: 0x100007A34, symSize: 0x38 }
  - { offset: 0xBB68, size: 0x8, addend: 0x0, symName: __ZNSt3__113__rewrap_iterB8ne180100IPKiS2_NS_18__unwrap_iter_implIS2_Lb1EEEEET_S5_T0_, symObjAddr: 0x65EC, symBinAddr: 0x100007B78, symSize: 0x3C }
  - { offset: 0xBC10, size: 0x8, addend: 0x0, symName: __ZNSt3__112__to_addressB8ne180100IiEEPT_S2_, symObjAddr: 0x669C, symBinAddr: 0x100007C28, symSize: 0x14 }
  - { offset: 0xBC45, size: 0x8, addend: 0x0, symName: __ZNSt3__112__destroy_atB8ne180100IiTnNS_9enable_ifIXntsr8is_arrayIT_EE5valueEiE4typeELi0EEEvPS2_, symObjAddr: 0x6954, symBinAddr: 0x100007EE0, symSize: 0x10 }
  - { offset: 0xBC7C, size: 0x8, addend: 0x0, symName: __ZNSt3__122__make_exception_guardB8ne180100INS_6vectorINS1_IiNS_9allocatorIiEEEENS2_IS4_EEE16__destroy_vectorEEENS_28__exception_guard_exceptionsIT_EES9_, symObjAddr: 0x6B9C, symBinAddr: 0x100008128, symSize: 0x40 }
  - { offset: 0xBCB1, size: 0x8, addend: 0x0, symName: __ZNSt3__119__allocate_at_leastB8ne180100INS_9allocatorINS_6vectorIiNS1_IiEEEEEEEEDaRT_m, symObjAddr: 0x6FA8, symBinAddr: 0x100008534, symSize: 0x3C }
  - { offset: 0xBCF4, size: 0x8, addend: 0x0, symName: __ZNSt3__117allocate_at_leastB8ne180100INS_9allocatorINS_6vectorIiNS1_IiEEEEEEEENS_17allocation_resultINS_16allocator_traitsIT_E7pointerEEERS8_m, symObjAddr: 0x70D0, symBinAddr: 0x10000865C, symSize: 0x3C }
  - { offset: 0xBD37, size: 0x8, addend: 0x0, symName: __ZNSt3__130__uninitialized_allocator_copyB8ne180100INS_9allocatorINS_6vectorIiNS1_IiEEEEEEPKS4_S7_PS4_EET2_RT_T0_T1_S9_, symObjAddr: 0x7250, symBinAddr: 0x1000087DC, symSize: 0x80 }
  - { offset: 0xBDD4, size: 0x8, addend: 0x0, symName: __ZNSt3__114__unwrap_rangeB8ne180100IPKNS_6vectorIiNS_9allocatorIiEEEES6_EEDaT_T0_, symObjAddr: 0x7348, symBinAddr: 0x1000088D4, symSize: 0x3C }
  - { offset: 0xBE20, size: 0x8, addend: 0x0, symName: __ZNSt3__135__uninitialized_allocator_copy_implB8ne180100INS_9allocatorINS_6vectorIiNS1_IiEEEEEEPKS4_S7_PS4_EET2_RT_T0_T1_S9_, symObjAddr: 0x7384, symBinAddr: 0x100008910, symSize: 0xF0 }
  - { offset: 0xBEBE, size: 0x8, addend: 0x0, symName: __ZNSt3__113__unwrap_iterB8ne180100IPNS_6vectorIiNS_9allocatorIiEEEENS_18__unwrap_iter_implIS5_Lb1EEETnNS_9enable_ifIXsr21is_copy_constructibleIT_EE5valueEiE4typeELi0EEEDTclsrT0_8__unwrapclsr3stdE7declvalIS9_EEEES9_, symObjAddr: 0x7474, symBinAddr: 0x100008A00, symSize: 0x24 }
  - { offset: 0xBF02, size: 0x8, addend: 0x0, symName: __ZNSt3__113__rewrap_iterB8ne180100IPNS_6vectorIiNS_9allocatorIiEEEES5_NS_18__unwrap_iter_implIS5_Lb1EEEEET_S8_T0_, symObjAddr: 0x7498, symBinAddr: 0x100008A24, symSize: 0x3C }
  - { offset: 0xC0A6, size: 0x8, addend: 0x0, symName: __ZNSt3__113__unwrap_iterB8ne180100IPKNS_6vectorIiNS_9allocatorIiEEEENS_18__unwrap_iter_implIS6_Lb1EEETnNS_9enable_ifIXsr21is_copy_constructibleIT_EE5valueEiE4typeELi0EEEDTclsrT0_8__unwrapclsr3stdE7declvalISA_EEEESA_, symObjAddr: 0x752C, symBinAddr: 0x100008AB8, symSize: 0x24 }
  - { offset: 0xC13D, size: 0x8, addend: 0x0, symName: __ZNSt3__112__to_addressB8ne180100IKNS_6vectorIiNS_9allocatorIiEEEEEEPT_S7_, symObjAddr: 0x75B0, symBinAddr: 0x100008B3C, symSize: 0x14 }
  - { offset: 0xC172, size: 0x8, addend: 0x0, symName: __ZNSt3__122__make_exception_guardB8ne180100INS_29_AllocatorDestroyRangeReverseINS_9allocatorINS_6vectorIiNS2_IiEEEEEEPS5_EEEENS_28__exception_guard_exceptionsIT_EESA_, symObjAddr: 0x75F8, symBinAddr: 0x100008B84, symSize: 0x4C }
  - { offset: 0xC1A8, size: 0x8, addend: 0x0, symName: __ZNSt3__112__to_addressB8ne180100INS_6vectorIiNS_9allocatorIiEEEEEEPT_S6_, symObjAddr: 0x76B8, symBinAddr: 0x100008C44, symSize: 0x14 }
  - { offset: 0xC1DD, size: 0x8, addend: 0x0, symName: __ZNSt3__114__construct_atB8ne180100INS_6vectorIiNS_9allocatorIiEEEEJRKS4_EPS4_EEPT_S9_DpOT0_, symObjAddr: 0x77B0, symBinAddr: 0x100008D3C, symSize: 0x2C }
  - { offset: 0xC255, size: 0x8, addend: 0x0, symName: __ZNSt3__112construct_atB8ne180100INS_6vectorIiNS_9allocatorIiEEEEJRKS4_EPS4_EEPT_S9_DpOT0_, symObjAddr: 0x77DC, symBinAddr: 0x100008D68, symSize: 0x3C }
  - { offset: 0xC2C5, size: 0x8, addend: 0x0, symName: __ZNSt3__119__allocator_destroyB8ne180100INS_9allocatorINS_6vectorIiNS1_IiEEEEEENS_16reverse_iteratorIPS4_EES8_EEvRT_T0_T1_, symObjAddr: 0x78D0, symBinAddr: 0x100008E5C, symSize: 0x70 }
  - { offset: 0xC328, size: 0x8, addend: 0x0, symName: __ZNSt3__1neB8ne180100IPNS_6vectorIiNS_9allocatorIiEEEES5_EEbRKNS_16reverse_iteratorIT_EERKNS6_IT0_EEQrqXnecldtfp_4baseEcldtfp0_4baseERNS_14convertible_toIbEEE, symObjAddr: 0x7974, symBinAddr: 0x100008F00, symSize: 0x44 }
  - { offset: 0xC374, size: 0x8, addend: 0x0, symName: __ZNSt3__112__to_addressB8ne180100INS_16reverse_iteratorIPNS_6vectorIiNS_9allocatorIiEEEEEEvEEu7__decayIDTclsr19__to_address_helperIT_EE6__callclsr3stdE7declvalIRKS8_EEEEESA_, symObjAddr: 0x79E0, symBinAddr: 0x100008F6C, symSize: 0x24 }
  - { offset: 0xC3AA, size: 0x8, addend: 0x0, symName: __ZNSt3__112__destroy_atB8ne180100INS_6vectorIiNS_9allocatorIiEEEETnNS_9enable_ifIXntsr8is_arrayIT_EE5valueEiE4typeELi0EEEvPS6_, symObjAddr: 0x7A3C, symBinAddr: 0x100008FC8, symSize: 0x24 }
  - { offset: 0xC40A, size: 0x8, addend: 0x0, symName: __ZNSt3__14prevB8ne180100IPNS_6vectorIiNS_9allocatorIiEEEETnNS_9enable_ifIXsr29__has_input_iterator_categoryIT_EE5valueEiE4typeELi0EEES7_S7_NS_15iterator_traitsIS7_E15difference_typeE, symObjAddr: 0x7AC4, symBinAddr: 0x100009050, symSize: 0x3C }
  - { offset: 0xC453, size: 0x8, addend: 0x0, symName: __ZNSt3__121__convert_to_integralB8ne180100El, symObjAddr: 0x7B38, symBinAddr: 0x1000090C4, symSize: 0x14 }
  - { offset: 0xC47F, size: 0x8, addend: 0x0, symName: __ZNSt3__19__advanceB8ne180100IPNS_6vectorIiNS_9allocatorIiEEEEEEvRT_NS_15iterator_traitsIS6_E15difference_typeENS_26random_access_iterator_tagE, symObjAddr: 0x7B4C, symBinAddr: 0x1000090D8, symSize: 0x30 }
  - { offset: 0xC51B, size: 0x8, addend: 0x0, symName: __ZNSt3__1eqB8ne180100IPiEEbRKNS_11__wrap_iterIT_EES6_, symObjAddr: 0x7EF0, symBinAddr: 0x10000947C, symSize: 0x44 }
  - { offset: 0xC55E, size: 0x8, addend: 0x0, symName: __ZNSt3__130__uninitialized_allocator_copyB8ne180100INS_9allocatorIiEEPiS3_S3_EET2_RT_T0_T1_S4_, symObjAddr: 0x81C8, symBinAddr: 0x100009754, symSize: 0x80 }
  - { offset: 0xC5FB, size: 0x8, addend: 0x0, symName: __ZNSt3__114__unwrap_rangeB8ne180100IPiS1_EEDaT_T0_, symObjAddr: 0x8248, symBinAddr: 0x1000097D4, symSize: 0x3C }
  - { offset: 0xC647, size: 0x8, addend: 0x0, symName: __ZNSt3__135__uninitialized_allocator_copy_implB8ne180100INS_9allocatorIiEEiiiTnPNS_9enable_ifIXaaaaaasr31is_trivially_copy_constructibleIT1_EE5valuesr28is_trivially_copy_assignableIS4_EE5valuesr7is_sameIu14__remove_constIT0_Eu14__remove_constIT2_EEE5valuesr38__allocator_has_trivial_copy_constructIT_S4_EE5valueEvE4typeELPv0EEEPS7_RS9_PS5_SG_SE_, symObjAddr: 0x8284, symBinAddr: 0x100009810, symSize: 0x38 }
  - { offset: 0xC860, size: 0x8, addend: 0x0, symName: __ZNSt3__14copyB8ne180100IPiS1_EET0_T_S3_S2_, symObjAddr: 0x8384, symBinAddr: 0x100009910, symSize: 0x40 }
  - { offset: 0xC8BA, size: 0x8, addend: 0x0, symName: __ZNSt3__16__copyB8ne180100INS_17_ClassicAlgPolicyEPiS2_S2_EENS_4pairIT0_T2_EES4_T1_S5_, symObjAddr: 0x83C4, symBinAddr: 0x100009950, symSize: 0x44 }
  - { offset: 0xC926, size: 0x8, addend: 0x0, symName: __ZNSt3__123__dispatch_copy_or_moveB8ne180100INS_17_ClassicAlgPolicyENS_11__copy_loopIS1_EENS_14__copy_trivialEPiS5_S5_EENS_4pairIT2_T4_EES7_T3_S8_, symObjAddr: 0x8408, symBinAddr: 0x100009994, symSize: 0x44 }
  - { offset: 0xC9A4, size: 0x8, addend: 0x0, symName: __ZNSt3__121__unwrap_and_dispatchB8ne180100INS_10__overloadINS_11__copy_loopINS_17_ClassicAlgPolicyEEENS_14__copy_trivialEEEPiS7_S7_TnNS_9enable_ifIXsr12__can_rewrapIT0_T1_T2_EE5valueEiE4typeELi0EEENS_4pairIS9_SB_EES9_SA_SB_, symObjAddr: 0x844C, symBinAddr: 0x1000099D8, symSize: 0xB4 }
  - { offset: 0xCA32, size: 0x8, addend: 0x0, symName: __ZNSt3__19make_pairB8ne180100IPiS1_EENS_4pairINS_18__unwrap_ref_decayIT_E4typeENS3_IT0_E4typeEEEOS4_OS7_, symObjAddr: 0x8548, symBinAddr: 0x100009AD4, symSize: 0x38 }
  - { offset: 0xCA81, size: 0x8, addend: 0x0, symName: __ZNSt3__114__rewrap_rangeB8ne180100IPiS1_S1_EET0_S2_T1_, symObjAddr: 0x8580, symBinAddr: 0x100009B0C, symSize: 0x2C }
  - { offset: 0xCAD6, size: 0x8, addend: 0x0, symName: __ZNSt3__119__copy_trivial_implB8ne180100IiiEENS_4pairIPT_PT0_EES3_S3_S5_, symObjAddr: 0x85AC, symBinAddr: 0x100009B38, symSize: 0x80 }
  - { offset: 0xCB3E, size: 0x8, addend: 0x0, symName: __ZNSt3__119__constexpr_memmoveB8ne180100IiiTnNS_9enable_ifIXsr23__is_always_bitcastableIT0_T_EE5valueEiE4typeELi0EEEPS3_S6_PS2_NS_15__element_countE, symObjAddr: 0x862C, symBinAddr: 0x100009BB8, symSize: 0x60 }
  - { offset: 0xCBAC, size: 0x8, addend: 0x0, symName: __ZNSt3__19make_pairB8ne180100IRPiS1_EENS_4pairINS_18__unwrap_ref_decayIT_E4typeENS4_IT0_E4typeEEEOS5_OS8_, symObjAddr: 0x868C, symBinAddr: 0x100009C18, symSize: 0x38 }
  - { offset: 0xCBFB, size: 0x8, addend: 0x0, symName: __ZNSt3__116__pad_and_outputB8ne180100IcNS_11char_traitsIcEEEENS_19ostreambuf_iteratorIT_T0_EES6_PKS4_S8_S8_RNS_8ios_baseES4_, symObjAddr: 0x8C28, symBinAddr: 0x10000A1B4, symSize: 0x214 }
  - { offset: 0xCCCA, size: 0x8, addend: 0x0, symName: __ZNSt3__112__to_addressB8ne180100IcEEPT_S2_, symObjAddr: 0x8FE0, symBinAddr: 0x10000A56C, symSize: 0x14 }
  - { offset: 0xCCFF, size: 0x8, addend: 0x0, symName: __ZNSt3__19use_facetB8ne180100INS_5ctypeIcEEEERKT_RKNS_6localeE, symObjAddr: 0x9134, symBinAddr: 0x10000A6C0, symSize: 0x2C }
  - { offset: 0xE8DA, size: 0x8, addend: 0x0, symName: __ZSt28__throw_bad_array_new_lengthB8ne180100v, symObjAddr: 0x4B80, symBinAddr: 0x10000610C, symSize: 0x34 }
  - { offset: 0xF284, size: 0x8, addend: 0x0, symName: __Z13FloatToBinaryf, symObjAddr: 0x0, symBinAddr: 0x10000158C, symSize: 0x370 }
  - { offset: 0xF35B, size: 0x8, addend: 0x0, symName: __ZNSt3__16bitsetILm8EEC1B8ne180100Ey, symObjAddr: 0x3B8, symBinAddr: 0x100001944, symSize: 0x34 }
  - { offset: 0xF394, size: 0x8, addend: 0x0, symName: __ZNKSt3__16bitsetILm8EE9to_stringB8ne180100Ecc, symObjAddr: 0x3EC, symBinAddr: 0x100001978, symSize: 0x3C }
  - { offset: 0xF3D8, size: 0x8, addend: 0x0, symName: __ZNSt3__113basic_ostreamIcNS_11char_traitsIcEEElsB8ne180100EPFRS3_S4_E, symObjAddr: 0x474, symBinAddr: 0x100001A00, symSize: 0x2C }
  - { offset: 0xF40C, size: 0x8, addend: 0x0, symName: __ZNSt3__16bitsetILm8EEC1B8ne180100IcNS_11char_traitsIcEENS_9allocatorIcEEEERKNS_12basic_stringIT_T0_T1_EENSB_9size_typeESE_S8_S8_, symObjAddr: 0x4F8, symBinAddr: 0x100001A84, symSize: 0x54 }
  - { offset: 0xF49C, size: 0x8, addend: 0x0, symName: __ZNKSt3__16bitsetILm8EE8to_ulongB8ne180100Ev, symObjAddr: 0x54C, symBinAddr: 0x100001AD8, symSize: 0x24 }
  - { offset: 0xF528, size: 0x8, addend: 0x0, symName: __ZNSt3__16bitsetILm32EEC1B8ne180100Ey, symObjAddr: 0x570, symBinAddr: 0x100001AFC, symSize: 0x34 }
  - { offset: 0xF561, size: 0x8, addend: 0x0, symName: __ZNSt3__16bitsetILm32EEixB8ne180100Em, symObjAddr: 0x6FC, symBinAddr: 0x100001C88, symSize: 0x3C }
  - { offset: 0xF596, size: 0x8, addend: 0x0, symName: __ZNKSt3__115__bit_referenceINS_8__bitsetILm1ELm32EEELb1EEcvbB8ne180100Ev, symObjAddr: 0x738, symBinAddr: 0x100001CC4, symSize: 0x28 }
  - { offset: 0xF5BB, size: 0x8, addend: 0x0, symName: __Z13NewInitializev, symObjAddr: 0x760, symBinAddr: 0x100001CEC, symSize: 0x1B4 }
  - { offset: 0xF6E0, size: 0x8, addend: 0x0, symName: __ZNKSt9type_info4nameB8ne180100Ev, symObjAddr: 0x914, symBinAddr: 0x100001EA0, symSize: 0x24 }
  - { offset: 0xF724, size: 0x8, addend: 0x0, symName: __Z17StandardDeviationNSt3__16vectorIiNS_9allocatorIiEEEE, symObjAddr: 0x938, symBinAddr: 0x100001EC4, symSize: 0x2AC }
  - { offset: 0xF7C2, size: 0x8, addend: 0x0, symName: __ZNSt3__16vectorIiNS_9allocatorIiEEE5beginB8ne180100Ev, symObjAddr: 0xC60, symBinAddr: 0x1000021EC, symSize: 0x30 }
  - { offset: 0xF7E8, size: 0x8, addend: 0x0, symName: __ZNSt3__16vectorIiNS_9allocatorIiEEE3endB8ne180100Ev, symObjAddr: 0xC90, symBinAddr: 0x10000221C, symSize: 0x30 }
  - { offset: 0xF80E, size: 0x8, addend: 0x0, symName: __ZNKSt3__16vectorIiNS_9allocatorIiEEE4sizeB8ne180100Ev, symObjAddr: 0xCC0, symBinAddr: 0x10000224C, symSize: 0x28 }
  - { offset: 0xF834, size: 0x8, addend: 0x0, symName: __ZNSt3__16vectorIdNS_9allocatorIdEEEC1Em, symObjAddr: 0xCE8, symBinAddr: 0x100002274, symSize: 0x34 }
  - { offset: 0xF86D, size: 0x8, addend: 0x0, symName: __ZNSt3__16vectorIdNS_9allocatorIdEEE5beginB8ne180100Ev, symObjAddr: 0xDB4, symBinAddr: 0x100002340, symSize: 0x30 }
  - { offset: 0xF893, size: 0x8, addend: 0x0, symName: __ZNSt3__16vectorIdNS_9allocatorIdEEE3endB8ne180100Ev, symObjAddr: 0xE74, symBinAddr: 0x100002400, symSize: 0x30 }
  - { offset: 0xF8B9, size: 0x8, addend: 0x0, symName: __ZNSt3__18ios_base9precisionB8ne180100El, symObjAddr: 0xEA4, symBinAddr: 0x100002430, symSize: 0x2C }
  - { offset: 0xF8FF, size: 0x8, addend: 0x0, symName: __ZNSt3__16vectorIdNS_9allocatorIdEEED1B8ne180100Ev, symObjAddr: 0xED0, symBinAddr: 0x10000245C, symSize: 0x2C }
  - { offset: 0xF928, size: 0x8, addend: 0x0, symName: __Z5Arrayv, symObjAddr: 0xEFC, symBinAddr: 0x100002488, symSize: 0x884 }
  - { offset: 0xFA32, size: 0x8, addend: 0x0, symName: __ZNSt3__112basic_stringIcNS_11char_traitsIcEENS_9allocatorIcEEEC1B8ne180100Ev, symObjAddr: 0x1780, symBinAddr: 0x100002D0C, symSize: 0x2C }
  - { offset: 0xFAA5, size: 0x8, addend: 0x0, symName: __ZNSt3__15arrayIiLm4EEixB8ne180100Em, symObjAddr: 0x1A9C, symBinAddr: 0x100003028, symSize: 0x20 }
  - { offset: 0xFB17, size: 0x8, addend: 0x0, symName: __ZNSt3__15arrayINS_12basic_stringIcNS_11char_traitsIcEENS_9allocatorIcEEEELm4EEixB8ne180100Em, symObjAddr: 0x1ABC, symBinAddr: 0x100003048, symSize: 0x28 }
  - { offset: 0xFB4B, size: 0x8, addend: 0x0, symName: __ZNSt3__112basic_stringIcNS_11char_traitsIcEENS_9allocatorIcEEEC1B8ne180100Emc, symObjAddr: 0x1AE4, symBinAddr: 0x100003070, symSize: 0x3C }
  - { offset: 0xFB98, size: 0x8, addend: 0x0, symName: __ZNSt3__112basic_stringIcNS_11char_traitsIcEENS_9allocatorIcEEEC1B8ne180100ILi0EEEPKc, symObjAddr: 0x1B20, symBinAddr: 0x1000030AC, symSize: 0x34 }
  - { offset: 0xFBD7, size: 0x8, addend: 0x0, symName: __ZNSt3__16vectorIiNS_9allocatorIiEEEC1B8ne180100ESt16initializer_listIiE, symObjAddr: 0x1B54, symBinAddr: 0x1000030E0, symSize: 0x3C }
  - { offset: 0xFC10, size: 0x8, addend: 0x0, symName: __ZNSt3__16vectorIiNS_9allocatorIiEEED1B8ne180100Ev, symObjAddr: 0x1B90, symBinAddr: 0x10000311C, symSize: 0x2C }
  - { offset: 0xFC3A, size: 0x8, addend: 0x0, symName: __ZNSt3__16vectorINS0_IiNS_9allocatorIiEEEENS1_IS3_EEEC1B8ne180100ESt16initializer_listIS3_E, symObjAddr: 0x1BBC, symBinAddr: 0x100003148, symSize: 0x3C }
  - { offset: 0xFC73, size: 0x8, addend: 0x0, symName: __ZNKSt3__16vectorINS0_IiNS_9allocatorIiEEEENS1_IS3_EEE4sizeB8ne180100Ev, symObjAddr: 0x1BF8, symBinAddr: 0x100003184, symSize: 0x28 }
  - { offset: 0xFC99, size: 0x8, addend: 0x0, symName: __ZNSt3__16vectorINS0_IiNS_9allocatorIiEEEENS1_IS3_EEEixB8ne180100Em, symObjAddr: 0x1C20, symBinAddr: 0x1000031AC, symSize: 0x2C }
  - { offset: 0xFCCE, size: 0x8, addend: 0x0, symName: __ZNKSt3__111__wrap_iterIPiEdeB8ne180100Ev, symObjAddr: 0x1C7C, symBinAddr: 0x100003208, symSize: 0x18 }
  - { offset: 0xFCF4, size: 0x8, addend: 0x0, symName: __ZNSt3__111__wrap_iterIPiEppB8ne180100Ev, symObjAddr: 0x1C94, symBinAddr: 0x100003220, symSize: 0x20 }
  - { offset: 0xFD1A, size: 0x8, addend: 0x0, symName: __ZNSt3__16vectorIiNS_9allocatorIiEEEC1ERKS3_, symObjAddr: 0x1CB4, symBinAddr: 0x100003240, symSize: 0x34 }
  - { offset: 0xFD53, size: 0x8, addend: 0x0, symName: __ZNSt3__16vectorINS0_IiNS_9allocatorIiEEEENS1_IS3_EEED1B8ne180100Ev, symObjAddr: 0x1CE8, symBinAddr: 0x100003274, symSize: 0x2C }
  - { offset: 0xFD7D, size: 0x8, addend: 0x0, symName: __ZNSt3__15arrayINS_12basic_stringIcNS_11char_traitsIcEENS_9allocatorIcEEEELm4EED1Ev, symObjAddr: 0x1D14, symBinAddr: 0x1000032A0, symSize: 0x2C }
  - { offset: 0xFDA8, size: 0x8, addend: 0x0, symName: __Z4Funci, symObjAddr: 0x1D40, symBinAddr: 0x1000032CC, symSize: 0x38 }
  - { offset: 0xFDD0, size: 0x8, addend: 0x0, symName: __Z6Lambdav, symObjAddr: 0x1D78, symBinAddr: 0x100003304, symSize: 0x9FC }
  - { offset: 0x10163, size: 0x8, addend: 0x0, symName: '__ZZ6LambdavENK3$_6clEii', symObjAddr: 0x2774, symBinAddr: 0x100003D00, symSize: 0x24 }
  - { offset: 0x101B3, size: 0x8, addend: 0x0, symName: '__ZZ6LambdavENK3$_7clEii', symObjAddr: 0x2798, symBinAddr: 0x100003D24, symSize: 0x24 }
  - { offset: 0x10203, size: 0x8, addend: 0x0, symName: '__ZZ6LambdavENK3$_8clEii', symObjAddr: 0x27BC, symBinAddr: 0x100003D48, symSize: 0x24 }
  - { offset: 0x10253, size: 0x8, addend: 0x0, symName: '__ZZ6LambdavENK3$_9clEii', symObjAddr: 0x27E0, symBinAddr: 0x100003D6C, symSize: 0x24 }
  - { offset: 0x102A3, size: 0x8, addend: 0x0, symName: '__ZZ6LambdavENK4$_10clEii', symObjAddr: 0x2804, symBinAddr: 0x100003D90, symSize: 0x2C }
  - { offset: 0x102F3, size: 0x8, addend: 0x0, symName: '__ZZ6LambdavENK4$_11clEb', symObjAddr: 0x29AC, symBinAddr: 0x100003F38, symSize: 0x64 }
  - { offset: 0x1032B, size: 0x8, addend: 0x0, symName: _main, symObjAddr: 0x2C18, symBinAddr: 0x1000041A4, symSize: 0x234 }
  - { offset: 0x10374, size: 0x8, addend: 0x0, symName: __Z4Menuv, symObjAddr: 0x2E4C, symBinAddr: 0x1000043D8, symSize: 0xB8 }
  - { offset: 0x1038F, size: 0x8, addend: 0x0, symName: __ZNSt3__16bitsetILm8EEC2B8ne180100Ey, symObjAddr: 0x2F04, symBinAddr: 0x100004490, symSize: 0x34 }
  - { offset: 0x103C8, size: 0x8, addend: 0x0, symName: __ZNSt3__18__bitsetILm1ELm8EEC2Ey, symObjAddr: 0x2F38, symBinAddr: 0x1000044C4, symSize: 0x20 }
  - { offset: 0x10401, size: 0x8, addend: 0x0, symName: __ZNKSt3__16bitsetILm8EE9to_stringB8ne180100IcNS_11char_traitsIcEENS_9allocatorIcEEEENS_12basic_stringIT_T0_T1_EES8_S8_, symObjAddr: 0x2F58, symBinAddr: 0x1000044E4, symSize: 0x134 }
  - { offset: 0x10485, size: 0x8, addend: 0x0, symName: __ZNKSt3__16bitsetILm8EEixB8ne180100Em, symObjAddr: 0x308C, symBinAddr: 0x100004618, symSize: 0x3C }
  - { offset: 0x104BA, size: 0x8, addend: 0x0, symName: __ZNKSt3__121__bit_const_referenceINS_8__bitsetILm1ELm8EEEEcvbB8ne180100Ev, symObjAddr: 0x30C8, symBinAddr: 0x100004654, symSize: 0x28 }
  - { offset: 0x104E0, size: 0x8, addend: 0x0, symName: __ZNSt3__112basic_stringIcNS_11char_traitsIcEENS_9allocatorIcEEEixB8ne180100Em, symObjAddr: 0x30F0, symBinAddr: 0x10000467C, symSize: 0x48 }
  - { offset: 0x10515, size: 0x8, addend: 0x0, symName: __ZNKSt3__18__bitsetILm1ELm8EE10__make_refB8ne180100Em, symObjAddr: 0x3138, symBinAddr: 0x1000046C4, symSize: 0x40 }
  - { offset: 0x1054A, size: 0x8, addend: 0x0, symName: __ZNSt3__121__bit_const_referenceINS_8__bitsetILm1ELm8EEEEC1B8ne180100EPKmm, symObjAddr: 0x3178, symBinAddr: 0x100004704, symSize: 0x3C }
  - { offset: 0x10590, size: 0x8, addend: 0x0, symName: __ZNSt3__121__bit_const_referenceINS_8__bitsetILm1ELm8EEEEC2B8ne180100EPKmm, symObjAddr: 0x31B4, symBinAddr: 0x100004740, symSize: 0x2C }
  - { offset: 0x105D6, size: 0x8, addend: 0x0, symName: __ZNSt3__112basic_stringIcNS_11char_traitsIcEENS_9allocatorIcEEE13__fits_in_ssoB8ne180100Em, symObjAddr: 0x31E0, symBinAddr: 0x10000476C, symSize: 0x1C }
  - { offset: 0x105FA, size: 0x8, addend: 0x0, symName: __ZNSt3__112basic_stringIcNS_11char_traitsIcEENS_9allocatorIcEEE18__get_long_pointerB8ne180100Ev, symObjAddr: 0x320C, symBinAddr: 0x100004798, symSize: 0x28 }
  - { offset: 0x10620, size: 0x8, addend: 0x0, symName: __ZNSt3__112basic_stringIcNS_11char_traitsIcEENS_9allocatorIcEEE13__get_pointerB8ne180100Ev, symObjAddr: 0x3234, symBinAddr: 0x1000047C0, symSize: 0x54 }
  - { offset: 0x10646, size: 0x8, addend: 0x0, symName: __ZNSt3__117__compressed_pairINS_12basic_stringIcNS_11char_traitsIcEENS_9allocatorIcEEE5__repES5_E5firstB8ne180100Ev, symObjAddr: 0x3288, symBinAddr: 0x100004814, symSize: 0x24 }
  - { offset: 0x1066C, size: 0x8, addend: 0x0, symName: __ZNSt3__122__compressed_pair_elemINS_12basic_stringIcNS_11char_traitsIcEENS_9allocatorIcEEE5__repELi0ELb0EE5__getB8ne180100Ev, symObjAddr: 0x32AC, symBinAddr: 0x100004838, symSize: 0x14 }
  - { offset: 0x10692, size: 0x8, addend: 0x0, symName: __ZNKSt3__112basic_stringIcNS_11char_traitsIcEENS_9allocatorIcEEE9__is_longB8ne180100Ev, symObjAddr: 0x32C0, symBinAddr: 0x10000484C, symSize: 0x34 }
  - { offset: 0x106B8, size: 0x8, addend: 0x0, symName: __ZNSt3__112basic_stringIcNS_11char_traitsIcEENS_9allocatorIcEEE19__get_short_pointerB8ne180100Ev, symObjAddr: 0x32F4, symBinAddr: 0x100004880, symSize: 0x28 }
  - { offset: 0x106DE, size: 0x8, addend: 0x0, symName: __ZNKSt3__117__compressed_pairINS_12basic_stringIcNS_11char_traitsIcEENS_9allocatorIcEEE5__repES5_E5firstB8ne180100Ev, symObjAddr: 0x331C, symBinAddr: 0x1000048A8, symSize: 0x24 }
  - { offset: 0x10704, size: 0x8, addend: 0x0, symName: __ZNKSt3__122__compressed_pair_elemINS_12basic_stringIcNS_11char_traitsIcEENS_9allocatorIcEEE5__repELi0ELb0EE5__getB8ne180100Ev, symObjAddr: 0x3340, symBinAddr: 0x1000048CC, symSize: 0x14 }
  - { offset: 0x1072A, size: 0x8, addend: 0x0, symName: __ZNSt3__114pointer_traitsIPcE10pointer_toB8ne180100ERc, symObjAddr: 0x3354, symBinAddr: 0x1000048E0, symSize: 0x14 }
  - { offset: 0x1074D, size: 0x8, addend: 0x0, symName: __ZNSt3__16bitsetILm8EEC2B8ne180100IcNS_11char_traitsIcEENS_9allocatorIcEEEERKNS_12basic_stringIT_T0_T1_EENSB_9size_typeESE_S8_S8_, symObjAddr: 0x3368, symBinAddr: 0x1000048F4, symSize: 0xC8 }
  - { offset: 0x107FA, size: 0x8, addend: 0x0, symName: __ZNSt3__18__bitsetILm1ELm8EEC2Ev, symObjAddr: 0x3430, symBinAddr: 0x1000049BC, symSize: 0x18 }
  - { offset: 0x10824, size: 0x8, addend: 0x0, symName: __ZNKSt3__112basic_stringIcNS_11char_traitsIcEENS_9allocatorIcEEE4sizeB8ne180100Ev, symObjAddr: 0x3448, symBinAddr: 0x1000049D4, symSize: 0x54 }
  - { offset: 0x1084A, size: 0x8, addend: 0x0, symName: __ZNSt3__16bitsetILm8EE23__init_from_string_viewB8ne180100IcNS_11char_traitsIcEEEEvNS_17basic_string_viewIT_T0_EES6_S6_, symObjAddr: 0x352C, symBinAddr: 0x100004AB8, symSize: 0x1B0 }
  - { offset: 0x10909, size: 0x8, addend: 0x0, symName: __ZNKSt3__112basic_stringIcNS_11char_traitsIcEENS_9allocatorIcEEE4dataB8ne180100Ev, symObjAddr: 0x36DC, symBinAddr: 0x100004C68, symSize: 0x28 }
  - { offset: 0x1092F, size: 0x8, addend: 0x0, symName: __ZNSt3__117basic_string_viewIcNS_11char_traitsIcEEEC1B8ne180100EPKcm, symObjAddr: 0x3704, symBinAddr: 0x100004C90, symSize: 0x3C }
  - { offset: 0x10977, size: 0x8, addend: 0x0, symName: __ZNKSt3__112basic_stringIcNS_11char_traitsIcEENS_9allocatorIcEEE15__get_long_sizeB8ne180100Ev, symObjAddr: 0x3740, symBinAddr: 0x100004CCC, symSize: 0x28 }
  - { offset: 0x1099D, size: 0x8, addend: 0x0, symName: __ZNKSt3__112basic_stringIcNS_11char_traitsIcEENS_9allocatorIcEEE16__get_short_sizeB8ne180100Ev, symObjAddr: 0x3768, symBinAddr: 0x100004CF4, symSize: 0x34 }
  - { offset: 0x109C3, size: 0x8, addend: 0x0, symName: __ZNSt12out_of_rangeC1B8ne180100EPKc, symObjAddr: 0x379C, symBinAddr: 0x100004D28, symSize: 0x34 }
  - { offset: 0x109FB, size: 0x8, addend: 0x0, symName: __ZNSt12out_of_rangeC2B8ne180100EPKc, symObjAddr: 0x37D0, symBinAddr: 0x100004D5C, symSize: 0x44 }
  - { offset: 0x10A43, size: 0x8, addend: 0x0, symName: __ZNKSt3__16__lessIvvEclB8ne180100ImmEEbRKT_RKT0_, symObjAddr: 0x3868, symBinAddr: 0x100004DF4, symSize: 0x30 }
  - { offset: 0x10A97, size: 0x8, addend: 0x0, symName: __ZNKSt3__117basic_string_viewIcNS_11char_traitsIcEEE4sizeB8ne180100Ev, symObjAddr: 0x3898, symBinAddr: 0x100004E24, symSize: 0x18 }
  - { offset: 0x10ABD, size: 0x8, addend: 0x0, symName: __ZNSt3__111char_traitsIcE2eqEcc, symObjAddr: 0x38B0, symBinAddr: 0x100004E3C, symSize: 0x24 }
  - { offset: 0x10AEE, size: 0x8, addend: 0x0, symName: __ZNKSt3__117basic_string_viewIcNS_11char_traitsIcEEEixB8ne180100Em, symObjAddr: 0x38D4, symBinAddr: 0x100004E60, symSize: 0x24 }
  - { offset: 0x10B23, size: 0x8, addend: 0x0, symName: __ZNSt3__16bitsetILm8EEixB8ne180100Em, symObjAddr: 0x395C, symBinAddr: 0x100004EE8, symSize: 0x3C }
  - { offset: 0x10B58, size: 0x8, addend: 0x0, symName: __ZNSt3__115__bit_referenceINS_8__bitsetILm1ELm8EEELb1EEaSB8ne180100Eb, symObjAddr: 0x3998, symBinAddr: 0x100004F24, symSize: 0x64 }
  - { offset: 0x10B8C, size: 0x8, addend: 0x0, symName: __ZNSt3__18__bitsetILm1ELm8EE11__make_iterB8ne180100Em, symObjAddr: 0x3A60, symBinAddr: 0x100004FEC, symSize: 0x60 }
  - { offset: 0x10BC1, size: 0x8, addend: 0x0, symName: __ZNSt16invalid_argumentC1B8ne180100EPKc, symObjAddr: 0x3AC0, symBinAddr: 0x10000504C, symSize: 0x34 }
  - { offset: 0x10BF9, size: 0x8, addend: 0x0, symName: __ZNSt16invalid_argumentC2B8ne180100EPKc, symObjAddr: 0x3AF4, symBinAddr: 0x100005080, symSize: 0x44 }
  - { offset: 0x10C31, size: 0x8, addend: 0x0, symName: __ZNSt3__18__bitsetILm1ELm8EE10__make_refB8ne180100Em, symObjAddr: 0x3B38, symBinAddr: 0x1000050C4, symSize: 0x40 }
  - { offset: 0x10C66, size: 0x8, addend: 0x0, symName: __ZNSt3__115__bit_referenceINS_8__bitsetILm1ELm8EEELb1EEC1B8ne180100EPmm, symObjAddr: 0x3B78, symBinAddr: 0x100005104, symSize: 0x3C }
  - { offset: 0x10CAC, size: 0x8, addend: 0x0, symName: __ZNSt3__115__bit_referenceINS_8__bitsetILm1ELm8EEELb1EEC2B8ne180100EPmm, symObjAddr: 0x3BB4, symBinAddr: 0x100005140, symSize: 0x2C }
  - { offset: 0x10CF2, size: 0x8, addend: 0x0, symName: __ZNSt3__114__bit_iteratorINS_8__bitsetILm1ELm8EEELb0ELm0EEC1B8ne180100ERKS3_, symObjAddr: 0x3C68, symBinAddr: 0x1000051F4, symSize: 0x34 }
  - { offset: 0x10D2B, size: 0x8, addend: 0x0, symName: __ZNSt3__114__bit_iteratorINS_8__bitsetILm1ELm8EEELb0ELm0EEC2B8ne180100ERKS3_, symObjAddr: 0x405C, symBinAddr: 0x1000055E8, symSize: 0x30 }
  - { offset: 0x10D64, size: 0x8, addend: 0x0, symName: __ZNSt3__114__bit_iteratorINS_8__bitsetILm1ELm8EEELb0ELm0EEC1B8ne180100EPmj, symObjAddr: 0x408C, symBinAddr: 0x100005618, symSize: 0x3C }
  - { offset: 0x10DAC, size: 0x8, addend: 0x0, symName: __ZNSt3__114__bit_iteratorINS_8__bitsetILm1ELm8EEELb0ELm0EEC2B8ne180100EPmj, symObjAddr: 0x40C8, symBinAddr: 0x100005654, symSize: 0x2C }
  - { offset: 0x10DF4, size: 0x8, addend: 0x0, symName: __ZNKSt3__112basic_stringIcNS_11char_traitsIcEENS_9allocatorIcEEE13__get_pointerB8ne180100Ev, symObjAddr: 0x4108, symBinAddr: 0x100005694, symSize: 0x54 }
  - { offset: 0x10E1A, size: 0x8, addend: 0x0, symName: __ZNKSt3__112basic_stringIcNS_11char_traitsIcEENS_9allocatorIcEEE18__get_long_pointerB8ne180100Ev, symObjAddr: 0x415C, symBinAddr: 0x1000056E8, symSize: 0x28 }
  - { offset: 0x10E40, size: 0x8, addend: 0x0, symName: __ZNKSt3__112basic_stringIcNS_11char_traitsIcEENS_9allocatorIcEEE19__get_short_pointerB8ne180100Ev, symObjAddr: 0x4184, symBinAddr: 0x100005710, symSize: 0x28 }
  - { offset: 0x10E66, size: 0x8, addend: 0x0, symName: __ZNSt3__114pointer_traitsIPKcE10pointer_toB8ne180100ERS1_, symObjAddr: 0x41AC, symBinAddr: 0x100005738, symSize: 0x14 }
  - { offset: 0x10E89, size: 0x8, addend: 0x0, symName: __ZNSt3__117basic_string_viewIcNS_11char_traitsIcEEEC2B8ne180100EPKcm, symObjAddr: 0x41C0, symBinAddr: 0x10000574C, symSize: 0x2C }
  - { offset: 0x10ED1, size: 0x8, addend: 0x0, symName: __ZNKSt3__18__bitsetILm1ELm8EE8to_ulongEv, symObjAddr: 0x41EC, symBinAddr: 0x100005778, symSize: 0x18 }
  - { offset: 0x10EF7, size: 0x8, addend: 0x0, symName: __ZNSt3__16bitsetILm32EEC2B8ne180100Ey, symObjAddr: 0x4204, symBinAddr: 0x100005790, symSize: 0x34 }
  - { offset: 0x10F30, size: 0x8, addend: 0x0, symName: __ZNSt3__18__bitsetILm1ELm32EEC2Ey, symObjAddr: 0x4238, symBinAddr: 0x1000057C4, symSize: 0x20 }
  - { offset: 0x10F69, size: 0x8, addend: 0x0, symName: __ZNSt3__18__bitsetILm1ELm32EE10__make_refB8ne180100Em, symObjAddr: 0x4258, symBinAddr: 0x1000057E4, symSize: 0x40 }
  - { offset: 0x10F9E, size: 0x8, addend: 0x0, symName: __ZNSt3__115__bit_referenceINS_8__bitsetILm1ELm32EEELb1EEC1B8ne180100EPmm, symObjAddr: 0x4298, symBinAddr: 0x100005824, symSize: 0x3C }
  - { offset: 0x10FE4, size: 0x8, addend: 0x0, symName: __ZNSt3__115__bit_referenceINS_8__bitsetILm1ELm32EEELb1EEC2B8ne180100EPmm, symObjAddr: 0x42D4, symBinAddr: 0x100005860, symSize: 0x2C }
  - { offset: 0x1102A, size: 0x8, addend: 0x0, symName: __ZNSt3__16vectorIiNS_9allocatorIiEEE11__make_iterB8ne180100EPi, symObjAddr: 0x4300, symBinAddr: 0x10000588C, symSize: 0x30 }
  - { offset: 0x1105F, size: 0x8, addend: 0x0, symName: __ZNSt3__111__wrap_iterIPiEC1B8ne180100ES1_, symObjAddr: 0x4330, symBinAddr: 0x1000058BC, symSize: 0x34 }
  - { offset: 0x11097, size: 0x8, addend: 0x0, symName: __ZNSt3__111__wrap_iterIPiEC2B8ne180100ES1_, symObjAddr: 0x4364, symBinAddr: 0x1000058F0, symSize: 0x20 }
  - { offset: 0x110CF, size: 0x8, addend: 0x0, symName: __ZNSt3__16vectorIdNS_9allocatorIdEEEC2Em, symObjAddr: 0x4384, symBinAddr: 0x100005910, symSize: 0xD0 }
  - { offset: 0x11129, size: 0x8, addend: 0x0, symName: __ZNSt3__117__compressed_pairIPdNS_9allocatorIdEEEC1B8ne180100IDnNS_18__default_init_tagEEEOT_OT0_, symObjAddr: 0x4454, symBinAddr: 0x1000059E0, symSize: 0x3C }
  - { offset: 0x11181, size: 0x8, addend: 0x0, symName: __ZNSt3__16vectorIdNS_9allocatorIdEEE16__destroy_vectorC1B8ne180100ERS3_, symObjAddr: 0x44D0, symBinAddr: 0x100005A5C, symSize: 0x34 }
  - { offset: 0x111BA, size: 0x8, addend: 0x0, symName: __ZNSt3__16vectorIdNS_9allocatorIdEEE11__vallocateB8ne180100Em, symObjAddr: 0x4504, symBinAddr: 0x100005A90, symSize: 0xA8 }
  - { offset: 0x111FE, size: 0x8, addend: 0x0, symName: __ZNSt3__16vectorIdNS_9allocatorIdEEE18__construct_at_endEm, symObjAddr: 0x45AC, symBinAddr: 0x100005B38, symSize: 0xC4 }
  - { offset: 0x1126E, size: 0x8, addend: 0x0, symName: __ZNSt3__128__exception_guard_exceptionsINS_6vectorIdNS_9allocatorIdEEE16__destroy_vectorEE10__completeB8ne180100Ev, symObjAddr: 0x4670, symBinAddr: 0x100005BFC, symSize: 0x1C }
  - { offset: 0x11294, size: 0x8, addend: 0x0, symName: __ZNSt3__128__exception_guard_exceptionsINS_6vectorIdNS_9allocatorIdEEE16__destroy_vectorEED1B8ne180100Ev, symObjAddr: 0x468C, symBinAddr: 0x100005C18, symSize: 0x2C }
  - { offset: 0x112BE, size: 0x8, addend: 0x0, symName: __ZNSt3__117__compressed_pairIPdNS_9allocatorIdEEEC2B8ne180100IDnNS_18__default_init_tagEEEOT_OT0_, symObjAddr: 0x46B8, symBinAddr: 0x100005C44, symSize: 0x40 }
  - { offset: 0x11316, size: 0x8, addend: 0x0, symName: __ZNSt3__122__compressed_pair_elemIPdLi0ELb0EEC2B8ne180100IDnvEEOT_, symObjAddr: 0x46F8, symBinAddr: 0x100005C84, symSize: 0x1C }
  - { offset: 0x11358, size: 0x8, addend: 0x0, symName: __ZNSt3__122__compressed_pair_elemINS_9allocatorIdEELi1ELb1EEC2B8ne180100ENS_18__default_init_tagE, symObjAddr: 0x4714, symBinAddr: 0x100005CA0, symSize: 0x2C }
  - { offset: 0x1138C, size: 0x8, addend: 0x0, symName: __ZNSt3__19allocatorIdEC2B8ne180100Ev, symObjAddr: 0x4740, symBinAddr: 0x100005CCC, symSize: 0x2C }
  - { offset: 0x113B6, size: 0x8, addend: 0x0, symName: __ZNSt3__116__non_trivial_ifILb1ENS_9allocatorIdEEEC2B8ne180100Ev, symObjAddr: 0x476C, symBinAddr: 0x100005CF8, symSize: 0x14 }
  - { offset: 0x113E0, size: 0x8, addend: 0x0, symName: __ZNSt3__128__exception_guard_exceptionsINS_6vectorIdNS_9allocatorIdEEE16__destroy_vectorEEC1B8ne180100ES5_, symObjAddr: 0x4780, symBinAddr: 0x100005D0C, symSize: 0x34 }
  - { offset: 0x11418, size: 0x8, addend: 0x0, symName: __ZNSt3__128__exception_guard_exceptionsINS_6vectorIdNS_9allocatorIdEEE16__destroy_vectorEEC2B8ne180100ES5_, symObjAddr: 0x47B4, symBinAddr: 0x100005D40, symSize: 0x24 }
  - { offset: 0x11450, size: 0x8, addend: 0x0, symName: __ZNSt3__16vectorIdNS_9allocatorIdEEE16__destroy_vectorC2B8ne180100ERS3_, symObjAddr: 0x47D8, symBinAddr: 0x100005D64, symSize: 0x20 }
  - { offset: 0x11489, size: 0x8, addend: 0x0, symName: __ZNKSt3__16vectorIdNS_9allocatorIdEEE8max_sizeEv, symObjAddr: 0x47F8, symBinAddr: 0x100005D84, symSize: 0x60 }
  - { offset: 0x114AF, size: 0x8, addend: 0x0, symName: __ZNKSt3__16vectorIdNS_9allocatorIdEEE20__throw_length_errorB8ne180100Ev, symObjAddr: 0x4858, symBinAddr: 0x100005DE4, symSize: 0x1C }
  - { offset: 0x114D5, size: 0x8, addend: 0x0, symName: __ZNSt3__16vectorIdNS_9allocatorIdEEE7__allocB8ne180100Ev, symObjAddr: 0x48B0, symBinAddr: 0x100005E3C, symSize: 0x28 }
  - { offset: 0x114FB, size: 0x8, addend: 0x0, symName: __ZNSt3__16vectorIdNS_9allocatorIdEEE9__end_capB8ne180100Ev, symObjAddr: 0x48D8, symBinAddr: 0x100005E64, symSize: 0x28 }
  - { offset: 0x11521, size: 0x8, addend: 0x0, symName: __ZNKSt3__16vectorIdNS_9allocatorIdEEE14__annotate_newB8ne180100Em, symObjAddr: 0x4900, symBinAddr: 0x100005E8C, symSize: 0x14 }
  - { offset: 0x11561, size: 0x8, addend: 0x0, symName: __ZNSt3__116allocator_traitsINS_9allocatorIdEEE8max_sizeB8ne180100IS2_vvEEmRKS2_, symObjAddr: 0x4914, symBinAddr: 0x100005EA0, symSize: 0x28 }
  - { offset: 0x1158C, size: 0x8, addend: 0x0, symName: __ZNKSt3__16vectorIdNS_9allocatorIdEEE7__allocB8ne180100Ev, symObjAddr: 0x493C, symBinAddr: 0x100005EC8, symSize: 0x28 }
  - { offset: 0x115B2, size: 0x8, addend: 0x0, symName: __ZNSt3__114numeric_limitsIlE3maxB8ne180100Ev, symObjAddr: 0x4964, symBinAddr: 0x100005EF0, symSize: 0x14 }
  - { offset: 0x115C6, size: 0x8, addend: 0x0, symName: __ZNSt3__114numeric_limitsImE3maxB8ne180100Ev, symObjAddr: 0x4978, symBinAddr: 0x100005F04, symSize: 0x14 }
  - { offset: 0x115DA, size: 0x8, addend: 0x0, symName: __ZNSt3__123__libcpp_numeric_limitsImLb1EE3maxB8ne180100Ev, symObjAddr: 0x498C, symBinAddr: 0x100005F18, symSize: 0x8 }
  - { offset: 0x115EE, size: 0x8, addend: 0x0, symName: __ZNKSt3__117__compressed_pairIPdNS_9allocatorIdEEE6secondB8ne180100Ev, symObjAddr: 0x4994, symBinAddr: 0x100005F20, symSize: 0x24 }
  - { offset: 0x11614, size: 0x8, addend: 0x0, symName: __ZNKSt3__122__compressed_pair_elemINS_9allocatorIdEELi1ELb1EE5__getB8ne180100Ev, symObjAddr: 0x49B8, symBinAddr: 0x100005F44, symSize: 0x14 }
  - { offset: 0x1163A, size: 0x8, addend: 0x0, symName: __ZNSt3__123__libcpp_numeric_limitsIlLb1EE3maxB8ne180100Ev, symObjAddr: 0x49CC, symBinAddr: 0x100005F58, symSize: 0x8 }
  - { offset: 0x1164E, size: 0x8, addend: 0x0, symName: __ZNSt12length_errorC1B8ne180100EPKc, symObjAddr: 0x4A38, symBinAddr: 0x100005FC4, symSize: 0x34 }
  - { offset: 0x11686, size: 0x8, addend: 0x0, symName: __ZNSt12length_errorC2B8ne180100EPKc, symObjAddr: 0x4A6C, symBinAddr: 0x100005FF8, symSize: 0x44 }
  - { offset: 0x116BE, size: 0x8, addend: 0x0, symName: __ZNSt3__19allocatorIdE17allocate_at_leastB8ne180100Em, symObjAddr: 0x4AEC, symBinAddr: 0x100006078, symSize: 0x40 }
  - { offset: 0x116F2, size: 0x8, addend: 0x0, symName: __ZNSt3__19allocatorIdE8allocateB8ne180100Em, symObjAddr: 0x4B2C, symBinAddr: 0x1000060B8, symSize: 0x54 }
  - { offset: 0x11726, size: 0x8, addend: 0x0, symName: __ZNSt3__117__compressed_pairIPdNS_9allocatorIdEEE6secondB8ne180100Ev, symObjAddr: 0x4C80, symBinAddr: 0x10000620C, symSize: 0x24 }
  - { offset: 0x1174C, size: 0x8, addend: 0x0, symName: __ZNSt3__122__compressed_pair_elemINS_9allocatorIdEELi1ELb1EE5__getB8ne180100Ev, symObjAddr: 0x4CA4, symBinAddr: 0x100006230, symSize: 0x14 }
  - { offset: 0x11772, size: 0x8, addend: 0x0, symName: __ZNSt3__117__compressed_pairIPdNS_9allocatorIdEEE5firstB8ne180100Ev, symObjAddr: 0x4CB8, symBinAddr: 0x100006244, symSize: 0x24 }
  - { offset: 0x11798, size: 0x8, addend: 0x0, symName: __ZNSt3__122__compressed_pair_elemIPdLi0ELb0EE5__getB8ne180100Ev, symObjAddr: 0x4CDC, symBinAddr: 0x100006268, symSize: 0x14 }
  - { offset: 0x117D9, size: 0x8, addend: 0x0, symName: __ZNSt3__16vectorIdNS_9allocatorIdEEE21_ConstructTransactionC1B8ne180100ERS3_m, symObjAddr: 0x4CF0, symBinAddr: 0x10000627C, symSize: 0x3C }
  - { offset: 0x11821, size: 0x8, addend: 0x0, symName: __ZNSt3__116allocator_traitsINS_9allocatorIdEEE9constructB8ne180100IdJEvvEEvRS2_PT_DpOT0_, symObjAddr: 0x4D2C, symBinAddr: 0x1000062B8, symSize: 0x28 }
  - { offset: 0x11860, size: 0x8, addend: 0x0, symName: __ZNSt3__16vectorIdNS_9allocatorIdEEE21_ConstructTransactionD1B8ne180100Ev, symObjAddr: 0x4D68, symBinAddr: 0x1000062F4, symSize: 0x2C }
  - { offset: 0x1188A, size: 0x8, addend: 0x0, symName: __ZNSt3__16vectorIdNS_9allocatorIdEEE21_ConstructTransactionC2B8ne180100ERS3_m, symObjAddr: 0x4D94, symBinAddr: 0x100006320, symSize: 0x44 }
  - { offset: 0x118D2, size: 0x8, addend: 0x0, symName: __ZNSt3__16vectorIdNS_9allocatorIdEEE21_ConstructTransactionD2B8ne180100Ev, symObjAddr: 0x4E20, symBinAddr: 0x1000063AC, symSize: 0x20 }
  - { offset: 0x118FC, size: 0x8, addend: 0x0, symName: __ZNSt3__128__exception_guard_exceptionsINS_6vectorIdNS_9allocatorIdEEE16__destroy_vectorEED2B8ne180100Ev, symObjAddr: 0x4E40, symBinAddr: 0x1000063CC, symSize: 0x50 }
  - { offset: 0x11926, size: 0x8, addend: 0x0, symName: __ZNSt3__16vectorIdNS_9allocatorIdEEE16__destroy_vectorclB8ne180100Ev, symObjAddr: 0x4E90, symBinAddr: 0x10000641C, symSize: 0x88 }
  - { offset: 0x1194C, size: 0x8, addend: 0x0, symName: __ZNSt3__16vectorIdNS_9allocatorIdEEE7__clearB8ne180100Ev, symObjAddr: 0x4F18, symBinAddr: 0x1000064A4, symSize: 0x28 }
  - { offset: 0x11972, size: 0x8, addend: 0x0, symName: __ZNKSt3__16vectorIdNS_9allocatorIdEEE17__annotate_deleteB8ne180100Ev, symObjAddr: 0x4F40, symBinAddr: 0x1000064CC, symSize: 0x10 }
  - { offset: 0x11998, size: 0x8, addend: 0x0, symName: __ZNSt3__116allocator_traitsINS_9allocatorIdEEE10deallocateB8ne180100ERS2_Pdm, symObjAddr: 0x4F50, symBinAddr: 0x1000064DC, symSize: 0x34 }
  - { offset: 0x119DA, size: 0x8, addend: 0x0, symName: __ZNKSt3__16vectorIdNS_9allocatorIdEEE8capacityB8ne180100Ev, symObjAddr: 0x4F84, symBinAddr: 0x100006510, symSize: 0x40 }
  - { offset: 0x11A00, size: 0x8, addend: 0x0, symName: __ZNSt3__16vectorIdNS_9allocatorIdEEE22__base_destruct_at_endB8ne180100EPd, symObjAddr: 0x4FC4, symBinAddr: 0x100006550, symSize: 0x88 }
  - { offset: 0x11A44, size: 0x8, addend: 0x0, symName: __ZNSt3__116allocator_traitsINS_9allocatorIdEEE7destroyB8ne180100IdvvEEvRS2_PT_, symObjAddr: 0x504C, symBinAddr: 0x1000065D8, symSize: 0x28 }
  - { offset: 0x11A7E, size: 0x8, addend: 0x0, symName: __ZNSt3__19allocatorIdE10deallocateB8ne180100EPdm, symObjAddr: 0x5084, symBinAddr: 0x100006610, symSize: 0x40 }
  - { offset: 0x11AC0, size: 0x8, addend: 0x0, symName: __ZNKSt3__16vectorIdNS_9allocatorIdEEE9__end_capB8ne180100Ev, symObjAddr: 0x51CC, symBinAddr: 0x100006758, symSize: 0x28 }
  - { offset: 0x11AE6, size: 0x8, addend: 0x0, symName: __ZNKSt3__117__compressed_pairIPdNS_9allocatorIdEEE5firstB8ne180100Ev, symObjAddr: 0x51F4, symBinAddr: 0x100006780, symSize: 0x24 }
  - { offset: 0x11B0C, size: 0x8, addend: 0x0, symName: __ZNKSt3__122__compressed_pair_elemIPdLi0ELb0EE5__getB8ne180100Ev, symObjAddr: 0x5218, symBinAddr: 0x1000067A4, symSize: 0x14 }
  - { offset: 0x11B3C, size: 0x8, addend: 0x0, symName: '__ZZ17StandardDeviationNSt3__16vectorIiNS_9allocatorIiEEEEENK3$_0clEd', symObjAddr: 0x522C, symBinAddr: 0x1000067B8, symSize: 0x24 }
  - { offset: 0x11B74, size: 0x8, addend: 0x0, symName: __ZNKSt3__111__wrap_iterIPdEdeB8ne180100Ev, symObjAddr: 0x5250, symBinAddr: 0x1000067DC, symSize: 0x18 }
  - { offset: 0x11B9A, size: 0x8, addend: 0x0, symName: __ZNSt3__111__wrap_iterIPdEppB8ne180100Ev, symObjAddr: 0x5268, symBinAddr: 0x1000067F4, symSize: 0x20 }
  - { offset: 0x11BC0, size: 0x8, addend: 0x0, symName: __ZNSt3__16vectorIdNS_9allocatorIdEEE11__make_iterB8ne180100EPd, symObjAddr: 0x5288, symBinAddr: 0x100006814, symSize: 0x30 }
  - { offset: 0x11BF5, size: 0x8, addend: 0x0, symName: __ZNSt3__111__wrap_iterIPdEC1B8ne180100ES1_, symObjAddr: 0x52B8, symBinAddr: 0x100006844, symSize: 0x34 }
  - { offset: 0x11C2D, size: 0x8, addend: 0x0, symName: __ZNSt3__111__wrap_iterIPdEC2B8ne180100ES1_, symObjAddr: 0x52EC, symBinAddr: 0x100006878, symSize: 0x20 }
  - { offset: 0x11C65, size: 0x8, addend: 0x0, symName: __ZNKSt3__111__wrap_iterIPdE4baseB8ne180100Ev, symObjAddr: 0x5380, symBinAddr: 0x10000690C, symSize: 0x18 }
  - { offset: 0x11C8B, size: 0x8, addend: 0x0, symName: __ZNSt3__16vectorIdNS_9allocatorIdEEED2B8ne180100Ev, symObjAddr: 0x5398, symBinAddr: 0x100006924, symSize: 0x40 }
  - { offset: 0x11CB5, size: 0x8, addend: 0x0, symName: __ZNSt3__112basic_stringIcNS_11char_traitsIcEENS_9allocatorIcEEEC2B8ne180100Ev, symObjAddr: 0x53D8, symBinAddr: 0x100006964, symSize: 0x48 }
  - { offset: 0x11CE5, size: 0x8, addend: 0x0, symName: __ZNSt3__117__compressed_pairINS_12basic_stringIcNS_11char_traitsIcEENS_9allocatorIcEEE5__repES5_EC1B8ne180100INS_16__value_init_tagENS_18__default_init_tagEEEOT_OT0_, symObjAddr: 0x5420, symBinAddr: 0x1000069AC, symSize: 0x3C }
  - { offset: 0x11D3D, size: 0x8, addend: 0x0, symName: __ZNKSt3__112basic_stringIcNS_11char_traitsIcEENS_9allocatorIcEEE14__annotate_newB8ne180100Em, symObjAddr: 0x545C, symBinAddr: 0x1000069E8, symSize: 0x14 }
  - { offset: 0x11D72, size: 0x8, addend: 0x0, symName: __ZNSt3__117__compressed_pairINS_12basic_stringIcNS_11char_traitsIcEENS_9allocatorIcEEE5__repES5_EC2B8ne180100INS_16__value_init_tagENS_18__default_init_tagEEEOT_OT0_, symObjAddr: 0x5470, symBinAddr: 0x1000069FC, symSize: 0x3C }
  - { offset: 0x11DCA, size: 0x8, addend: 0x0, symName: __ZNSt3__122__compressed_pair_elemINS_12basic_stringIcNS_11char_traitsIcEENS_9allocatorIcEEE5__repELi0ELb0EEC2B8ne180100ENS_16__value_init_tagE, symObjAddr: 0x54AC, symBinAddr: 0x100006A38, symSize: 0x20 }
  - { offset: 0x11DFE, size: 0x8, addend: 0x0, symName: __ZNSt3__122__compressed_pair_elemINS_9allocatorIcEELi1ELb1EEC2B8ne180100ENS_18__default_init_tagE, symObjAddr: 0x54CC, symBinAddr: 0x100006A58, symSize: 0x2C }
  - { offset: 0x11E32, size: 0x8, addend: 0x0, symName: __ZNSt3__19allocatorIcEC2B8ne180100Ev, symObjAddr: 0x54F8, symBinAddr: 0x100006A84, symSize: 0x2C }
  - { offset: 0x11E5C, size: 0x8, addend: 0x0, symName: __ZNSt3__116__non_trivial_ifILb1ENS_9allocatorIcEEEC2B8ne180100Ev, symObjAddr: 0x5524, symBinAddr: 0x100006AB0, symSize: 0x14 }
  - { offset: 0x11E86, size: 0x8, addend: 0x0, symName: __ZNSt3__112basic_stringIcNS_11char_traitsIcEENS_9allocatorIcEEEC2B8ne180100Emc, symObjAddr: 0x5538, symBinAddr: 0x100006AC4, symSize: 0x4C }
  - { offset: 0x11ECE, size: 0x8, addend: 0x0, symName: __ZNSt3__117__compressed_pairINS_12basic_stringIcNS_11char_traitsIcEENS_9allocatorIcEEE5__repES5_EC1B8ne180100INS_18__default_init_tagESA_EEOT_OT0_, symObjAddr: 0x5584, symBinAddr: 0x100006B10, symSize: 0x3C }
  - { offset: 0x11F26, size: 0x8, addend: 0x0, symName: __ZNSt3__117__compressed_pairINS_12basic_stringIcNS_11char_traitsIcEENS_9allocatorIcEEE5__repES5_EC2B8ne180100INS_18__default_init_tagESA_EEOT_OT0_, symObjAddr: 0x55C0, symBinAddr: 0x100006B4C, symSize: 0x3C }
  - { offset: 0x11F7E, size: 0x8, addend: 0x0, symName: __ZNSt3__122__compressed_pair_elemINS_12basic_stringIcNS_11char_traitsIcEENS_9allocatorIcEEE5__repELi0ELb0EEC2B8ne180100ENS_18__default_init_tagE, symObjAddr: 0x55FC, symBinAddr: 0x100006B88, symSize: 0x14 }
  - { offset: 0x11FB2, size: 0x8, addend: 0x0, symName: __ZNSt3__112basic_stringIcNS_11char_traitsIcEENS_9allocatorIcEEEC2B8ne180100ILi0EEEPKc, symObjAddr: 0x5610, symBinAddr: 0x100006B9C, symSize: 0x58 }
  - { offset: 0x11FF1, size: 0x8, addend: 0x0, symName: __ZNSt3__111char_traitsIcE6lengthB8ne180100EPKc, symObjAddr: 0x5668, symBinAddr: 0x100006BF4, symSize: 0x34 }
  - { offset: 0x12014, size: 0x8, addend: 0x0, symName: __ZNSt3__16vectorIiNS_9allocatorIiEEEC2B8ne180100ESt16initializer_listIiE, symObjAddr: 0x56C0, symBinAddr: 0x100006C4C, symSize: 0x11C }
  - { offset: 0x12062, size: 0x8, addend: 0x0, symName: __ZNSt3__117__compressed_pairIPiNS_9allocatorIiEEEC1B8ne180100IDnNS_18__default_init_tagEEEOT_OT0_, symObjAddr: 0x57DC, symBinAddr: 0x100006D68, symSize: 0x3C }
  - { offset: 0x120BA, size: 0x8, addend: 0x0, symName: __ZNSt3__16vectorIiNS_9allocatorIiEEE16__destroy_vectorC1B8ne180100ERS3_, symObjAddr: 0x5858, symBinAddr: 0x100006DE4, symSize: 0x34 }
  - { offset: 0x120F3, size: 0x8, addend: 0x0, symName: __ZNKSt16initializer_listIiE4sizeB8ne180100Ev, symObjAddr: 0x588C, symBinAddr: 0x100006E18, symSize: 0x18 }
  - { offset: 0x12119, size: 0x8, addend: 0x0, symName: __ZNSt3__16vectorIiNS_9allocatorIiEEE11__vallocateB8ne180100Em, symObjAddr: 0x58A4, symBinAddr: 0x100006E30, symSize: 0xA8 }
  - { offset: 0x1215D, size: 0x8, addend: 0x0, symName: __ZNSt3__16vectorIiNS_9allocatorIiEEE18__construct_at_endIPKiS6_EEvT_T0_m, symObjAddr: 0x594C, symBinAddr: 0x100006ED8, symSize: 0x8C }
  - { offset: 0x121D1, size: 0x8, addend: 0x0, symName: __ZNKSt16initializer_listIiE5beginB8ne180100Ev, symObjAddr: 0x59D8, symBinAddr: 0x100006F64, symSize: 0x18 }
  - { offset: 0x121F7, size: 0x8, addend: 0x0, symName: __ZNKSt16initializer_listIiE3endB8ne180100Ev, symObjAddr: 0x59F0, symBinAddr: 0x100006F7C, symSize: 0x20 }
  - { offset: 0x1221D, size: 0x8, addend: 0x0, symName: __ZNSt3__128__exception_guard_exceptionsINS_6vectorIiNS_9allocatorIiEEE16__destroy_vectorEE10__completeB8ne180100Ev, symObjAddr: 0x5A10, symBinAddr: 0x100006F9C, symSize: 0x1C }
  - { offset: 0x12243, size: 0x8, addend: 0x0, symName: __ZNSt3__128__exception_guard_exceptionsINS_6vectorIiNS_9allocatorIiEEE16__destroy_vectorEED1B8ne180100Ev, symObjAddr: 0x5A2C, symBinAddr: 0x100006FB8, symSize: 0x2C }
  - { offset: 0x1226D, size: 0x8, addend: 0x0, symName: __ZNSt3__117__compressed_pairIPiNS_9allocatorIiEEEC2B8ne180100IDnNS_18__default_init_tagEEEOT_OT0_, symObjAddr: 0x5A58, symBinAddr: 0x100006FE4, symSize: 0x40 }
  - { offset: 0x122C5, size: 0x8, addend: 0x0, symName: __ZNSt3__122__compressed_pair_elemIPiLi0ELb0EEC2B8ne180100IDnvEEOT_, symObjAddr: 0x5A98, symBinAddr: 0x100007024, symSize: 0x1C }
  - { offset: 0x12307, size: 0x8, addend: 0x0, symName: __ZNSt3__122__compressed_pair_elemINS_9allocatorIiEELi1ELb1EEC2B8ne180100ENS_18__default_init_tagE, symObjAddr: 0x5AB4, symBinAddr: 0x100007040, symSize: 0x2C }
  - { offset: 0x1233B, size: 0x8, addend: 0x0, symName: __ZNSt3__19allocatorIiEC2B8ne180100Ev, symObjAddr: 0x5AE0, symBinAddr: 0x10000706C, symSize: 0x2C }
  - { offset: 0x12365, size: 0x8, addend: 0x0, symName: __ZNSt3__116__non_trivial_ifILb1ENS_9allocatorIiEEEC2B8ne180100Ev, symObjAddr: 0x5B0C, symBinAddr: 0x100007098, symSize: 0x14 }
  - { offset: 0x1238F, size: 0x8, addend: 0x0, symName: __ZNSt3__128__exception_guard_exceptionsINS_6vectorIiNS_9allocatorIiEEE16__destroy_vectorEEC1B8ne180100ES5_, symObjAddr: 0x5B20, symBinAddr: 0x1000070AC, symSize: 0x34 }
  - { offset: 0x123C7, size: 0x8, addend: 0x0, symName: __ZNSt3__128__exception_guard_exceptionsINS_6vectorIiNS_9allocatorIiEEE16__destroy_vectorEEC2B8ne180100ES5_, symObjAddr: 0x5B54, symBinAddr: 0x1000070E0, symSize: 0x24 }
  - { offset: 0x123FF, size: 0x8, addend: 0x0, symName: __ZNSt3__16vectorIiNS_9allocatorIiEEE16__destroy_vectorC2B8ne180100ERS3_, symObjAddr: 0x5B78, symBinAddr: 0x100007104, symSize: 0x20 }
  - { offset: 0x12438, size: 0x8, addend: 0x0, symName: __ZNKSt3__16vectorIiNS_9allocatorIiEEE8max_sizeEv, symObjAddr: 0x5B98, symBinAddr: 0x100007124, symSize: 0x60 }
  - { offset: 0x1245E, size: 0x8, addend: 0x0, symName: __ZNKSt3__16vectorIiNS_9allocatorIiEEE20__throw_length_errorB8ne180100Ev, symObjAddr: 0x5BF8, symBinAddr: 0x100007184, symSize: 0x1C }
  - { offset: 0x12484, size: 0x8, addend: 0x0, symName: __ZNSt3__16vectorIiNS_9allocatorIiEEE7__allocB8ne180100Ev, symObjAddr: 0x5C50, symBinAddr: 0x1000071DC, symSize: 0x28 }
  - { offset: 0x124AA, size: 0x8, addend: 0x0, symName: __ZNSt3__16vectorIiNS_9allocatorIiEEE9__end_capB8ne180100Ev, symObjAddr: 0x5C78, symBinAddr: 0x100007204, symSize: 0x28 }
  - { offset: 0x124D0, size: 0x8, addend: 0x0, symName: __ZNKSt3__16vectorIiNS_9allocatorIiEEE14__annotate_newB8ne180100Em, symObjAddr: 0x5CA0, symBinAddr: 0x10000722C, symSize: 0x14 }
  - { offset: 0x12510, size: 0x8, addend: 0x0, symName: __ZNSt3__116allocator_traitsINS_9allocatorIiEEE8max_sizeB8ne180100IS2_vvEEmRKS2_, symObjAddr: 0x5CB4, symBinAddr: 0x100007240, symSize: 0x28 }
  - { offset: 0x1253B, size: 0x8, addend: 0x0, symName: __ZNKSt3__16vectorIiNS_9allocatorIiEEE7__allocB8ne180100Ev, symObjAddr: 0x5CDC, symBinAddr: 0x100007268, symSize: 0x28 }
  - { offset: 0x12561, size: 0x8, addend: 0x0, symName: __ZNKSt3__117__compressed_pairIPiNS_9allocatorIiEEE6secondB8ne180100Ev, symObjAddr: 0x5D04, symBinAddr: 0x100007290, symSize: 0x24 }
  - { offset: 0x12587, size: 0x8, addend: 0x0, symName: __ZNKSt3__122__compressed_pair_elemINS_9allocatorIiEELi1ELb1EE5__getB8ne180100Ev, symObjAddr: 0x5D28, symBinAddr: 0x1000072B4, symSize: 0x14 }
  - { offset: 0x125AD, size: 0x8, addend: 0x0, symName: __ZNSt3__19allocatorIiE17allocate_at_leastB8ne180100Em, symObjAddr: 0x5D78, symBinAddr: 0x100007304, symSize: 0x40 }
  - { offset: 0x125E1, size: 0x8, addend: 0x0, symName: __ZNSt3__19allocatorIiE8allocateB8ne180100Em, symObjAddr: 0x5DB8, symBinAddr: 0x100007344, symSize: 0x54 }
  - { offset: 0x12615, size: 0x8, addend: 0x0, symName: __ZNSt3__117__compressed_pairIPiNS_9allocatorIiEEE6secondB8ne180100Ev, symObjAddr: 0x5E0C, symBinAddr: 0x100007398, symSize: 0x24 }
  - { offset: 0x1263B, size: 0x8, addend: 0x0, symName: __ZNSt3__122__compressed_pair_elemINS_9allocatorIiEELi1ELb1EE5__getB8ne180100Ev, symObjAddr: 0x5E30, symBinAddr: 0x1000073BC, symSize: 0x14 }
  - { offset: 0x12661, size: 0x8, addend: 0x0, symName: __ZNSt3__117__compressed_pairIPiNS_9allocatorIiEEE5firstB8ne180100Ev, symObjAddr: 0x5E44, symBinAddr: 0x1000073D0, symSize: 0x24 }
  - { offset: 0x12687, size: 0x8, addend: 0x0, symName: __ZNSt3__122__compressed_pair_elemIPiLi0ELb0EE5__getB8ne180100Ev, symObjAddr: 0x5E68, symBinAddr: 0x1000073F4, symSize: 0x14 }
  - { offset: 0x126C8, size: 0x8, addend: 0x0, symName: __ZNSt3__16vectorIiNS_9allocatorIiEEE21_ConstructTransactionC1B8ne180100ERS3_m, symObjAddr: 0x5E7C, symBinAddr: 0x100007408, symSize: 0x3C }
  - { offset: 0x12710, size: 0x8, addend: 0x0, symName: __ZNSt3__16vectorIiNS_9allocatorIiEEE21_ConstructTransactionD1B8ne180100Ev, symObjAddr: 0x5F38, symBinAddr: 0x1000074C4, symSize: 0x2C }
  - { offset: 0x1273A, size: 0x8, addend: 0x0, symName: __ZNSt3__16vectorIiNS_9allocatorIiEEE21_ConstructTransactionC2B8ne180100ERS3_m, symObjAddr: 0x5F64, symBinAddr: 0x1000074F0, symSize: 0x44 }
  - { offset: 0x127A3, size: 0x8, addend: 0x0, symName: __ZNSt3__119__unwrap_range_implIPKiS2_E8__unwrapB8ne180100ES2_S2_, symObjAddr: 0x607C, symBinAddr: 0x100007608, symSize: 0x58 }
  - { offset: 0x127DA, size: 0x8, addend: 0x0, symName: __ZNSt3__14pairIPKiS2_EC1B8ne180100IS2_S2_TnNS_9enable_ifIXclsr10_CheckArgsE17__enable_implicitIT_T0_EEEiE4typeELi0EEEOS6_OS7_, symObjAddr: 0x60F8, symBinAddr: 0x100007684, symSize: 0x3C }
  - { offset: 0x12838, size: 0x8, addend: 0x0, symName: __ZNSt3__118__unwrap_iter_implIPKiLb1EE8__unwrapB8ne180100ES2_, symObjAddr: 0x6134, symBinAddr: 0x1000076C0, symSize: 0x24 }
  - { offset: 0x1285B, size: 0x8, addend: 0x0, symName: __ZNSt3__14pairIPKiS2_EC2B8ne180100IS2_S2_TnNS_9enable_ifIXclsr10_CheckArgsE17__enable_implicitIT_T0_EEEiE4typeELi0EEEOS6_OS7_, symObjAddr: 0x616C, symBinAddr: 0x1000076F8, symSize: 0x34 }
  - { offset: 0x128E4, size: 0x8, addend: 0x0, symName: __ZNKSt3__114__copy_trivialclB8ne180100IKiiTnNS_9enable_ifIXsr38__can_lower_copy_assignment_to_memmoveIT_T0_EE5valueEiE4typeELi0EEENS_4pairIPS4_PS5_EES9_S9_SA_, symObjAddr: 0x631C, symBinAddr: 0x1000078A8, symSize: 0x48 }
  - { offset: 0x12958, size: 0x8, addend: 0x0, symName: __ZNSt3__14pairIPKiPiEC1B8ne180100IRS2_S3_TnNS_9enable_ifIXclsr10_CheckArgsE17__enable_implicitIT_T0_EEEiE4typeELi0EEEOS8_OS9_, symObjAddr: 0x64E0, symBinAddr: 0x100007A6C, symSize: 0x3C }
  - { offset: 0x129B6, size: 0x8, addend: 0x0, symName: __ZNSt3__14pairIPKiPiEC2B8ne180100IRS2_S3_TnNS_9enable_ifIXclsr10_CheckArgsE17__enable_implicitIT_T0_EEEiE4typeELi0EEEOS8_OS9_, symObjAddr: 0x651C, symBinAddr: 0x100007AA8, symSize: 0x34 }
  - { offset: 0x12A14, size: 0x8, addend: 0x0, symName: __ZNSt3__14pairIPKiPiEC1B8ne180100IS2_S3_TnNS_9enable_ifIXclsr10_CheckArgsE17__enable_implicitIT_T0_EEEiE4typeELi0EEEOS7_OS8_, symObjAddr: 0x6550, symBinAddr: 0x100007ADC, symSize: 0x3C }
  - { offset: 0x12A72, size: 0x8, addend: 0x0, symName: __ZNSt3__14pairIPKiPiEC2B8ne180100IS2_S3_TnNS_9enable_ifIXclsr10_CheckArgsE17__enable_implicitIT_T0_EEEiE4typeELi0EEEOS7_OS8_, symObjAddr: 0x658C, symBinAddr: 0x100007B18, symSize: 0x34 }
  - { offset: 0x12AD0, size: 0x8, addend: 0x0, symName: __ZNSt3__119__unwrap_range_implIPKiS2_E8__rewrapB8ne180100ES2_S2_, symObjAddr: 0x65C0, symBinAddr: 0x100007B4C, symSize: 0x2C }
  - { offset: 0x12B01, size: 0x8, addend: 0x0, symName: __ZNSt3__118__unwrap_iter_implIPKiLb1EE8__rewrapB8ne180100ES2_S2_, symObjAddr: 0x6628, symBinAddr: 0x100007BB4, symSize: 0x50 }
  - { offset: 0x12B32, size: 0x8, addend: 0x0, symName: __ZNSt3__118__unwrap_iter_implIPiLb1EE8__unwrapB8ne180100ES1_, symObjAddr: 0x6678, symBinAddr: 0x100007C04, symSize: 0x24 }
  - { offset: 0x12B55, size: 0x8, addend: 0x0, symName: __ZNSt3__118__unwrap_iter_implIPiLb1EE8__rewrapB8ne180100ES1_S1_, symObjAddr: 0x66B0, symBinAddr: 0x100007C3C, symSize: 0x50 }
  - { offset: 0x12B86, size: 0x8, addend: 0x0, symName: __ZNSt3__16vectorIiNS_9allocatorIiEEE21_ConstructTransactionD2B8ne180100Ev, symObjAddr: 0x6700, symBinAddr: 0x100007C8C, symSize: 0x20 }
  - { offset: 0x12BB0, size: 0x8, addend: 0x0, symName: __ZNSt3__128__exception_guard_exceptionsINS_6vectorIiNS_9allocatorIiEEE16__destroy_vectorEED2B8ne180100Ev, symObjAddr: 0x6720, symBinAddr: 0x100007CAC, symSize: 0x50 }
  - { offset: 0x12BDA, size: 0x8, addend: 0x0, symName: __ZNSt3__16vectorIiNS_9allocatorIiEEE16__destroy_vectorclB8ne180100Ev, symObjAddr: 0x6770, symBinAddr: 0x100007CFC, symSize: 0x88 }
  - { offset: 0x12C00, size: 0x8, addend: 0x0, symName: __ZNSt3__16vectorIiNS_9allocatorIiEEE7__clearB8ne180100Ev, symObjAddr: 0x67F8, symBinAddr: 0x100007D84, symSize: 0x28 }
  - { offset: 0x12C26, size: 0x8, addend: 0x0, symName: __ZNKSt3__16vectorIiNS_9allocatorIiEEE17__annotate_deleteB8ne180100Ev, symObjAddr: 0x6820, symBinAddr: 0x100007DAC, symSize: 0x10 }
  - { offset: 0x12C4C, size: 0x8, addend: 0x0, symName: __ZNSt3__116allocator_traitsINS_9allocatorIiEEE10deallocateB8ne180100ERS2_Pim, symObjAddr: 0x6830, symBinAddr: 0x100007DBC, symSize: 0x34 }
  - { offset: 0x12C8E, size: 0x8, addend: 0x0, symName: __ZNKSt3__16vectorIiNS_9allocatorIiEEE8capacityB8ne180100Ev, symObjAddr: 0x6864, symBinAddr: 0x100007DF0, symSize: 0x40 }
  - { offset: 0x12CB4, size: 0x8, addend: 0x0, symName: __ZNSt3__16vectorIiNS_9allocatorIiEEE22__base_destruct_at_endB8ne180100EPi, symObjAddr: 0x68A4, symBinAddr: 0x100007E30, symSize: 0x88 }
  - { offset: 0x12CF8, size: 0x8, addend: 0x0, symName: __ZNSt3__116allocator_traitsINS_9allocatorIiEEE7destroyB8ne180100IivvEEvRS2_PT_, symObjAddr: 0x692C, symBinAddr: 0x100007EB8, symSize: 0x28 }
  - { offset: 0x12D32, size: 0x8, addend: 0x0, symName: __ZNSt3__19allocatorIiE10deallocateB8ne180100EPim, symObjAddr: 0x6964, symBinAddr: 0x100007EF0, symSize: 0x40 }
  - { offset: 0x12D74, size: 0x8, addend: 0x0, symName: __ZNKSt3__16vectorIiNS_9allocatorIiEEE9__end_capB8ne180100Ev, symObjAddr: 0x69A4, symBinAddr: 0x100007F30, symSize: 0x28 }
  - { offset: 0x12D9A, size: 0x8, addend: 0x0, symName: __ZNKSt3__117__compressed_pairIPiNS_9allocatorIiEEE5firstB8ne180100Ev, symObjAddr: 0x69CC, symBinAddr: 0x100007F58, symSize: 0x24 }
  - { offset: 0x12DC0, size: 0x8, addend: 0x0, symName: __ZNKSt3__122__compressed_pair_elemIPiLi0ELb0EE5__getB8ne180100Ev, symObjAddr: 0x69F0, symBinAddr: 0x100007F7C, symSize: 0x14 }
  - { offset: 0x12DE6, size: 0x8, addend: 0x0, symName: __ZNSt3__16vectorIiNS_9allocatorIiEEED2B8ne180100Ev, symObjAddr: 0x6A04, symBinAddr: 0x100007F90, symSize: 0x40 }
  - { offset: 0x12E10, size: 0x8, addend: 0x0, symName: __ZNSt3__16vectorINS0_IiNS_9allocatorIiEEEENS1_IS3_EEEC2B8ne180100ESt16initializer_listIS3_E, symObjAddr: 0x6A44, symBinAddr: 0x100007FD0, symSize: 0x11C }
  - { offset: 0x12E5E, size: 0x8, addend: 0x0, symName: __ZNSt3__117__compressed_pairIPNS_6vectorIiNS_9allocatorIiEEEENS2_IS4_EEEC1B8ne180100IDnNS_18__default_init_tagEEEOT_OT0_, symObjAddr: 0x6B60, symBinAddr: 0x1000080EC, symSize: 0x3C }
  - { offset: 0x12EB6, size: 0x8, addend: 0x0, symName: __ZNSt3__16vectorINS0_IiNS_9allocatorIiEEEENS1_IS3_EEE16__destroy_vectorC1B8ne180100ERS5_, symObjAddr: 0x6BDC, symBinAddr: 0x100008168, symSize: 0x34 }
  - { offset: 0x12EEF, size: 0x8, addend: 0x0, symName: __ZNKSt16initializer_listINSt3__16vectorIiNS0_9allocatorIiEEEEE4sizeB8ne180100Ev, symObjAddr: 0x6C10, symBinAddr: 0x10000819C, symSize: 0x18 }
  - { offset: 0x12F15, size: 0x8, addend: 0x0, symName: __ZNSt3__16vectorINS0_IiNS_9allocatorIiEEEENS1_IS3_EEE11__vallocateB8ne180100Em, symObjAddr: 0x6C28, symBinAddr: 0x1000081B4, symSize: 0xB0 }
  - { offset: 0x12F59, size: 0x8, addend: 0x0, symName: __ZNSt3__16vectorINS0_IiNS_9allocatorIiEEEENS1_IS3_EEE18__construct_at_endIPKS3_S8_EEvT_T0_m, symObjAddr: 0x6CD8, symBinAddr: 0x100008264, symSize: 0x8C }
  - { offset: 0x12FCD, size: 0x8, addend: 0x0, symName: __ZNKSt16initializer_listINSt3__16vectorIiNS0_9allocatorIiEEEEE5beginB8ne180100Ev, symObjAddr: 0x6D64, symBinAddr: 0x1000082F0, symSize: 0x18 }
  - { offset: 0x12FF3, size: 0x8, addend: 0x0, symName: __ZNKSt16initializer_listINSt3__16vectorIiNS0_9allocatorIiEEEEE3endB8ne180100Ev, symObjAddr: 0x6D7C, symBinAddr: 0x100008308, symSize: 0x28 }
  - { offset: 0x13019, size: 0x8, addend: 0x0, symName: __ZNSt3__128__exception_guard_exceptionsINS_6vectorINS1_IiNS_9allocatorIiEEEENS2_IS4_EEE16__destroy_vectorEE10__completeB8ne180100Ev, symObjAddr: 0x6DA4, symBinAddr: 0x100008330, symSize: 0x1C }
  - { offset: 0x1303F, size: 0x8, addend: 0x0, symName: __ZNSt3__128__exception_guard_exceptionsINS_6vectorINS1_IiNS_9allocatorIiEEEENS2_IS4_EEE16__destroy_vectorEED1B8ne180100Ev, symObjAddr: 0x6DC0, symBinAddr: 0x10000834C, symSize: 0x2C }
  - { offset: 0x13069, size: 0x8, addend: 0x0, symName: __ZNSt3__117__compressed_pairIPNS_6vectorIiNS_9allocatorIiEEEENS2_IS4_EEEC2B8ne180100IDnNS_18__default_init_tagEEEOT_OT0_, symObjAddr: 0x6DEC, symBinAddr: 0x100008378, symSize: 0x40 }
  - { offset: 0x130C1, size: 0x8, addend: 0x0, symName: __ZNSt3__122__compressed_pair_elemIPNS_6vectorIiNS_9allocatorIiEEEELi0ELb0EEC2B8ne180100IDnvEEOT_, symObjAddr: 0x6E2C, symBinAddr: 0x1000083B8, symSize: 0x1C }
  - { offset: 0x13103, size: 0x8, addend: 0x0, symName: __ZNSt3__122__compressed_pair_elemINS_9allocatorINS_6vectorIiNS1_IiEEEEEELi1ELb1EEC2B8ne180100ENS_18__default_init_tagE, symObjAddr: 0x6E48, symBinAddr: 0x1000083D4, symSize: 0x2C }
  - { offset: 0x13137, size: 0x8, addend: 0x0, symName: __ZNSt3__19allocatorINS_6vectorIiNS0_IiEEEEEC2B8ne180100Ev, symObjAddr: 0x6E74, symBinAddr: 0x100008400, symSize: 0x2C }
  - { offset: 0x13161, size: 0x8, addend: 0x0, symName: __ZNSt3__116__non_trivial_ifILb1ENS_9allocatorINS_6vectorIiNS1_IiEEEEEEEC2B8ne180100Ev, symObjAddr: 0x6EA0, symBinAddr: 0x10000842C, symSize: 0x14 }
  - { offset: 0x1318B, size: 0x8, addend: 0x0, symName: __ZNSt3__128__exception_guard_exceptionsINS_6vectorINS1_IiNS_9allocatorIiEEEENS2_IS4_EEE16__destroy_vectorEEC1B8ne180100ES7_, symObjAddr: 0x6EB4, symBinAddr: 0x100008440, symSize: 0x34 }
  - { offset: 0x131C3, size: 0x8, addend: 0x0, symName: __ZNSt3__128__exception_guard_exceptionsINS_6vectorINS1_IiNS_9allocatorIiEEEENS2_IS4_EEE16__destroy_vectorEEC2B8ne180100ES7_, symObjAddr: 0x6EE8, symBinAddr: 0x100008474, symSize: 0x24 }
  - { offset: 0x131FB, size: 0x8, addend: 0x0, symName: __ZNSt3__16vectorINS0_IiNS_9allocatorIiEEEENS1_IS3_EEE16__destroy_vectorC2B8ne180100ERS5_, symObjAddr: 0x6F0C, symBinAddr: 0x100008498, symSize: 0x20 }
  - { offset: 0x13234, size: 0x8, addend: 0x0, symName: __ZNKSt3__16vectorINS0_IiNS_9allocatorIiEEEENS1_IS3_EEE8max_sizeEv, symObjAddr: 0x6F2C, symBinAddr: 0x1000084B8, symSize: 0x60 }
  - { offset: 0x1325A, size: 0x8, addend: 0x0, symName: __ZNKSt3__16vectorINS0_IiNS_9allocatorIiEEEENS1_IS3_EEE20__throw_length_errorB8ne180100Ev, symObjAddr: 0x6F8C, symBinAddr: 0x100008518, symSize: 0x1C }
  - { offset: 0x13280, size: 0x8, addend: 0x0, symName: __ZNSt3__16vectorINS0_IiNS_9allocatorIiEEEENS1_IS3_EEE7__allocB8ne180100Ev, symObjAddr: 0x6FE4, symBinAddr: 0x100008570, symSize: 0x28 }
  - { offset: 0x132A6, size: 0x8, addend: 0x0, symName: __ZNSt3__16vectorINS0_IiNS_9allocatorIiEEEENS1_IS3_EEE9__end_capB8ne180100Ev, symObjAddr: 0x700C, symBinAddr: 0x100008598, symSize: 0x28 }
  - { offset: 0x132CC, size: 0x8, addend: 0x0, symName: __ZNKSt3__16vectorINS0_IiNS_9allocatorIiEEEENS1_IS3_EEE14__annotate_newB8ne180100Em, symObjAddr: 0x7034, symBinAddr: 0x1000085C0, symSize: 0x14 }
  - { offset: 0x1330C, size: 0x8, addend: 0x0, symName: __ZNSt3__116allocator_traitsINS_9allocatorINS_6vectorIiNS1_IiEEEEEEE8max_sizeB8ne180100IS5_vvEEmRKS5_, symObjAddr: 0x7048, symBinAddr: 0x1000085D4, symSize: 0x28 }
  - { offset: 0x13337, size: 0x8, addend: 0x0, symName: __ZNKSt3__16vectorINS0_IiNS_9allocatorIiEEEENS1_IS3_EEE7__allocB8ne180100Ev, symObjAddr: 0x7070, symBinAddr: 0x1000085FC, symSize: 0x28 }
  - { offset: 0x1335D, size: 0x8, addend: 0x0, symName: __ZNKSt3__117__compressed_pairIPNS_6vectorIiNS_9allocatorIiEEEENS2_IS4_EEE6secondB8ne180100Ev, symObjAddr: 0x7098, symBinAddr: 0x100008624, symSize: 0x24 }
  - { offset: 0x13383, size: 0x8, addend: 0x0, symName: __ZNKSt3__122__compressed_pair_elemINS_9allocatorINS_6vectorIiNS1_IiEEEEEELi1ELb1EE5__getB8ne180100Ev, symObjAddr: 0x70BC, symBinAddr: 0x100008648, symSize: 0x14 }
  - { offset: 0x133A9, size: 0x8, addend: 0x0, symName: __ZNSt3__19allocatorINS_6vectorIiNS0_IiEEEEE17allocate_at_leastB8ne180100Em, symObjAddr: 0x710C, symBinAddr: 0x100008698, symSize: 0x40 }
  - { offset: 0x133DD, size: 0x8, addend: 0x0, symName: __ZNSt3__19allocatorINS_6vectorIiNS0_IiEEEEE8allocateB8ne180100Em, symObjAddr: 0x714C, symBinAddr: 0x1000086D8, symSize: 0x58 }
  - { offset: 0x13411, size: 0x8, addend: 0x0, symName: __ZNSt3__117__compressed_pairIPNS_6vectorIiNS_9allocatorIiEEEENS2_IS4_EEE6secondB8ne180100Ev, symObjAddr: 0x71A4, symBinAddr: 0x100008730, symSize: 0x24 }
  - { offset: 0x13437, size: 0x8, addend: 0x0, symName: __ZNSt3__122__compressed_pair_elemINS_9allocatorINS_6vectorIiNS1_IiEEEEEELi1ELb1EE5__getB8ne180100Ev, symObjAddr: 0x71C8, symBinAddr: 0x100008754, symSize: 0x14 }
  - { offset: 0x1345D, size: 0x8, addend: 0x0, symName: __ZNSt3__117__compressed_pairIPNS_6vectorIiNS_9allocatorIiEEEENS2_IS4_EEE5firstB8ne180100Ev, symObjAddr: 0x71DC, symBinAddr: 0x100008768, symSize: 0x24 }
  - { offset: 0x13483, size: 0x8, addend: 0x0, symName: __ZNSt3__122__compressed_pair_elemIPNS_6vectorIiNS_9allocatorIiEEEELi0ELb0EE5__getB8ne180100Ev, symObjAddr: 0x7200, symBinAddr: 0x10000878C, symSize: 0x14 }
  - { offset: 0x134C4, size: 0x8, addend: 0x0, symName: __ZNSt3__16vectorINS0_IiNS_9allocatorIiEEEENS1_IS3_EEE21_ConstructTransactionC1B8ne180100ERS5_m, symObjAddr: 0x7214, symBinAddr: 0x1000087A0, symSize: 0x3C }
  - { offset: 0x1350C, size: 0x8, addend: 0x0, symName: __ZNSt3__16vectorINS0_IiNS_9allocatorIiEEEENS1_IS3_EEE21_ConstructTransactionD1B8ne180100Ev, symObjAddr: 0x72D0, symBinAddr: 0x10000885C, symSize: 0x2C }
  - { offset: 0x13536, size: 0x8, addend: 0x0, symName: __ZNSt3__16vectorINS0_IiNS_9allocatorIiEEEENS1_IS3_EEE21_ConstructTransactionC2B8ne180100ERS5_m, symObjAddr: 0x72FC, symBinAddr: 0x100008888, symSize: 0x4C }
  - { offset: 0x1359F, size: 0x8, addend: 0x0, symName: __ZNSt3__119__unwrap_range_implIPKNS_6vectorIiNS_9allocatorIiEEEES6_E8__unwrapB8ne180100ES6_S6_, symObjAddr: 0x74D4, symBinAddr: 0x100008A60, symSize: 0x58 }
  - { offset: 0x135D6, size: 0x8, addend: 0x0, symName: __ZNSt3__14pairIPKNS_6vectorIiNS_9allocatorIiEEEES6_EC1B8ne180100IS6_S6_TnNS_9enable_ifIXclsr10_CheckArgsE17__enable_implicitIT_T0_EEEiE4typeELi0EEEOSA_OSB_, symObjAddr: 0x7550, symBinAddr: 0x100008ADC, symSize: 0x3C }
  - { offset: 0x13634, size: 0x8, addend: 0x0, symName: __ZNSt3__118__unwrap_iter_implIPKNS_6vectorIiNS_9allocatorIiEEEELb1EE8__unwrapB8ne180100ES6_, symObjAddr: 0x758C, symBinAddr: 0x100008B18, symSize: 0x24 }
  - { offset: 0x13657, size: 0x8, addend: 0x0, symName: __ZNSt3__14pairIPKNS_6vectorIiNS_9allocatorIiEEEES6_EC2B8ne180100IS6_S6_TnNS_9enable_ifIXclsr10_CheckArgsE17__enable_implicitIT_T0_EEEiE4typeELi0EEEOSA_OSB_, symObjAddr: 0x75C4, symBinAddr: 0x100008B50, symSize: 0x34 }
  - { offset: 0x136B5, size: 0x8, addend: 0x0, symName: __ZNSt3__129_AllocatorDestroyRangeReverseINS_9allocatorINS_6vectorIiNS1_IiEEEEEEPS4_EC1B8ne180100ERS5_RS6_S9_, symObjAddr: 0x7644, symBinAddr: 0x100008BD0, symSize: 0x44 }
  - { offset: 0x1370C, size: 0x8, addend: 0x0, symName: __ZNSt3__116allocator_traitsINS_9allocatorINS_6vectorIiNS1_IiEEEEEEE9constructB8ne180100IS4_JRKS4_EvvEEvRS5_PT_DpOT0_, symObjAddr: 0x7688, symBinAddr: 0x100008C14, symSize: 0x30 }
  - { offset: 0x13760, size: 0x8, addend: 0x0, symName: __ZNSt3__128__exception_guard_exceptionsINS_29_AllocatorDestroyRangeReverseINS_9allocatorINS_6vectorIiNS2_IiEEEEEEPS5_EEE10__completeB8ne180100Ev, symObjAddr: 0x76CC, symBinAddr: 0x100008C58, symSize: 0x1C }
  - { offset: 0x13786, size: 0x8, addend: 0x0, symName: __ZNSt3__128__exception_guard_exceptionsINS_29_AllocatorDestroyRangeReverseINS_9allocatorINS_6vectorIiNS2_IiEEEEEEPS5_EEED1B8ne180100Ev, symObjAddr: 0x76E8, symBinAddr: 0x100008C74, symSize: 0x2C }
  - { offset: 0x137B0, size: 0x8, addend: 0x0, symName: __ZNSt3__128__exception_guard_exceptionsINS_29_AllocatorDestroyRangeReverseINS_9allocatorINS_6vectorIiNS2_IiEEEEEEPS5_EEEC1B8ne180100ES8_, symObjAddr: 0x7714, symBinAddr: 0x100008CA0, symSize: 0x34 }
  - { offset: 0x137E9, size: 0x8, addend: 0x0, symName: __ZNSt3__128__exception_guard_exceptionsINS_29_AllocatorDestroyRangeReverseINS_9allocatorINS_6vectorIiNS2_IiEEEEEEPS5_EEEC2B8ne180100ES8_, symObjAddr: 0x7748, symBinAddr: 0x100008CD4, symSize: 0x30 }
  - { offset: 0x13822, size: 0x8, addend: 0x0, symName: __ZNSt3__129_AllocatorDestroyRangeReverseINS_9allocatorINS_6vectorIiNS1_IiEEEEEEPS4_EC2B8ne180100ERS5_RS6_S9_, symObjAddr: 0x7778, symBinAddr: 0x100008D04, symSize: 0x38 }
  - { offset: 0x13879, size: 0x8, addend: 0x0, symName: __ZNSt3__128__exception_guard_exceptionsINS_29_AllocatorDestroyRangeReverseINS_9allocatorINS_6vectorIiNS2_IiEEEEEEPS5_EEED2B8ne180100Ev, symObjAddr: 0x7818, symBinAddr: 0x100008DA4, symSize: 0x50 }
  - { offset: 0x138A3, size: 0x8, addend: 0x0, symName: __ZNKSt3__129_AllocatorDestroyRangeReverseINS_9allocatorINS_6vectorIiNS1_IiEEEEEEPS4_EclB8ne180100Ev, symObjAddr: 0x7868, symBinAddr: 0x100008DF4, symSize: 0x68 }
  - { offset: 0x138C9, size: 0x8, addend: 0x0, symName: __ZNSt3__116reverse_iteratorIPNS_6vectorIiNS_9allocatorIiEEEEEC1B8ne180100ES5_, symObjAddr: 0x7940, symBinAddr: 0x100008ECC, symSize: 0x34 }
  - { offset: 0x13901, size: 0x8, addend: 0x0, symName: __ZNSt3__116allocator_traitsINS_9allocatorINS_6vectorIiNS1_IiEEEEEEE7destroyB8ne180100IS4_vvEEvRS5_PT_, symObjAddr: 0x79B8, symBinAddr: 0x100008F44, symSize: 0x28 }
  - { offset: 0x1393B, size: 0x8, addend: 0x0, symName: __ZNSt3__116reverse_iteratorIPNS_6vectorIiNS_9allocatorIiEEEEEppB8ne180100Ev, symObjAddr: 0x7A04, symBinAddr: 0x100008F90, symSize: 0x20 }
  - { offset: 0x13961, size: 0x8, addend: 0x0, symName: __ZNKSt3__116reverse_iteratorIPNS_6vectorIiNS_9allocatorIiEEEEE4baseB8ne180100Ev, symObjAddr: 0x7A24, symBinAddr: 0x100008FB0, symSize: 0x18 }
  - { offset: 0x1398D, size: 0x8, addend: 0x0, symName: __ZNSt3__119__to_address_helperINS_16reverse_iteratorIPNS_6vectorIiNS_9allocatorIiEEEEEEvE6__callB8ne180100ERKS7_, symObjAddr: 0x7A60, symBinAddr: 0x100008FEC, symSize: 0x38 }
  - { offset: 0x139B0, size: 0x8, addend: 0x0, symName: __ZNKSt3__116reverse_iteratorIPNS_6vectorIiNS_9allocatorIiEEEEEptB8ne180100EvQoo12is_pointer_vIT_ErQS7__XcldtfpK_onptEE, symObjAddr: 0x7A98, symBinAddr: 0x100009024, symSize: 0x2C }
  - { offset: 0x139D6, size: 0x8, addend: 0x0, symName: __ZNSt3__116reverse_iteratorIPNS_6vectorIiNS_9allocatorIiEEEEEC2B8ne180100ES5_, symObjAddr: 0x7B7C, symBinAddr: 0x100009108, symSize: 0x28 }
  - { offset: 0x13A0E, size: 0x8, addend: 0x0, symName: __ZNSt3__118__unwrap_iter_implIPNS_6vectorIiNS_9allocatorIiEEEELb1EE8__unwrapB8ne180100ES5_, symObjAddr: 0x7BA4, symBinAddr: 0x100009130, symSize: 0x24 }
  - { offset: 0x13A31, size: 0x8, addend: 0x0, symName: __ZNSt3__118__unwrap_iter_implIPNS_6vectorIiNS_9allocatorIiEEEELb1EE8__rewrapB8ne180100ES5_S5_, symObjAddr: 0x7BC8, symBinAddr: 0x100009154, symSize: 0x58 }
  - { offset: 0x13A62, size: 0x8, addend: 0x0, symName: __ZNSt3__16vectorINS0_IiNS_9allocatorIiEEEENS1_IS3_EEE21_ConstructTransactionD2B8ne180100Ev, symObjAddr: 0x7C20, symBinAddr: 0x1000091AC, symSize: 0x20 }
  - { offset: 0x13A8C, size: 0x8, addend: 0x0, symName: __ZNSt3__128__exception_guard_exceptionsINS_6vectorINS1_IiNS_9allocatorIiEEEENS2_IS4_EEE16__destroy_vectorEED2B8ne180100Ev, symObjAddr: 0x7C40, symBinAddr: 0x1000091CC, symSize: 0x50 }
  - { offset: 0x13AB6, size: 0x8, addend: 0x0, symName: __ZNSt3__16vectorINS0_IiNS_9allocatorIiEEEENS1_IS3_EEE16__destroy_vectorclB8ne180100Ev, symObjAddr: 0x7C90, symBinAddr: 0x10000921C, symSize: 0x88 }
  - { offset: 0x13ADC, size: 0x8, addend: 0x0, symName: __ZNSt3__16vectorINS0_IiNS_9allocatorIiEEEENS1_IS3_EEE7__clearB8ne180100Ev, symObjAddr: 0x7D18, symBinAddr: 0x1000092A4, symSize: 0x28 }
  - { offset: 0x13B02, size: 0x8, addend: 0x0, symName: __ZNKSt3__16vectorINS0_IiNS_9allocatorIiEEEENS1_IS3_EEE17__annotate_deleteB8ne180100Ev, symObjAddr: 0x7D40, symBinAddr: 0x1000092CC, symSize: 0x10 }
  - { offset: 0x13B28, size: 0x8, addend: 0x0, symName: __ZNSt3__116allocator_traitsINS_9allocatorINS_6vectorIiNS1_IiEEEEEEE10deallocateB8ne180100ERS5_PS4_m, symObjAddr: 0x7D50, symBinAddr: 0x1000092DC, symSize: 0x34 }
  - { offset: 0x13B6A, size: 0x8, addend: 0x0, symName: __ZNKSt3__16vectorINS0_IiNS_9allocatorIiEEEENS1_IS3_EEE8capacityB8ne180100Ev, symObjAddr: 0x7D84, symBinAddr: 0x100009310, symSize: 0x40 }
  - { offset: 0x13B90, size: 0x8, addend: 0x0, symName: __ZNSt3__16vectorINS0_IiNS_9allocatorIiEEEENS1_IS3_EEE22__base_destruct_at_endB8ne180100EPS3_, symObjAddr: 0x7DC4, symBinAddr: 0x100009350, symSize: 0x88 }
  - { offset: 0x13BD4, size: 0x8, addend: 0x0, symName: __ZNSt3__19allocatorINS_6vectorIiNS0_IiEEEEE10deallocateB8ne180100EPS3_m, symObjAddr: 0x7E4C, symBinAddr: 0x1000093D8, symSize: 0x44 }
  - { offset: 0x13C16, size: 0x8, addend: 0x0, symName: __ZNKSt3__16vectorINS0_IiNS_9allocatorIiEEEENS1_IS3_EEE9__end_capB8ne180100Ev, symObjAddr: 0x7E90, symBinAddr: 0x10000941C, symSize: 0x28 }
  - { offset: 0x13C3C, size: 0x8, addend: 0x0, symName: __ZNKSt3__117__compressed_pairIPNS_6vectorIiNS_9allocatorIiEEEENS2_IS4_EEE5firstB8ne180100Ev, symObjAddr: 0x7EB8, symBinAddr: 0x100009444, symSize: 0x24 }
  - { offset: 0x13C62, size: 0x8, addend: 0x0, symName: __ZNKSt3__122__compressed_pair_elemIPNS_6vectorIiNS_9allocatorIiEEEELi0ELb0EE5__getB8ne180100Ev, symObjAddr: 0x7EDC, symBinAddr: 0x100009468, symSize: 0x14 }
  - { offset: 0x13C88, size: 0x8, addend: 0x0, symName: __ZNKSt3__111__wrap_iterIPiE4baseB8ne180100Ev, symObjAddr: 0x7F34, symBinAddr: 0x1000094C0, symSize: 0x18 }
  - { offset: 0x13CAE, size: 0x8, addend: 0x0, symName: __ZNSt3__16vectorIiNS_9allocatorIiEEEC2ERKS3_, symObjAddr: 0x7F4C, symBinAddr: 0x1000094D8, symSize: 0x94 }
  - { offset: 0x13CE7, size: 0x8, addend: 0x0, symName: __ZNSt3__116allocator_traitsINS_9allocatorIiEEE37select_on_container_copy_constructionB8ne180100IS2_vvEES2_RKS2_, symObjAddr: 0x7FE0, symBinAddr: 0x10000956C, symSize: 0x10 }
  - { offset: 0x13D1C, size: 0x8, addend: 0x0, symName: __ZNSt3__117__compressed_pairIPiNS_9allocatorIiEEEC1B8ne180100IDnS3_EEOT_OT0_, symObjAddr: 0x7FF0, symBinAddr: 0x10000957C, symSize: 0x3C }
  - { offset: 0x13D74, size: 0x8, addend: 0x0, symName: __ZNSt3__16vectorIiNS_9allocatorIiEEE16__init_with_sizeB8ne180100IPiS5_EEvT_T0_m, symObjAddr: 0x802C, symBinAddr: 0x1000095B8, symSize: 0xB4 }
  - { offset: 0x13DE8, size: 0x8, addend: 0x0, symName: __ZNSt3__117__compressed_pairIPiNS_9allocatorIiEEEC2B8ne180100IDnS3_EEOT_OT0_, symObjAddr: 0x80E0, symBinAddr: 0x10000966C, symSize: 0x44 }
  - { offset: 0x13E40, size: 0x8, addend: 0x0, symName: __ZNSt3__122__compressed_pair_elemINS_9allocatorIiEELi1ELb1EEC2B8ne180100IS2_vEEOT_, symObjAddr: 0x8124, symBinAddr: 0x1000096B0, symSize: 0x18 }
  - { offset: 0x13E82, size: 0x8, addend: 0x0, symName: __ZNSt3__16vectorIiNS_9allocatorIiEEE18__construct_at_endIPiS5_EEvT_T0_m, symObjAddr: 0x813C, symBinAddr: 0x1000096C8, symSize: 0x8C }
  - { offset: 0x13F17, size: 0x8, addend: 0x0, symName: __ZNSt3__119__unwrap_range_implIPiS1_E8__unwrapB8ne180100ES1_S1_, symObjAddr: 0x82BC, symBinAddr: 0x100009848, symSize: 0x58 }
  - { offset: 0x13F48, size: 0x8, addend: 0x0, symName: __ZNSt3__14pairIPiS1_EC1B8ne180100IS1_S1_TnNS_9enable_ifIXclsr10_CheckArgsE17__enable_implicitIT_T0_EEEiE4typeELi0EEEOS5_OS6_, symObjAddr: 0x8314, symBinAddr: 0x1000098A0, symSize: 0x3C }
  - { offset: 0x13FA6, size: 0x8, addend: 0x0, symName: __ZNSt3__14pairIPiS1_EC2B8ne180100IS1_S1_TnNS_9enable_ifIXclsr10_CheckArgsE17__enable_implicitIT_T0_EEEiE4typeELi0EEEOS5_OS6_, symObjAddr: 0x8350, symBinAddr: 0x1000098DC, symSize: 0x34 }
  - { offset: 0x14004, size: 0x8, addend: 0x0, symName: __ZNKSt3__114__copy_trivialclB8ne180100IiiTnNS_9enable_ifIXsr38__can_lower_copy_assignment_to_memmoveIT_T0_EE5valueEiE4typeELi0EEENS_4pairIPS3_PS4_EES8_S8_S9_, symObjAddr: 0x8500, symBinAddr: 0x100009A8C, symSize: 0x48 }
  - { offset: 0x1406C, size: 0x8, addend: 0x0, symName: __ZNSt3__14pairIPiS1_EC1B8ne180100IRS1_S1_TnNS_9enable_ifIXclsr10_CheckArgsE17__enable_implicitIT_T0_EEEiE4typeELi0EEEOS6_OS7_, symObjAddr: 0x86C4, symBinAddr: 0x100009C50, symSize: 0x3C }
  - { offset: 0x140CA, size: 0x8, addend: 0x0, symName: __ZNSt3__14pairIPiS1_EC2B8ne180100IRS1_S1_TnNS_9enable_ifIXclsr10_CheckArgsE17__enable_implicitIT_T0_EEEiE4typeELi0EEEOS6_OS7_, symObjAddr: 0x8700, symBinAddr: 0x100009C8C, symSize: 0x34 }
  - { offset: 0x14128, size: 0x8, addend: 0x0, symName: __ZNSt3__119__unwrap_range_implIPiS1_E8__rewrapB8ne180100ES1_S1_, symObjAddr: 0x8734, symBinAddr: 0x100009CC0, symSize: 0x2C }
  - { offset: 0x14159, size: 0x8, addend: 0x0, symName: __ZNSt3__16vectorINS0_IiNS_9allocatorIiEEEENS1_IS3_EEED2B8ne180100Ev, symObjAddr: 0x8760, symBinAddr: 0x100009CEC, symSize: 0x40 }
  - { offset: 0x14183, size: 0x8, addend: 0x0, symName: __ZNSt3__15arrayINS_12basic_stringIcNS_11char_traitsIcEENS_9allocatorIcEEEELm4EED2Ev, symObjAddr: 0x87A0, symBinAddr: 0x100009D2C, symSize: 0x60 }
  - { offset: 0x141B9, size: 0x8, addend: 0x0, symName: '__ZZ6LambdavENK3$_0clEi', symObjAddr: 0x8800, symBinAddr: 0x100009D8C, symSize: 0x3C }
  - { offset: 0x141FB, size: 0x8, addend: 0x0, symName: '__ZZ6LambdavENK3$_1clEi', symObjAddr: 0x883C, symBinAddr: 0x100009DC8, symSize: 0x3C }
  - { offset: 0x14258, size: 0x8, addend: 0x0, symName: __ZN9PrintFuncclEi, symObjAddr: 0x8878, symBinAddr: 0x100009E04, symSize: 0x3C }
  - { offset: 0x142A0, size: 0x8, addend: 0x0, symName: '__ZZ6LambdavENK3$_2clEi', symObjAddr: 0x88B4, symBinAddr: 0x100009E40, symSize: 0x54 }
  - { offset: 0x142D9, size: 0x8, addend: 0x0, symName: '__ZZ6LambdavENK4$_12clEi', symObjAddr: 0x8908, symBinAddr: 0x100009E94, symSize: 0x30 }
  - { offset: 0x1431B, size: 0x8, addend: 0x0, symName: '__ZZ6LambdavENK3$_3clEi', symObjAddr: 0x8938, symBinAddr: 0x100009EC4, symSize: 0x4C }
  - { offset: 0x1435E, size: 0x8, addend: 0x0, symName: '__ZZ6LambdavENK3$_4clEi', symObjAddr: 0x8984, symBinAddr: 0x100009F10, symSize: 0x58 }
  - { offset: 0x143A1, size: 0x8, addend: 0x0, symName: '__ZZ6LambdavENK3$_5clEi', symObjAddr: 0x89DC, symBinAddr: 0x100009F68, symSize: 0x48 }
  - { offset: 0x143FB, size: 0x8, addend: 0x0, symName: __ZNKSt3__113basic_ostreamIcNS_11char_traitsIcEEE6sentrycvbB8ne180100Ev, symObjAddr: 0x8C0C, symBinAddr: 0x10000A198, symSize: 0x1C }
  - { offset: 0x14421, size: 0x8, addend: 0x0, symName: __ZNSt3__119ostreambuf_iteratorIcNS_11char_traitsIcEEEC1B8ne180100ERNS_13basic_ostreamIcS2_EE, symObjAddr: 0x8E3C, symBinAddr: 0x10000A3C8, symSize: 0x34 }
  - { offset: 0x14459, size: 0x8, addend: 0x0, symName: __ZNKSt3__18ios_base5flagsB8ne180100Ev, symObjAddr: 0x8E70, symBinAddr: 0x10000A3FC, symSize: 0x18 }
  - { offset: 0x14481, size: 0x8, addend: 0x0, symName: __ZNKSt3__19basic_iosIcNS_11char_traitsIcEEE4fillB8ne180100Ev, symObjAddr: 0x8E88, symBinAddr: 0x10000A414, symSize: 0x64 }
  - { offset: 0x144A9, size: 0x8, addend: 0x0, symName: __ZNKSt3__119ostreambuf_iteratorIcNS_11char_traitsIcEEE6failedB8ne180100Ev, symObjAddr: 0x8EEC, symBinAddr: 0x10000A478, symSize: 0x20 }
  - { offset: 0x144CF, size: 0x8, addend: 0x0, symName: __ZNSt3__19basic_iosIcNS_11char_traitsIcEEE8setstateB8ne180100Ej, symObjAddr: 0x8F0C, symBinAddr: 0x10000A498, symSize: 0x2C }
  - { offset: 0x14504, size: 0x8, addend: 0x0, symName: __ZNKSt3__18ios_base5widthB8ne180100Ev, symObjAddr: 0x8F38, symBinAddr: 0x10000A4C4, symSize: 0x18 }
  - { offset: 0x1452C, size: 0x8, addend: 0x0, symName: __ZNSt3__115basic_streambufIcNS_11char_traitsIcEEE5sputnB8ne180100EPKcl, symObjAddr: 0x8F50, symBinAddr: 0x10000A4DC, symSize: 0x3C }
  - { offset: 0x1456E, size: 0x8, addend: 0x0, symName: __ZNSt3__112basic_stringIcNS_11char_traitsIcEENS_9allocatorIcEEE4dataB8ne180100Ev, symObjAddr: 0x8F8C, symBinAddr: 0x10000A518, symSize: 0x28 }
  - { offset: 0x14594, size: 0x8, addend: 0x0, symName: __ZNSt3__18ios_base5widthB8ne180100El, symObjAddr: 0x8FB4, symBinAddr: 0x10000A540, symSize: 0x2C }
  - { offset: 0x145DA, size: 0x8, addend: 0x0, symName: __ZNSt3__119ostreambuf_iteratorIcNS_11char_traitsIcEEEC2B8ne180100ERNS_13basic_ostreamIcS2_EE, symObjAddr: 0x8FF4, symBinAddr: 0x10000A580, symSize: 0x54 }
  - { offset: 0x14612, size: 0x8, addend: 0x0, symName: __ZNKSt3__19basic_iosIcNS_11char_traitsIcEEE5rdbufB8ne180100Ev, symObjAddr: 0x9048, symBinAddr: 0x10000A5D4, symSize: 0x24 }
  - { offset: 0x1463A, size: 0x8, addend: 0x0, symName: __ZNKSt3__18ios_base5rdbufB8ne180100Ev, symObjAddr: 0x906C, symBinAddr: 0x10000A5F8, symSize: 0x18 }
  - { offset: 0x14660, size: 0x8, addend: 0x0, symName: __ZNSt3__111char_traitsIcE11eq_int_typeB8ne180100Eii, symObjAddr: 0x9084, symBinAddr: 0x10000A610, symSize: 0x24 }
  - { offset: 0x14693, size: 0x8, addend: 0x0, symName: __ZNSt3__111char_traitsIcE3eofB8ne180100Ev, symObjAddr: 0x90A8, symBinAddr: 0x10000A634, symSize: 0x8 }
  - { offset: 0x146A7, size: 0x8, addend: 0x0, symName: __ZNKSt3__19basic_iosIcNS_11char_traitsIcEEE5widenB8ne180100Ec, symObjAddr: 0x90B0, symBinAddr: 0x10000A63C, symSize: 0x84 }
  - { offset: 0x14706, size: 0x8, addend: 0x0, symName: __ZNKSt3__15ctypeIcE5widenB8ne180100Ec, symObjAddr: 0x9160, symBinAddr: 0x10000A6EC, symSize: 0x38 }
  - { offset: 0x1473B, size: 0x8, addend: 0x0, symName: __ZNSt3__18ios_base8setstateB8ne180100Ej, symObjAddr: 0x9198, symBinAddr: 0x10000A724, symSize: 0x34 }
  - { offset: 0x14772, size: 0x8, addend: 0x0, symName: __ZNKSt3__16bitsetILm32EE9to_stringB8ne180100IcNS_11char_traitsIcEEEENS_12basic_stringIT_T0_NS_9allocatorIS6_EEEES6_S6_, symObjAddr: 0x91CC, symBinAddr: 0x10000A758, symSize: 0x3C }
  - { offset: 0x147C8, size: 0x8, addend: 0x0, symName: __ZNKSt3__16bitsetILm32EE9to_stringB8ne180100IcNS_11char_traitsIcEENS_9allocatorIcEEEENS_12basic_stringIT_T0_T1_EES8_S8_, symObjAddr: 0x9208, symBinAddr: 0x10000A794, symSize: 0x134 }
  - { offset: 0x1484C, size: 0x8, addend: 0x0, symName: __ZNKSt3__16bitsetILm32EEixB8ne180100Em, symObjAddr: 0x933C, symBinAddr: 0x10000A8C8, symSize: 0x3C }
  - { offset: 0x14881, size: 0x8, addend: 0x0, symName: __ZNKSt3__121__bit_const_referenceINS_8__bitsetILm1ELm32EEEEcvbB8ne180100Ev, symObjAddr: 0x9378, symBinAddr: 0x10000A904, symSize: 0x28 }
  - { offset: 0x148A7, size: 0x8, addend: 0x0, symName: __ZNKSt3__18__bitsetILm1ELm32EE10__make_refB8ne180100Em, symObjAddr: 0x93A0, symBinAddr: 0x10000A92C, symSize: 0x40 }
  - { offset: 0x148DC, size: 0x8, addend: 0x0, symName: __ZNSt3__121__bit_const_referenceINS_8__bitsetILm1ELm32EEEEC1B8ne180100EPKmm, symObjAddr: 0x93E0, symBinAddr: 0x10000A96C, symSize: 0x3C }
  - { offset: 0x14922, size: 0x8, addend: 0x0, symName: __ZNSt3__121__bit_const_referenceINS_8__bitsetILm1ELm32EEEEC2B8ne180100EPKmm, symObjAddr: 0x941C, symBinAddr: 0x10000A9A8, symSize: 0x2C }
  - { offset: 0x14A19, size: 0x8, addend: 0x0, symName: __ZNKSt3__113basic_istreamIcNS_11char_traitsIcEEE6sentrycvbB8ne180100Ev, symObjAddr: 0x9448, symBinAddr: 0x10000A9D4, symSize: 0x1C }
  - { offset: 0x14A3F, size: 0x8, addend: 0x0, symName: __ZNSt3__112basic_stringIcNS_11char_traitsIcEENS_9allocatorIcEEE5clearB8ne180100Ev, symObjAddr: 0x9464, symBinAddr: 0x10000A9F0, symSize: 0x94 }
  - { offset: 0x14A74, size: 0x8, addend: 0x0, symName: __ZNKSt3__112basic_stringIcNS_11char_traitsIcEENS_9allocatorIcEEE8max_sizeB8ne180100Ev, symObjAddr: 0x94F8, symBinAddr: 0x10000AA84, symSize: 0xA8 }
  - { offset: 0x14AC6, size: 0x8, addend: 0x0, symName: __ZNSt3__115basic_streambufIcNS_11char_traitsIcEEE5sgetcB8ne180100Ev, symObjAddr: 0x95A0, symBinAddr: 0x10000AB2C, symSize: 0x6C }
  - { offset: 0x14AEC, size: 0x8, addend: 0x0, symName: __ZNSt3__111char_traitsIcE12to_char_typeB8ne180100Ei, symObjAddr: 0x960C, symBinAddr: 0x10000AB98, symSize: 0x18 }
  - { offset: 0x14B10, size: 0x8, addend: 0x0, symName: __ZNKSt3__15ctypeIcE2isB8ne180100Ejc, symObjAddr: 0x9624, symBinAddr: 0x10000ABB0, symSize: 0x74 }
  - { offset: 0x14B54, size: 0x8, addend: 0x0, symName: __ZNSt3__115basic_streambufIcNS_11char_traitsIcEEE6sbumpcB8ne180100Ev, symObjAddr: 0x9698, symBinAddr: 0x10000AC24, symSize: 0x74 }
  - { offset: 0x14B7A, size: 0x8, addend: 0x0, symName: __ZNSt3__18ios_base18__setstate_nothrowB8ne180100Ej, symObjAddr: 0x970C, symBinAddr: 0x10000AC98, symSize: 0x5C }
  - { offset: 0x14BAF, size: 0x8, addend: 0x0, symName: __ZNKSt3__19basic_iosIcNS_11char_traitsIcEEE10exceptionsB8ne180100Ev, symObjAddr: 0x9768, symBinAddr: 0x10000ACF4, symSize: 0x24 }
  - { offset: 0x14BD5, size: 0x8, addend: 0x0, symName: __ZNSt3__111char_traitsIcE6assignB8ne180100ERcRKc, symObjAddr: 0x978C, symBinAddr: 0x10000AD18, symSize: 0x24 }
  - { offset: 0x14C06, size: 0x8, addend: 0x0, symName: __ZNSt3__112basic_stringIcNS_11char_traitsIcEENS_9allocatorIcEEE15__set_long_sizeB8ne180100Em, symObjAddr: 0x97B0, symBinAddr: 0x10000AD3C, symSize: 0x38 }
  - { offset: 0x14C3B, size: 0x8, addend: 0x0, symName: __ZNSt3__112basic_stringIcNS_11char_traitsIcEENS_9allocatorIcEEE16__set_short_sizeB8ne180100Em, symObjAddr: 0x97E8, symBinAddr: 0x10000AD74, symSize: 0x78 }
  - { offset: 0x14C70, size: 0x8, addend: 0x0, symName: __ZNKSt3__112basic_stringIcNS_11char_traitsIcEENS_9allocatorIcEEE17__annotate_shrinkB8ne180100Em, symObjAddr: 0x9860, symBinAddr: 0x10000ADEC, symSize: 0x14 }
  - { offset: 0x14CB0, size: 0x8, addend: 0x0, symName: __ZNSt3__116allocator_traitsINS_9allocatorIcEEE8max_sizeB8ne180100IS2_vvEEmRKS2_, symObjAddr: 0x9874, symBinAddr: 0x10000AE00, symSize: 0x28 }
  - { offset: 0x14CDB, size: 0x8, addend: 0x0, symName: __ZNKSt3__112basic_stringIcNS_11char_traitsIcEENS_9allocatorIcEEE7__allocB8ne180100Ev, symObjAddr: 0x989C, symBinAddr: 0x10000AE28, symSize: 0x24 }
  - { offset: 0x14D01, size: 0x8, addend: 0x0, symName: __ZNKSt3__117__compressed_pairINS_12basic_stringIcNS_11char_traitsIcEENS_9allocatorIcEEE5__repES5_E6secondB8ne180100Ev, symObjAddr: 0x98C0, symBinAddr: 0x10000AE4C, symSize: 0x24 }
  - { offset: 0x14D27, size: 0x8, addend: 0x0, symName: __ZNKSt3__122__compressed_pair_elemINS_9allocatorIcEELi1ELb1EE5__getB8ne180100Ev, symObjAddr: 0x98E4, symBinAddr: 0x10000AE70, symSize: 0x14 }
  - { offset: 0x14D4D, size: 0x8, addend: 0x0, symName: __ZNSt3__111char_traitsIcE11to_int_typeB8ne180100Ec, symObjAddr: 0x98F8, symBinAddr: 0x10000AE84, symSize: 0x14 }
  - { offset: 0x14D70, size: 0x8, addend: 0x0, symName: __Z7isasciii, symObjAddr: 0x990C, symBinAddr: 0x10000AE98, symSize: 0x20 }
  - { offset: 0x14D9D, size: 0x8, addend: 0x0, symName: __ZNKSt3__18ios_base10exceptionsB8ne180100Ev, symObjAddr: 0x992C, symBinAddr: 0x10000AEB8, symSize: 0x18 }
...
